(lp0
(dp1
S'drugs'
p2
(lp3
VPA128406956
p4
aVPA448771
p5
aVPA452620
p6
asS'alleles'
p7
(lp8
(dp9
S'starname'
p10
V*1
p11
sS'rsids'
p12
(lp13
Vrs3918290
p14
aVrs72549303
p15
aVrs1801158
p16
aVrs1801159
p17
aVrs1801160
p18
aVrs72549309
p19
aVrs1801266
p20
aVrs1801265
p21
aVrs1801267
p22
aVrs1801268
p23
aVrs72549306
p24
aVrs80081766
p25
aVrs78060119
p26
aVrs55886062
p27
asS'id'
p28
VPA165949081
p29
sS'hgvs'
p30
VNC_000001.11:g.[=]
p31
sS'copynum'
p32
V1
p33
sa(dp34
g10
V*2A
p35
sg12
(lp36
Vrs3918290
p37
asg28
VPA165949082
p38
sg30
VNC_000001.11:g.[97915614C>T]
p39
sg32
V1
p40
sa(dp41
g10
V*2B
p42
sg12
(lp43
Vrs3918290
p44
aVrs1801159
p45
asg28
VPA165949083
p46
sg30
VNC_000001.11:g.[97915614C>T;97981395T>C]
p47
sg32
V1
p48
sa(dp49
g10
V*3
p50
sg12
(lp51
Vrs72549303
p52
asg28
VPA165949084
p53
sg30
VNC_000001.11:g.[97915622_97915622delG]
p54
sg32
V1
p55
sa(dp56
g10
V*4
p57
sg12
(lp58
Vrs1801158
p59
asg28
VPA165949085
p60
sg30
VNC_000001.11:g.[97515865C>T]
p61
sg32
V1
p62
sa(dp63
g10
V*5
p64
sg12
(lp65
Vrs1801159
p66
asg28
VPA165949086
p67
sg30
VNC_000001.11:g.[97981395T>C]
p68
sg32
V1
p69
sa(dp70
g10
V*6
p71
sg12
(lp72
Vrs1801160
p73
asg28
VPA165949087
p74
sg30
VNC_000001.11:g.[97770920C>T]
p75
sg32
V1
p76
sa(dp77
g10
V*7
p78
sg12
(lp79
Vrs72549309
p80
asg28
VPA165949088
p81
sg30
VNC_000001.11:g.[98205971_98205974delATGA]
p82
sg32
V1
p83
sa(dp84
g10
V*8
p85
sg12
(lp86
Vrs1801266
p87
asg28
VPA165949089
p88
sg30
VNC_000001.11:g.[98157332G>A]
p89
sg32
V1
p90
sa(dp91
g10
V*9A
p92
sg12
(lp93
Vrs1801265
p94
asg28
VPA165949090
p95
sg30
VNC_000001.11:g.[98348885A>G]
p96
sg32
V1
p97
sa(dp98
g10
V*9B
p99
sg12
(lp100
Vrs1801265
p101
aVrs1801267
p102
asg28
VPA165949091
p103
sg30
VNC_000001.11:g.[97564154C>T;98348885A>G]
p104
sg32
V1
p105
sa(dp106
g10
V*10
p107
sg12
(lp108
Vrs1801268
p109
asg28
VPA165949092
p110
sg30
VNC_000001.11:g.[97544627C>A]
p111
sg32
V1
p112
sa(dp113
g10
V*11
p114
sg12
(lp115
Vrs72549306
p116
asg28
VPA165949093
p117
sg30
VNC_000001.11:g.[98058899C>A]
p118
sg32
V1
p119
sa(dp120
g10
V*12
p121
sg12
(lp122
Vrs80081766
p123
aVrs78060119
p124
asg28
VPA165949094
p125
sg30
VNC_000001.11:g.[98039499C>A;98348908C>T]
p126
sg32
V1
p127
sa(dp128
g10
V*13
p129
sg12
(lp130
Vrs55886062
p131
asg28
VPA165949095
p132
sg30
VNC_000001.11:g.[97981343A>C]
p133
sg32
V1
p134
sa(dp135
g10
Vrs67376798T
p136
sg12
(lp137
Vrs67376798
p138
asg28
VPA166122689
p139
sg30
VNC_000001.11:g.[=]
p140
sg32
V1
p141
sa(dp142
g10
Vrs67376798A
p143
sg12
(lp144
Vrs67376798
p145
asg28
VPA166122690
p146
sg30
VNC_000001.11:g.[97547947T>A]
p147
sg32
V1
p148
sa(dp149
g10
V*1
p150
sg12
(lp151
Vrs3918290
p152
aVrs80081766
p153
aVrs1801265
p154
aVrs72549309
p155
aVrs1801266
p156
aVrs72549306
p157
aVrs78060119
p158
aVrs1801158
p159
aVrs1801159
p160
aVrs55886062
p161
aVrs72549303
p162
aVrs1801160
p163
aVrs1801267
p164
aVrs1801268
p165
asg28
VPA166128308
p166
sg30
VNC_000001.10:g.[=]
p167
sg32
V1
p168
sa(dp169
g10
V*2A
p170
sg12
(lp171
Vrs3918290
p172
asg28
VPA166128309
p173
sg30
VNC_000001.10:g.[97915614C>T]
p174
sg32
V1
p175
sa(dp176
g10
V*2B
p177
sg12
(lp178
Vrs3918290
p179
aVrs1801159
p180
asg28
VPA166128310
p181
sg30
VNC_000001.10:g.[97915614C>T;97981395T>C]
p182
sg32
V1
p183
sa(dp184
g10
V*3
p185
sg12
(lp186
Vrs72549303
p187
asg28
VPA166128311
p188
sg30
VNC_000001.10:g.[97915622_97915622delG]
p189
sg32
V1
p190
sa(dp191
g10
V*4
p192
sg12
(lp193
Vrs1801158
p194
asg28
VPA166128312
p195
sg30
VNC_000001.10:g.[97981421C>T]
p196
sg32
V1
p197
sa(dp198
g10
V*5
p199
sg12
(lp200
Vrs1801159
p201
asg28
VPA166128313
p202
sg30
VNC_000001.10:g.[97981395T>C]
p203
sg32
V1
p204
sa(dp205
g10
V*6
p206
sg12
(lp207
Vrs1801160
p208
asg28
VPA166128314
p209
sg30
VNC_000001.10:g.[97770920C>T]
p210
sg32
V1
p211
sa(dp212
g10
V*7
p213
sg12
(lp214
Vrs72549309
p215
asg28
VPA166128315
p216
sg30
VNC_000001.10:g.[98205971_98205974delATGA]
p217
sg32
V1
p218
sa(dp219
g10
V*8
p220
sg12
(lp221
Vrs1801266
p222
asg28
VPA166128316
p223
sg30
VNC_000001.10:g.[98157332G>A]
p224
sg32
V1
p225
sa(dp226
g10
V*9A
p227
sg12
(lp228
Vrs1801265
p229
asg28
VPA166128317
p230
sg30
VNC_000001.10:g.[98348885A>G]
p231
sg32
V1
p232
sa(dp233
g10
V*9B
p234
sg12
(lp235
Vrs1801265
p236
aVrs1801267
p237
asg28
VPA166128318
p238
sg30
VNC_000001.10:g.[97564154C>T;98348885A>G]
p239
sg32
V1
p240
sa(dp241
g10
V*10
p242
sg12
(lp243
Vrs1801268
p244
asg28
VPA166128319
p245
sg30
VNC_000001.10:g.[97544627C>A]
p246
sg32
V1
p247
sa(dp248
g10
V*11
p249
sg12
(lp250
Vrs72549306
p251
asg28
VPA166128320
p252
sg30
VNC_000001.10:g.[98058899C>A]
p253
sg32
V1
p254
sa(dp255
g10
V*12
p256
sg12
(lp257
Vrs80081766
p258
aVrs78060119
p259
asg28
VPA166128321
p260
sg30
VNC_000001.10:g.[98039499C>A;98348908C>T]
p261
sg32
V1
p262
sa(dp263
g10
V*13
p264
sg12
(lp265
Vrs55886062
p266
asg28
VPA166128322
p267
sg30
VNC_000001.10:g.[97981343A>C]
p268
sg32
V1
p269
sasS'symbol'
p270
VDPYD
p271
sg28
VPA145
p272
sa(dp273
g2
(lp274
sg7
(lp275
(dp276
g10
V*1a
p277
sg12
(lp278
Vrs11683356
p279
aVrs45523834
p280
aVrs17854828
p281
aVrs10187694
p282
aVUGT1A10 719C>T
p283
aVrs28969685
p284
aVrs56935833
p285
aVrs58704432
p286
aVUGT1A10 622T>C
p287
asg28
VPA166117685
p288
sg30
VNC_000002.12:g.[=]
p289
sg32
V1
p290
sa(dp291
g10
V*1b
p292
sg12
(lp293
Vrs11683356
p294
asg28
VPA166117686
p295
sg30
VNC_000002.12:g.[234545294G>A]
p296
sg32
V1
p297
sa(dp298
g10
V*1c
p299
sg12
(lp300
Vrs45523834
p301
asg28
VPA166117687
p302
sg30
VNC_000002.12:g.[234545765T>C]
p303
sg32
V1
p304
sa(dp305
g10
V*1d
p306
sg12
(lp307
Vrs45523834
p308
aVrs17854828
p309
asg28
VPA166117688
p310
sg30
VNC_000002.12:g.[234545765T>C;234545861C>T]
p311
sg32
V1
p312
sa(dp313
g10
V*2a
p314
sg12
(lp315
Vrs10187694
p316
asg28
VPA166117689
p317
sg30
VNC_000002.12:g.[234545583G>A]
p318
sg32
V1
p319
sa(dp320
g10
V*3a
p321
sg12
(lp322
VUGT1A10 719C>T
p323
asg28
VPA166117690
p324
sg30
V719C>T
p325
sg32
V1
p326
sa(dp327
g10
V*3b
p328
sg12
(lp329
Vrs17854828
p330
aVUGT1A10 719C>T
p331
asg28
VPA166117691
p332
sg30
V719C>T,NC_000002.12:g.[234545861C>T]
p333
sg32
V1
p334
sa(dp335
g10
V*4a
p336
sg12
(lp337
Vrs28969685
p338
asg28
VPA166117692
p339
sg30
VNC_000002.12:g.[234545898C>A]
p340
sg32
V1
p341
sa(dp342
g10
V*4b
p343
sg12
(lp344
Vrs17854828
p345
aVrs28969685
p346
asg28
VPA166117693
p347
sg30
VNC_000002.12:g.[234545861C>T;234545898C>A]
p348
sg32
V1
p349
sa(dp350
g10
V*4c
p351
sg12
(lp352
Vrs45523834
p353
aVrs17854828
p354
aVrs28969685
p355
asg28
VPA166117694
p356
sg30
VNC_000002.12:g.[234545765T>C;234545861C>T;234545898C>A]
p357
sg32
V1
p358
sa(dp359
g10
V*5
p360
sg12
(lp361
Vrs56935833
p362
asg28
VPA166117695
p363
sg30
VNC_000002.12:g.[234545345G>A]
p364
sg32
V1
p365
sa(dp366
g10
V*6
p367
sg12
(lp368
Vrs58704432
p369
asg28
VPA166117696
p370
sg30
VNC_000002.12:g.[234545773C>T]
p371
sg32
V1
p372
sa(dp373
g10
V*7
p374
sg12
(lp375
VUGT1A10 622T>C
p376
asg28
VPA166117697
p377
sg30
V622T>C
p378
sg32
V1
p379
sasg270
VUGT1A10
p380
sg28
VPA37174
p381
sa(dp382
g2
(lp383
sg7
(lp384
sg270
VGADL1
p385
sg28
VPA134944477
p386
sa(dp387
g2
(lp388
VPA451522
p389
asg7
(lp390
sg270
VBCHE
p391
sg28
VPA25294
p392
sa(dp393
g2
(lp394
VPA449683
p395
aVPA449088
p396
asg7
(lp397
sg270
VUGT2B7
p398
sg28
VPA361
p399
sa(dp400
g2
(lp401
VPA165291492
p402
aVPA134308647
p403
asg7
(lp404
sg270
VABCG2
p405
sg28
VPA390
p406
sa(dp407
g2
(lp408
sg7
(lp409
sg270
VCEP72
p410
sg28
VPA142672125
p411
sa(dp412
g2
(lp413
VPA450379
p414
aVPA451663
p415
aVPA449014
p416
aVPA448515
p417
asg7
(lp418
(dp419
g10
V*3A
p420
sg12
(lp421
Vrs1142345
p422
aVrs1800460
p423
asg28
VPA165819270
p424
sg30
VNC_000006.12:g.[18130918T>C;18139228C>T]
p425
sg32
V1
p426
sa(dp427
g10
V*3B
p428
sg12
(lp429
Vrs1800460
p430
asg28
VPA165819271
p431
sg30
VNC_000006.12:g.[18139228C>T]
p432
sg32
V1
p433
sa(dp434
g10
V*3C
p435
sg12
(lp436
Vrs1142345
p437
asg28
VPA165819272
p438
sg30
VNC_000006.12:g.[18130918T>C]
p439
sg32
V1
p440
sa(dp441
g10
V*3D
p442
sg12
(lp443
Vrs1142345
p444
aVrs1800460
p445
aVrs72552739
p446
asg28
VPA165819273
p447
sg30
VNC_000006.12:g.[18130918T>C;18139228C>T;18143901C>A]
p448
sg32
V1
p449
sa(dp450
g10
V*4
p451
sg12
(lp452
Vrs1800584
p453
asg28
VPA165819274
p454
sg30
VNC_000006.12:g.[18131012C>T]
p455
sg32
V1
p456
sa(dp457
g10
V*5
p458
sg12
(lp459
Vrs72552740
p460
asg28
VPA165819275
p461
sg30
VNC_000006.12:g.[18148141A>G]
p462
sg32
V1
p463
sa(dp464
g10
V*6
p465
sg12
(lp466
Vrs75543815
p467
asg28
VPA165819276
p468
sg30
VNC_000006.12:g.[18134076T>A]
p469
sg32
V1
p470
sa(dp471
g10
V*7
p472
sg12
(lp473
Vrs72552736
p474
asg28
VPA165819277
p475
sg30
VNC_000006.12:g.[18130956A>C]
p476
sg32
V1
p477
sa(dp478
g10
V*8
p479
sg12
(lp480
Vrs56161402
p481
asg28
VPA165819278
p482
sg30
VNC_000006.12:g.[18130993C>T]
p483
sg32
V1
p484
sa(dp485
g10
V*9
p486
sg12
(lp487
Vrs151149760
p488
asg28
VPA165819279
p489
sg30
VNC_000006.12:g.[18143837T>G]
p490
sg32
V1
p491
sa(dp492
g10
V*10
p493
sg12
(lp494
Vrs72552737
p495
asg28
VPA165819280
p496
sg30
VNC_000006.12:g.[18139258C>G]
p497
sg32
V1
p498
sa(dp499
g10
V*11
p500
sg12
(lp501
Vrs72552738
p502
asg28
VPA165819281
p503
sg30
VNC_000006.12:g.[18139920C>T]
p504
sg32
V1
p505
sa(dp506
g10
V*12
p507
sg12
(lp508
Vrs200220210
p509
asg28
VPA165819282
p510
sg30
VNC_000006.12:g.[18139941G>A]
p511
sg32
V1
p512
sa(dp513
g10
V*13
p514
sg12
(lp515
Vrs72552742
p516
asg28
VPA165819283
p517
sg30
VNC_000006.12:g.[18149276T>A]
p518
sg32
V1
p519
sa(dp520
g10
V*14
p521
sg12
(lp522
Vrs9333569
p523
asg28
VPA165819284
p524
sg30
VNC_000006.12:g.[18149358T>C]
p525
sg32
V1
p526
sa(dp527
g10
V*15
p528
sg12
(lp529
Vrs9333570
p530
asg28
VPA165819285
p531
sg30
VNC_000006.12:g.[18134121C>T]
p532
sg32
V1
p533
sa(dp534
g10
V*16
p535
sg12
(lp536
Vrs144041067
p537
asg28
VPA165819286
p538
sg30
VNC_000006.12:g.[18139200C>T]
p539
sg32
V1
p540
sa(dp541
g10
V*17
p542
sg12
(lp543
Vchr6:18149004 (hg38)
p544
asg28
VPA165819287
p545
sg30
VNC_000006.12:g.[18149004G>C]
p546
sg32
V1
p547
sa(dp548
g10
V*18
p549
sg12
(lp550
Vchr6:18147845 (hg38)
p551
asg28
VPA165819288
p552
sg30
VNC_000006.12:g.[18147845C>T]
p553
sg32
V1
p554
sa(dp555
g10
V*20
p556
sg12
(lp557
Vrs150900439
p558
asg28
VPA165819290
p559
sg30
VNC_000006.12:g.[18130925T>C]
p560
sg32
V1
p561
sa(dp562
g10
V*21
p563
sg12
(lp564
Vrs200591577
p565
asg28
VPA165819291
p566
sg30
VNC_000006.12:g.[18148082G>C]
p567
sg32
V1
p568
sa(dp569
g10
V*22
p570
sg12
(lp571
Vchr6:18138969 (hg38)
p572
asg28
VPA165819292
p573
sg30
VNC_000006.12:g.[18138969C>G]
p574
sg32
V1
p575
sa(dp576
g10
V*23
p577
sg12
(lp578
Vrs74423290
p579
asg28
VPA165819293
p580
sg30
VNC_000006.12:g.[18134115G>C]
p581
sg32
V1
p582
sa(dp583
g10
V*24
p584
sg12
(lp585
Vrs6921269
p586
asg28
VPA165819295
p587
sg30
VNC_000006.12:g.[18134078C>A]
p588
sg32
V1
p589
sa(dp590
g10
V*25
p591
sg12
(lp592
Vrs377085266
p593
asg28
VPA165819296
p594
sg30
VNC_000006.12:g.[18131003A>G]
p595
sg32
V1
p596
sa(dp597
g10
V*3E
p598
sg12
(lp599
Vrs1142345
p600
aVrs1800460
p601
aVrs3931660
p602
aVrs12529220
p603
aVrs2518463
p604
aVrs2842934
p605
asg28
VPA165958461
p606
sg30
VNC_000006.12:g.[18130918T>C;18139214A>G;18139228C>T;18143769A>G;18148247T>A;18149105A>T]
p607
sg32
V1
p608
sa(dp609
g10
V*1
p610
sg12
(lp611
Vrs1800462
p612
aVrs1142345
p613
aVrs1800460
p614
aVrs1800584
p615
aVrs72552739
p616
aVrs72552740
p617
aVrs75543815
p618
aVrs72552736
p619
aVrs56161402
p620
aVrs151149760
p621
aVrs72552737
p622
aVrs72552738
p623
aVrs200220210
p624
aVrs72552742
p625
aVrs9333569
p626
aVrs9333570
p627
aVrs144041067
p628
aVchr6:18149004 (hg38)
p629
aVchr6:18147845 (hg38)
p630
aVchr6:18149022 (hg38)
p631
aVrs150900439
p632
aVrs200591577
p633
aVchr6:18138969 (hg38)
p634
aVrs74423290
p635
aVrs6921269
p636
aVrs377085266
p637
aVrs3931660
p638
aVrs12529220
p639
aVrs2518463
p640
aVrs2842934
p641
aVchr6:18155166 (hg38)
p642
aVchr6:18143597 (hg38)
p643
aVrs72556347
p644
aVchr6:18143643 (hg38)
p645
aVchr6:18143613 (hg38)
p646
aVrs267607275
p647
aVrs79901429
p648
aVrs115106679
p649
aVrs112339338
p650
aVrs111901354
p651
aVchr6:18147856 (hg38)
p652
aVchr6:18132163 (hg38)
p653
aVrs398122996
p654
aVchr6:18133870 (hg38)
p655
asg28
VPA165819268
p656
sg30
VNC_000006.12:g.[=]
p657
sg32
V1
p658
sa(dp659
g10
V*2
p660
sg12
(lp661
Vrs1800462
p662
asg28
VPA165819269
p663
sg30
VNC_000006.12:g.[18143955C>G]
p664
sg32
V1
p665
sa(dp666
g10
V*1A
p667
sg12
(lp668
Vchr6:18155166 (hg38)
p669
asg28
VPA166005214
p670
sg30
VNC_000006.12:g.[18155166G>A]
p671
sg32
V1
p672
sa(dp673
g10
V*1S
p674
sg12
(lp675
Vrs2842934
p676
asg28
VPA166005215
p677
sg30
VNC_000006.12:g.[18139214A>G]
p678
sg32
V1
p679
sa(dp680
g10
V*19
p681
sg12
(lp682
Vchr6:18143597 (hg38)
p683
asg28
VPA166005216
p684
sg30
VNC_000006.12:g.[18143597T>G]
p685
sg32
V1
p686
sa(dp687
g10
V*26
p688
sg12
(lp689
Vrs72556347
p690
asg28
VPA166005217
p691
sg30
VNC_000006.12:g.[18132367A>G]
p692
sg32
V1
p693
sa(dp694
g10
V*27
p695
sg12
(lp696
Vchr6:18143643 (hg38)
p697
asg28
VPA166005218
p698
sg30
VNC_000006.12:g.[18143643A>C]
p699
sg32
V1
p700
sa(dp701
g10
V*28
p702
sg12
(lp703
Vchr6:18143613 (hg38)
p704
asg28
VPA166005219
p705
sg30
VNC_000006.12:g.[18143613C>G]
p706
sg32
V1
p707
sa(dp708
g10
V*29
p709
sg12
(lp710
Vrs267607275
p711
asg28
VPA166005220
p712
sg30
VNC_000006.12:g.[18149357A>G]
p713
sg32
V1
p714
sa(dp715
g10
V*30
p716
sg12
(lp717
Vchr6:18149022 (hg38)
p718
asg28
VPA166005221
p719
sg30
VNC_000006.12:g.[18149022C>T]
p720
sg32
V1
p721
sa(dp722
g10
V*31
p723
sg12
(lp724
Vrs79901429
p725
asg28
VPA166005222
p726
sg30
VNC_000006.12:g.[18132378A>G]
p727
sg32
V1
p728
sa(dp729
g10
V*32
p730
sg12
(lp731
Vrs115106679
p732
asg28
VPA166005223
p733
sg30
VNC_000006.12:g.[18143853C>T]
p734
sg32
V1
p735
sa(dp736
g10
V*33
p737
sg12
(lp738
Vrs112339338
p739
asg28
VPA166005224
p740
sg30
VNC_000006.12:g.[18139201G>A]
p741
sg32
V1
p742
sa(dp743
g10
V*34
p744
sg12
(lp745
Vrs111901354
p746
asg28
VPA166005225
p747
sg30
VNC_000006.12:g.[18143949G>A]
p748
sg32
V1
p749
sa(dp750
g10
V*35
p751
sg12
(lp752
Vchr6:18147856 (hg38)
p753
asg28
VPA166041212
p754
sg30
VNC_000006.12:g.[18147856A>G]
p755
sg32
V1
p756
sa(dp757
g10
V*36
p758
sg12
(lp759
Vchr6:18132163 (hg38)
p760
asg28
VPA166041213
p761
sg30
VNC_000006.12:g.[18132163C>T]
p762
sg32
V1
p763
sa(dp764
g10
V*37
p765
sg12
(lp766
Vrs398122996
p767
asg28
VPA166119185
p768
sg30
VNC_000006.12:g.[18130989A>T]
p769
sg32
V1
p770
sa(dp771
g10
V*38
p772
sg12
(lp773
Vchr6:18133870 (hg38)
p774
asg28
VPA166124408
p775
sg30
VNC_000006.12:g.[18133870A>G]
p776
sg32
V1
p777
sa(dp778
g10
V*1
p779
sg12
(lp780
Vrs1800462
p781
aVrs1142345
p782
aVrs1800460
p783
aVrs1800584
p784
aVrs72552740
p785
aVrs75543815
p786
aVrs56161402
p787
aVrs151149760
p788
aVrs72552737
p789
aVrs72552738
p790
aVrs200220210
p791
aVrs72552742
p792
aVrs144041067
p793
aVchr6:18149004 (hg38)
p794
aVchr6:18147845 (hg38)
p795
aVrs2842934
p796
asg28
VPA166128347
p797
sg30
VNC_000006.12:g.[=]
p798
sg32
V1
p799
sa(dp800
g10
V*1S
p801
sg12
(lp802
Vrs2842934
p803
asg28
VPA166128348
p804
sg30
VNC_000006.12:g.[18139214A>G]
p805
sg32
V1
p806
sa(dp807
g10
V*2
p808
sg12
(lp809
Vrs1800462
p810
asg28
VPA166128349
p811
sg30
VNC_000006.12:g.[18143955C>G]
p812
sg32
V1
p813
sa(dp814
g10
V*3A
p815
sg12
(lp816
Vrs1142345
p817
aVrs1800460
p818
asg28
VPA166128350
p819
sg30
VNC_000006.12:g.[18130918T>C;18139228C>T]
p820
sg32
V1
p821
sa(dp822
g10
V*3B
p823
sg12
(lp824
Vrs1800460
p825
asg28
VPA166128351
p826
sg30
VNC_000006.12:g.[18139228C>T]
p827
sg32
V1
p828
sa(dp829
g10
V*3C
p830
sg12
(lp831
Vrs1142345
p832
asg28
VPA166128352
p833
sg30
VNC_000006.12:g.[18130918T>C]
p834
sg32
V1
p835
sa(dp836
g10
V*4
p837
sg12
(lp838
Vrs1800584
p839
asg28
VPA166128353
p840
sg30
VNC_000006.12:g.[18131012C>T]
p841
sg32
V1
p842
sa(dp843
g10
V*5
p844
sg12
(lp845
Vrs72552740
p846
asg28
VPA166128354
p847
sg30
VNC_000006.12:g.[18148141A>G]
p848
sg32
V1
p849
sa(dp850
g10
V*6
p851
sg12
(lp852
Vrs75543815
p853
asg28
VPA166128355
p854
sg30
VNC_000006.12:g.[18134076T>A]
p855
sg32
V1
p856
sa(dp857
g10
V*8
p858
sg12
(lp859
Vrs56161402
p860
asg28
VPA166128356
p861
sg30
VNC_000006.12:g.[18130993C>T]
p862
sg32
V1
p863
sa(dp864
g10
V*9
p865
sg12
(lp866
Vrs151149760
p867
asg28
VPA166128357
p868
sg30
VNC_000006.12:g.[18143837T>G]
p869
sg32
V1
p870
sa(dp871
g10
V*10
p872
sg12
(lp873
Vrs72552737
p874
asg28
VPA166128358
p875
sg30
VNC_000006.12:g.[18139258C>G]
p876
sg32
V1
p877
sa(dp878
g10
V*11
p879
sg12
(lp880
Vrs72552738
p881
asg28
VPA166128359
p882
sg30
VNC_000006.12:g.[18139920C>T]
p883
sg32
V1
p884
sa(dp885
g10
V*12
p886
sg12
(lp887
Vrs200220210
p888
asg28
VPA166128360
p889
sg30
VNC_000006.12:g.[18139941G>A]
p890
sg32
V1
p891
sa(dp892
g10
V*13
p893
sg12
(lp894
Vrs72552742
p895
asg28
VPA166128361
p896
sg30
VNC_000006.12:g.[18149276T>A]
p897
sg32
V1
p898
sa(dp899
g10
V*16
p900
sg12
(lp901
Vrs144041067
p902
asg28
VPA166128362
p903
sg30
VNC_000006.12:g.[18139200C>T]
p904
sg32
V1
p905
sa(dp906
g10
V*17
p907
sg12
(lp908
Vchr6:18149004 (hg38)
p909
asg28
VPA166128363
p910
sg30
VNC_000006.12:g.[18149004G>C]
p911
sg32
V1
p912
sa(dp913
g10
V*18
p914
sg12
(lp915
Vchr6:18147845 (hg38)
p916
asg28
VPA166128364
p917
sg30
VNC_000006.12:g.[18147845C>T]
p918
sg32
V1
p919
sasg270
VTPMT
p920
sg28
VPA356
p921
sa(dp922
g2
(lp923
sg7
(lp924
sg270
VCYCSP5
p925
sg28
VPA142672032
p926
sa(dp927
g2
(lp928
sg7
(lp929
sg270
VOPRM1
p930
sg28
VPA31945
p931
sa(dp932
g2
(lp933
sg7
(lp934
(dp935
g10
V*1
p936
sg12
(lp937
Vrs12208357
p938
aVrs55918055
p939
aVrs34130495
p940
aVrs72552763
p941
aVrs34059508
p942
asg28
VPA166110035
p943
sg30
VNC_000006.12:g.[=]
p944
sg32
V1
p945
sa(dp946
g10
V*2
p947
sg12
(lp948
Vrs12208357
p949
aVrs55918055
p950
aVrs34130495
p951
aVrs72552763
p952
aVrs34059508
p953
asg28
VPA166110036
p954
sg30
VNC_000006.12:g.[160560883_160560885delGAT]
p955
sg32
V1
p956
sa(dp957
g10
V*3
p958
sg12
(lp959
Vrs12208357
p960
aVrs55918055
p961
aVrs34130495
p962
aVrs72552763
p963
aVrs34059508
p964
asg28
VPA166110037
p965
sg30
VNC_000006.12:g.[160543148C>T]
p966
sg32
V1
p967
sa(dp968
g10
V*4
p969
sg12
(lp970
Vrs12208357
p971
aVrs55918055
p972
aVrs34130495
p973
aVrs72552763
p974
aVrs34059508
p975
asg28
VPA166110038
p976
sg30
VNC_000006.12:g.[160560824G>A]
p977
sg32
V1
p978
sa(dp979
g10
V*5
p980
sg12
(lp981
Vrs12208357
p982
aVrs55918055
p983
aVrs34130495
p984
aVrs72552763
p985
aVrs34059508
p986
asg28
VPA166110039
p987
sg30
VNC_000006.12:g.[160560883_160560885delGAT;160575837G>C]
p988
sg32
V1
p989
sa(dp990
g10
V*6
p991
sg12
(lp992
Vrs12208357
p993
aVrs55918055
p994
aVrs34130495
p995
aVrs72552763
p996
aVrs34059508
p997
asg28
VPA166116261
p998
sg30
VNC_000006.12:g.[160543229T>C;160560883_160560885delGAT]
p999
sg32
V1
p1000
sasg270
VSLC22A1
p1001
sg28
VPA329
p1002
sa(dp1003
g2
(lp1004
sg7
(lp1005
sg270
VPOR
p1006
sg28
VPA33532
p1007
sa(dp1008
g2
(lp1009
VPA451213
p1010
aVPA451209
p1011
asg7
(lp1012
(dp1013
g10
V*1
p1014
sg12
(lp1015
Vrs1128503
p1016
aVrs2032582
p1017
aVrs1045642
p1018
aVrs10276036
p1019
aVrs2235033
p1020
aVrs2235013
p1021
asg28
VPA165819165
p1022
sg30
VNC_000007.14:g.[=]
p1023
sg32
V1
p1024
sa(dp1025
g10
V*2 (PMID: 11503014)
p1026
sg12
(lp1027
Vrs1128503
p1028
aVrs2032582
p1029
aVrs1045642
p1030
asg28
VPA165819166
p1031
sg30
VNC_000007.14:g.[87138645G>A;87160618C>A;87550285G>A]
p1032
sg32
V1
p1033
sa(dp1034
g10
V*2 (PMID: 12893986)
p1035
sg12
(lp1036
Vrs1128503
p1037
aVrs2032582
p1038
aVrs1045642
p1039
aVrs10276036
p1040
aVrs2235033
p1041
aVrs2235013
p1042
asg28
VPA165819167
p1043
sg30
VNC_000007.14:g.[87138645G>A]
p1044
sg32
V1
p1045
sa(dp1046
g10
V*13 (PMID: 12893986)
p1047
sg12
(lp1048
Vrs1128503
p1049
aVrs2032582
p1050
aVrs1045642
p1051
aVrs10276036
p1052
aVrs2235033
p1053
aVrs2235013
p1054
asg28
VPA165819168
p1055
sg30
VNC_000007.14:g.[87138645G>A;87160618C>A;87178626C>T;87179143A>G;87180198C>T;87550285G>A]
p1056
sg32
V1
p1057
sasg270
VABCB1
p1058
sg28
VPA267
p1059
sa(dp1060
g2
(lp1061
VPA451578
p1062
aVPA154410481
p1063
aVPA164924493
p1064
asg7
(lp1065
(dp1066
g10
V*1A
p1067
sg12
(lp1068
VNG_000004.3:240096
p1069
aVNG_000004.3:240108
p1070
aVrs55817950
p1071
aVrs28383468
p1072
aVrs28383469
p1073
aVrs72552791
p1074
aVrs776746
p1075
aVrs56244447
p1076
aVNG_000004.3:253133
p1077
aVNG_000004.3:253289
p1078
aVrs56411402
p1079
aVrs10264272
p1080
aVNG_000004.3:257084
p1081
aVNG_000004.3:257344
p1082
aVrs28383479
p1083
aVNG_000004.3:267231
p1084
aVrs41303343
p1085
aVrs28365083
p1086
aVrs41279854
p1087
aVNG_000004.3:269963
p1088
aVrs28365085
p1089
aVrs15524
p1090
asg28
VPA165971499
p1091
sg30
VNC_000007.14:g.[=]
p1092
sg32
V1
p1093
sa(dp1094
g10
V*1B
p1095
sg12
(lp1096
VNG_000004.3:240096
p1097
asg28
VPA165971500
p1098
sg30
VNG_000004.3:g.[240096C>T]
p1099
sg32
V1
p1100
sa(dp1101
g10
V*1C
p1102
sg12
(lp1103
VNG_000004.3:240108
p1104
asg28
VPA165971501
p1105
sg30
VNG_000004.3:g.[240108G>A]
p1106
sg32
V1
p1107
sa(dp1108
g10
V*1D
p1109
sg12
(lp1110
Vrs15524
p1111
asg28
VPA165971502
p1112
sg30
VNC_000007.14:g.[99648291G>A]
p1113
sg32
V1
p1114
sa(dp1115
g10
V*1E
p1116
sg12
(lp1117
VNG_000004.3:257344
p1118
asg28
VPA165971503
p1119
sg30
VNG_000004.3:g.[257344C>A]
p1120
sg32
V1
p1121
sa(dp1122
g10
V*2
p1123
sg12
(lp1124
Vrs28365083
p1125
asg28
VPA165971504
p1126
sg30
VNC_000007.14:g.[99250236G>T]
p1127
sg32
V1
p1128
sa(dp1129
g10
V*3A
p1130
sg12
(lp1131
Vrs776746
p1132
aVrs15524
p1133
asg28
VPA165971505
p1134
sg30
VNC_000007.14:g.[99648291G>A;99672916T>C]
p1135
sg32
V1
p1136
sa(dp1137
g10
V*3B
p1138
sg12
(lp1139
Vrs28383468
p1140
aVrs28383469
p1141
aVrs776746
p1142
aVrs15524
p1143
asg28
VPA165971506
p1144
sg30
VNC_000007.14:g.[99273811_99273811insC;99273815G>A;99648291G>A;99672916T>C]
p1145
sg32
V1
p1146
sa(dp1147
g10
V*3C
p1148
sg12
(lp1149
Vrs776746
p1150
asg28
VPA165971507
p1151
sg30
VNC_000007.14:g.[99672916T>C]
p1152
sg32
V1
p1153
sa(dp1154
g10
V*3D
p1155
sg12
(lp1156
Vrs776746
p1157
aVrs56244447
p1158
asg28
VPA165971508
p1159
sg30
VNC_000007.14:g.[99270276A>C;99672916T>C]
p1160
sg32
V1
p1161
sa(dp1162
g10
V*3E
p1163
sg12
(lp1164
Vrs776746
p1165
aVNG_000004.3:267231
p1166
aVrs15524
p1167
asg28
VPA165971509
p1168
sg30
VNC_000007.14:g.[99648291G>A;99672916T>C],NG_000004.3:g.[267231T>C]
p1169
sg32
V1
p1170
sa(dp1171
g10
V*3F
p1172
sg12
(lp1173
Vrs776746
p1174
aVrs28365085
p1175
aVrs15524
p1176
asg28
VPA165971510
p1177
sg30
VNC_000007.14:g.[99245974A>G;99648291G>A;99672916T>C]
p1178
sg32
V1
p1179
sa(dp1180
g10
V*3G
p1181
sg12
(lp1182
Vrs776746
p1183
aVNG_000004.3:253133
p1184
aVrs15524
p1185
asg28
VPA165971511
p1186
sg30
VNC_000007.14:g.[99648291G>A;99672916T>C],NG_000004.3:g.[253133A>G]
p1187
sg32
V1
p1188
sa(dp1189
g10
V*3H
p1190
sg12
(lp1191
Vrs776746
p1192
aVNG_000004.3:253289
p1193
aVrs15524
p1194
asg28
VPA165971512
p1195
sg30
VNC_000007.14:g.[99648291G>A;99672916T>C],NG_000004.3:g.[253289A>G]
p1196
sg32
V1
p1197
sa(dp1198
g10
V*3I
p1199
sg12
(lp1200
Vrs776746
p1201
aVNG_000004.3:257084
p1202
aVrs15524
p1203
asg28
VPA165971513
p1204
sg30
VNC_000007.14:g.[99648291G>A;99672916T>C],NG_000004.3:g.[257084T>C]
p1205
sg32
V1
p1206
sa(dp1207
g10
V*3J
p1208
sg12
(lp1209
Vrs776746
p1210
aVNG_000004.3:269963
p1211
aVrs15524
p1212
asg28
VPA165971514
p1213
sg30
VNC_000007.14:g.[99648291G>A;99672916T>C],NG_000004.3:g.[269963T>C]
p1214
sg32
V1
p1215
sa(dp1216
g10
V*3K
p1217
sg12
(lp1218
Vrs776746
p1219
aVrs41279854
p1220
aVrs15524
p1221
asg28
VPA165971515
p1222
sg30
VNC_000007.14:g.[99247772A>G;99648291G>A;99672916T>C]
p1223
sg32
V1
p1224
sa(dp1225
g10
V*3L
p1226
sg12
(lp1227
Vrs72552791
p1228
aVrs776746
p1229
asg28
VPA165971516
p1230
sg30
VNC_000007.14:g.[99273745T>C;99672916T>C]
p1231
sg32
V1
p1232
sa(dp1233
g10
V*4
p1234
sg12
(lp1235
Vrs56411402
p1236
asg28
VPA165971517
p1237
sg30
VNC_000007.14:g.[99262860T>C]
p1238
sg32
V1
p1239
sa(dp1240
g10
V*5
p1241
sg12
(lp1242
VNG_000004.3:253133
p1243
asg28
VPA165971518
p1244
sg30
VNG_000004.3:g.[253133A>G]
p1245
sg32
V1
p1246
sa(dp1247
g10
V*6
p1248
sg12
(lp1249
Vrs10264272
p1250
asg28
VPA165971519
p1251
sg30
VNC_000007.14:g.[99262835C>T]
p1252
sg32
V1
p1253
sa(dp1254
g10
V*7
p1255
sg12
(lp1256
Vrs41303343
p1257
asg28
VPA165971520
p1258
sg30
VNC_000007.14:g.[99652770_99652770insA]
p1259
sg32
V1
p1260
sa(dp1261
g10
V*8
p1262
sg12
(lp1263
Vrs55817950
p1264
asg28
VPA165971521
p1265
sg30
VNC_000007.14:g.[99273821G>A]
p1266
sg32
V1
p1267
sa(dp1268
g10
V*9
p1269
sg12
(lp1270
Vrs776746
p1271
aVrs28383479
p1272
asg28
VPA165971522
p1273
sg30
VNC_000007.14:g.[99258139C>T;99672916T>Y]
p1274
sg32
V1
p1275
sa(dp1276
g10
V*1
p1277
sg12
(lp1278
Vrs55817950
p1279
aVrs776746
p1280
aVrs55965422
p1281
aVrs56411402
p1282
aVrs10264272
p1283
aVrs28383479
p1284
aVrs41303343
p1285
aVrs28365083
p1286
asg28
VPA166128213
p1287
sg30
VNC_000007.13:g.[=]
p1288
sg32
V1
p1289
sa(dp1290
g10
V*2
p1291
sg12
(lp1292
Vrs28365083
p1293
asg28
VPA166128218
p1294
sg30
VNC_000007.13:g.[99250236G>T]
p1295
sg32
V1
p1296
sa(dp1297
g10
V*3
p1298
sg12
(lp1299
Vrs776746
p1300
asg28
VPA166128219
p1301
sg30
VNC_000007.13:g.[99270539T>C]
p1302
sg32
V1
p1303
sa(dp1304
g10
V*4
p1305
sg12
(lp1306
Vrs56411402
p1307
asg28
VPA166128231
p1308
sg30
VNC_000007.13:g.[99262860T>C]
p1309
sg32
V1
p1310
sa(dp1311
g10
V*5
p1312
sg12
(lp1313
Vrs55965422
p1314
asg28
VPA166128232
p1315
sg30
VNC_000007.13:g.[99264573A>G]
p1316
sg32
V1
p1317
sa(dp1318
g10
V*6
p1319
sg12
(lp1320
Vrs10264272
p1321
asg28
VPA166128233
p1322
sg30
VNC_000007.13:g.[99262835C>T]
p1323
sg32
V1
p1324
sa(dp1325
g10
V*7
p1326
sg12
(lp1327
Vrs41303343
p1328
asg28
VPA166128234
p1329
sg30
VNC_000007.13:g.[99250393_99250393insA]
p1330
sg32
V1
p1331
sa(dp1332
g10
V*8
p1333
sg12
(lp1334
Vrs55817950
p1335
asg28
VPA166128235
p1336
sg30
VNC_000007.13:g.[99273821G>A]
p1337
sg32
V1
p1338
sa(dp1339
g10
V*9
p1340
sg12
(lp1341
Vrs776746
p1342
aVrs28383479
p1343
asg28
VPA166128236
p1344
sg30
VNC_000007.13:g.[99258139C>T;99270539T>Y]
p1345
sg32
V1
p1346
sasg270
VCYP3A5
p1347
sg28
VPA131
p1348
sa(dp1349
g2
(lp1350
VPA450688
p1351
aVPA450606
p1352
asg7
(lp1353
sg270
VCYP3A
p1354
sg28
VPA27114
p1355
sa(dp1356
g2
(lp1357
VPA449273
p1358
aVPA449977
p1359
aVPA450085
p1360
aVPA451866
p1361
aVPA164746311
p1362
aVPA451346
p1363
aVPA131301952
p1364
aVPA134687924
p1365
aVPA10233
p1366
aVPA448785
p1367
aVPA449599
p1368
aVPA10026
p1369
aVPA449015
p1370
aVPA451209
p1371
aVPA449441
p1372
aVPA164924493
p1373
aVPA449088
p1374
aVPA162372840
p1375
aVPA165374673
p1376
aVPA451735
p1377
aVPA451260
p1378
aVPA450226
p1379
aVPA449283
p1380
aVPA448500
p1381
aVPA451365
p1382
aVPA451213
p1383
aVPA10202
p1384
aVPA10804
p1385
aVPA450606
p1386
aVPA450965
p1387
asg7
(lp1388
(dp1389
g10
V*1
p1390
sg12
(lp1391
Vrs2740574
p1392
aVrs4986910
p1393
aVrs4646438
p1394
aVrs4986908
p1395
aVrs12721629
p1396
aVrs4986909
p1397
aVrs12721634
p1398
aVrs4986907
p1399
aVrs12721627
p1400
aVrs4987161
p1401
aVrs28371759
p1402
aVrs4986913
p1403
aVCYP3A4 -444T>G
p1404
aVCYP3A4 -62C>A
p1405
aVCYP3A4 -369T>A
p1406
aVCYP3A4 -747C>G
p1407
aVrs2242480
p1408
aVCYP3A4 26206C>A
p1409
aVCYP3A4 6077A>G
p1410
aVCYP3A4 -655A>G
p1411
aVCYP3A4 -630A>G
p1412
aVCYP3A4 -156C>A
p1413
aVCYP3A4 14200T>G
p1414
aVCYP3A4 15727G>A
p1415
aVCYP3A4 15809T>C
p1416
aVCYP3A4 16775A>G
p1417
aVCYP3A4 17815_17816delAT
p1418
aVCYP3A4 26013T>C
p1419
aVrs55785340
p1420
aVrs55951658
p1421
aVrs55901263
p1422
aVrs56324128
p1423
aVrs72552799
p1424
aVrs72552798
p1425
aVrs67784355
p1426
aVCYP3A4 -845-844insATGGAGTGA
p1427
aVrs67666821
p1428
aVCYP3A4 20148A>G
p1429
aVrs35599367
p1430
aVrs57409622
p1431
aVrs2687116
p1432
aVrs3735451
p1433
aVrs113667357
p1434
asg28
VPA165819201
p1435
sg30
VNC_000007.14:g.[=]
p1436
sg32
V1
p1437
sa(dp1438
g10
V*1A
p1439
sg12
(lp1440
sg28
VPA165819202
p1441
sg30
VNC_000007.14:g.[=]
p1442
sg32
V1
p1443
sa(dp1444
g10
V*1B
p1445
sg12
(lp1446
Vrs2740574
p1447
asg28
VPA165819203
p1448
sg30
VNC_000007.14:g.[99382096T>C]
p1449
sg32
V1
p1450
sa(dp1451
g10
V*1C
p1452
sg12
(lp1453
VCYP3A4 -444T>G
p1454
asg28
VPA165819204
p1455
sg30
V-444T>G
p1456
sg32
V1
p1457
sa(dp1458
g10
V*1D
p1459
sg12
(lp1460
VCYP3A4 -62C>A
p1461
asg28
VPA165819205
p1462
sg30
V-62C>A
p1463
sg32
V1
p1464
sa(dp1465
g10
V*1E
p1466
sg12
(lp1467
VCYP3A4 -369T>A
p1468
asg28
VPA165819206
p1469
sg30
V-369T>A
p1470
sg32
V1
p1471
sa(dp1472
g10
V*1F
p1473
sg12
(lp1474
VCYP3A4 -747C>G
p1475
asg28
VPA165819207
p1476
sg30
V-747C>G
p1477
sg32
V1
p1478
sa(dp1479
g10
V*1G
p1480
sg12
(lp1481
Vrs2242480
p1482
asg28
VPA165819208
p1483
sg30
VNC_000007.14:g.[99361466C>T]
p1484
sg32
V1
p1485
sa(dp1486
g10
V*1H
p1487
sg12
(lp1488
Vrs2242480
p1489
aVCYP3A4 26206C>A
p1490
asg28
VPA165819209
p1491
sg30
V26206C>A,NC_000007.14:g.[99361466C>T]
p1492
sg32
V1
p1493
sa(dp1494
g10
V*1J
p1495
sg12
(lp1496
VCYP3A4 6077A>G
p1497
asg28
VPA165819210
p1498
sg30
V6077A>G
p1499
sg32
V1
p1500
sa(dp1501
g10
V*1K
p1502
sg12
(lp1503
VCYP3A4 -655A>G
p1504
asg28
VPA165819211
p1505
sg30
V-655A>G
p1506
sg32
V1
p1507
sa(dp1508
g10
V*1L
p1509
sg12
(lp1510
VCYP3A4 -630A>G
p1511
asg28
VPA165819212
p1512
sg30
V-630A>G
p1513
sg32
V1
p1514
sa(dp1515
g10
V*1M
p1516
sg12
(lp1517
VCYP3A4 -156C>A
p1518
asg28
VPA165819213
p1519
sg30
V-156C>A
p1520
sg32
V1
p1521
sa(dp1522
g10
V*1N
p1523
sg12
(lp1524
VCYP3A4 14200T>G
p1525
asg28
VPA165819214
p1526
sg30
V14200T>G
p1527
sg32
V1
p1528
sa(dp1529
g10
V*1P
p1530
sg12
(lp1531
VCYP3A4 15727G>A
p1532
asg28
VPA165819215
p1533
sg30
V15727G>A
p1534
sg32
V1
p1535
sa(dp1536
g10
V*1Q
p1537
sg12
(lp1538
VCYP3A4 15809T>C
p1539
asg28
VPA165819216
p1540
sg30
V15809T>C
p1541
sg32
V1
p1542
sa(dp1543
g10
V*1R
p1544
sg12
(lp1545
VCYP3A4 16775A>G
p1546
asg28
VPA165819217
p1547
sg30
V16775A>G
p1548
sg32
V1
p1549
sa(dp1550
g10
V*1S
p1551
sg12
(lp1552
VCYP3A4 17815_17816delAT
p1553
asg28
VPA165819218
p1554
sg30
V17815_17816delAT
p1555
sg32
V1
p1556
sa(dp1557
g10
V*1T
p1558
sg12
(lp1559
VCYP3A4 26013T>C
p1560
asg28
VPA165819219
p1561
sg30
V26013T>C
p1562
sg32
V1
p1563
sa(dp1564
g10
V*2
p1565
sg12
(lp1566
Vrs55785340
p1567
asg28
VPA165819220
p1568
sg30
VNC_000007.14:g.[99365983A>G]
p1569
sg32
V1
p1570
sa(dp1571
g10
V*3
p1572
sg12
(lp1573
Vrs4986910
p1574
asg28
VPA165819221
p1575
sg30
VNC_000007.14:g.[99358524A>G]
p1576
sg32
V1
p1577
sa(dp1578
g10
V*4
p1579
sg12
(lp1580
Vrs55951658
p1581
asg28
VPA165819222
p1582
sg30
VNC_000007.14:g.[99367825T>C]
p1583
sg32
V1
p1584
sa(dp1585
g10
V*5
p1586
sg12
(lp1587
Vrs55901263
p1588
asg28
VPA165819223
p1589
sg30
VNC_000007.14:g.[99365994G>C]
p1590
sg32
V1
p1591
sa(dp1592
g10
V*6
p1593
sg12
(lp1594
Vrs4646438
p1595
asg28
VPA165819224
p1596
sg30
VNC_000007.14:g.[99364034del>T]
p1597
sg32
V1
p1598
sa(dp1599
g10
V*7
p1600
sg12
(lp1601
Vrs56324128
p1602
asg28
VPA165819225
p1603
sg30
VNC_000007.14:g.[99375702C>T]
p1604
sg32
V1
p1605
sa(dp1606
g10
V*8
p1607
sg12
(lp1608
Vrs72552799
p1609
asg28
VPA165819226
p1610
sg30
VNC_000007.14:g.[99367788C>T]
p1611
sg32
V1
p1612
sa(dp1613
g10
V*9
p1614
sg12
(lp1615
Vrs72552798
p1616
asg28
VPA165819227
p1617
sg30
VNC_000007.14:g.[99367404C>T]
p1618
sg32
V1
p1619
sa(dp1620
g10
V*10
p1621
sg12
(lp1622
Vrs4986908
p1623
asg28
VPA165819228
p1624
sg30
VNC_000007.14:g.[99367392C>G]
p1625
sg32
V1
p1626
sa(dp1627
g10
V*11
p1628
sg12
(lp1629
Vrs67784355
p1630
asg28
VPA165819229
p1631
sg30
VNC_000007.14:g.[99359829G>A]
p1632
sg32
V1
p1633
sa(dp1634
g10
V*12
p1635
sg12
(lp1636
Vrs12721629
p1637
asg28
VPA165819230
p1638
sg30
VNC_000007.14:g.[99359800G>A]
p1639
sg32
V1
p1640
sa(dp1641
g10
V*13
p1642
sg12
(lp1643
Vrs4986909
p1644
asg28
VPA165819231
p1645
sg30
VNC_000007.14:g.[99359670G>A]
p1646
sg32
V1
p1647
sa(dp1648
g10
V*14
p1649
sg12
(lp1650
Vrs12721634
p1651
asg28
VPA165819232
p1652
sg30
VNC_000007.14:g.[99381661A>G]
p1653
sg32
V1
p1654
sa(dp1655
g10
V*15
p1656
sg12
(lp1657
Vrs4986907
p1658
asg28
VPA165819233
p1659
sg30
VNC_000007.14:g.[99367427C>T]
p1660
sg32
V1
p1661
sa(dp1662
g10
V*15A
p1663
sg12
(lp1664
Vrs4986907
p1665
asg28
VPA165819234
p1666
sg30
VNC_000007.14:g.[99367427C>T]
p1667
sg32
V1
p1668
sa(dp1669
g10
V*15B
p1670
sg12
(lp1671
Vrs2740574
p1672
aVrs4986907
p1673
aVCYP3A4 -845-844insATGGAGTGA
p1674
asg28
VPA165819235
p1675
sg30
V-845-844insATGGAGTGA,NC_000007.14:g.[99367427C>T;99382096T>C]
p1676
sg32
V1
p1677
sa(dp1678
g10
V*16
p1679
sg12
(lp1680
Vrs12721627
p1681
asg28
VPA165819236
p1682
sg30
VNC_000007.14:g.[99366093G>C]
p1683
sg32
V1
p1684
sa(dp1685
g10
V*16A
p1686
sg12
(lp1687
Vrs12721627
p1688
asg28
VPA165819237
p1689
sg30
VNC_000007.14:g.[99366093G>C]
p1690
sg32
V1
p1691
sa(dp1692
g10
V*16B
p1693
sg12
(lp1694
Vrs12721627
p1695
aVrs2242480
p1696
asg28
VPA165819238
p1697
sg30
VNC_000007.14:g.[99361466C>T;99366093G>C]
p1698
sg32
V1
p1699
sa(dp1700
g10
V*17
p1701
sg12
(lp1702
Vrs4987161
p1703
asg28
VPA165819239
p1704
sg30
VNC_000007.14:g.[99366081A>G]
p1705
sg32
V1
p1706
sa(dp1707
g10
V*18
p1708
sg12
(lp1709
Vrs28371759
p1710
asg28
VPA165819240
p1711
sg30
VNC_000007.14:g.[99361626A>G]
p1712
sg32
V1
p1713
sa(dp1714
g10
V*18A
p1715
sg12
(lp1716
Vrs28371759
p1717
asg28
VPA165819241
p1718
sg30
VNC_000007.14:g.[99361626A>G]
p1719
sg32
V1
p1720
sa(dp1721
g10
V*18B
p1722
sg12
(lp1723
Vrs28371759
p1724
aVrs2242480
p1725
asg28
VPA165819242
p1726
sg30
VNC_000007.14:g.[99361466C>T;99361626A>G]
p1727
sg32
V1
p1728
sa(dp1729
g10
V*19
p1730
sg12
(lp1731
Vrs4986913
p1732
aVrs2242480
p1733
asg28
VPA165819243
p1734
sg30
VNC_000007.14:g.[99358459G>A;99361466C>T]
p1735
sg32
V1
p1736
sa(dp1737
g10
V*20
p1738
sg12
(lp1739
Vrs67666821
p1740
asg28
VPA165819244
p1741
sg30
VNC_000007.14:g.[99355806_99355806insT]
p1742
sg32
V1
p1743
sa(dp1744
g10
V*22
p1745
sg12
(lp1746
Vrs35599367
p1747
asg28
VPA166048680
p1748
sg30
VNC_000007.14:g.[99366316G>A]
p1749
sg32
V1
p1750
sa(dp1751
g10
V*21
p1752
sg12
(lp1753
VCYP3A4 20148A>G
p1754
asg28
VPA166115835
p1755
sg30
V20148A>G
p1756
sg32
V1
p1757
sa(dp1758
g10
V*23
p1759
sg12
(lp1760
Vrs2740574
p1761
aVrs2242480
p1762
aVrs57409622
p1763
aVrs2687116
p1764
aVrs3735451
p1765
asg28
VPA166115836
p1766
sg30
VNC_000007.14:g.[99355975T>C;99361466C>T;99365943A>C;99367428G>A;99382096T>C]
p1767
sg32
V1
p1768
sa(dp1769
g10
V*24
p1770
sg12
(lp1771
Vrs2740574
p1772
aVrs2242480
p1773
aVrs2687116
p1774
aVrs3735451
p1775
aVrs113667357
p1776
asg28
VPA166115837
p1777
sg30
VNC_000007.14:g.[99355975T>C;99361466C>T;99365943A>C;99366047T>A;99382096T>C]
p1778
sg32
V1
p1779
sasg270
VCYP3A4
p1780
sg28
VPA130
p1781
sa(dp1782
g2
(lp1783
VPA10233
p1784
aVPA449969
p1785
aVPA452615
p1786
aVPA449409
p1787
aVPA449015
p1788
aVPA450704
p1789
aVPA450774
p1790
aVPA450180
p1791
aVPA448809
p1792
aVPA449053
p1793
aVPA451216
p1794
aVPA449283
p1795
aVPA450732
p1796
aVPA448385
p1797
aVPA165374673
p1798
aVPA451866
p1799
aVPA166153491
p1800
aVPA154410481
p1801
aVPA450947
p1802
aVPA10888
p1803
aVPA450606
p1804
aVPA451791
p1805
aVPA10075
p1806
aVPA449048
p1807
aVPA10074
p1808
aVPA451145
p1809
aVPA164924493
p1810
aVPA449690
p1811
aVPA451333
p1812
aVPA450530
p1813
asg7
(lp1814
(dp1815
g10
V*35
p1816
sg12
(lp1817
Vrs17885098
p1818
aVrs12769205
p1819
aVrs3758581
p1820
asg28
VPA166128094
p1821
sg30
VNC_000010.10:g.[96522561C>T;96535124A>G;96602623A>G]
p1822
sg32
V1
p1823
sa(dp1824
g10
V*2C
p1825
sg12
(lp1826
Vrs4986894
p1827
aVrs17885098
p1828
aVrs7916649
p1829
aVrs12769205
p1830
aVrs181297724
p1831
aVrs4244285
p1832
aVrs12571421
p1833
aVrs4417205
p1834
aVrs28399513
p1835
aVrs3758580
p1836
aVrs3758581
p1837
asg28
VPA165945747
p1838
sg30
VNC_000010.10:g.[96522365T>C;96522561C>T;96534584G>A;96535124A>G;96535296G>C;96541616G>A;96541982A>G;96580202C>G;96602398T>A;96602622C>T;96602623A>G]
p1839
sg32
V1
p1840
sa(dp1841
g10
V*3A
p1842
sg12
(lp1843
Vrs4986893
p1844
aVrs3758581
p1845
aVrs17886522
p1846
asg28
VPA165945748
p1847
sg30
VNC_000010.10:g.[96540410G>A;96602623A>G;96609775A>C]
p1848
sg32
V1
p1849
sa(dp1850
g10
V*3B
p1851
sg12
(lp1852
Vrs11568732
p1853
aVrs17884832
p1854
aVrs7916649
p1855
aVrs17878649
p1856
aVrs17879992
p1857
aVrs4986893
p1858
aVrs7088784
p1859
aVrs3758581
p1860
aVrs144036596
p1861
aVrs17886522
p1862
asg28
VPA165945749
p1863
sg30
VNC_000010.10:g.[96521574T>G;96534475T>G;96534584G>A;96534768G>A;96535628T>C;96540410G>A;96541373A>G;96602623A>G;96602710G>A;96609775A>C]
p1864
sg32
V1
p1865
sa(dp1866
g10
V*4A
p1867
sg12
(lp1868
Vrs28399504
p1869
aVrs17885098
p1870
aVrs3758581
p1871
asg28
VPA165945750
p1872
sg30
VNC_000010.10:g.[96522463A>G;96522561C>T;96602623A>G]
p1873
sg32
V1
p1874
sa(dp1875
g10
V*4B
p1876
sg12
(lp1877
Vrs11188072
p1878
aVrs12248560
p1879
aVrs28399504
p1880
aVrs17885098
p1881
aVrs3758581
p1882
asg28
VPA165945751
p1883
sg30
VNC_000010.10:g.[96519061C>T;96521657C>T;96522463A>G;96522561C>T;96602623A>G]
p1884
sg32
V1
p1885
sa(dp1886
g10
V*1A
p1887
sg12
(lp1888
Vrs11188072
p1889
aVrs113164681
p1890
aVrs111490789
p1891
aVrs17878739
p1892
aVrs7902257
p1893
aVrs11568732
p1894
aVrs12248560
p1895
aVrs4986894
p1896
aVrs367543001
p1897
aVrs28399504
p1898
aVrs367543002
p1899
aVrs367543003
p1900
aVrs55752064
p1901
aVrs17882687
p1902
aVchr10:96522545 (hg19)
p1903
aVrs17885098
p1904
aVchr10:96522613 (hg19)
p1905
aVrs17884832
p1906
aVrs7916649
p1907
aVrs17878649
p1908
aVrs145328984
p1909
aVchr10:96534878 (hg19)
p1910
aVrs118203756
p1911
aVrs17878459
p1912
aVchr10:96534942 (hg19)
p1913
aVrs12769205
p1914
aVrs41291556
p1915
aVrs72552267
p1916
aVrs763625282
p1917
aVrs17884712
p1918
aVrs58973490
p1919
aVrs181297724
p1920
aVrs17879992
p1921
aVrs140278421
p1922
aVrs370803989
p1923
aVrs4986893
p1924
aVrs7088784
p1925
aVrs6413438
p1926
aVrs4244285
p1927
aVchr10:96541701 (hg19)
p1928
aVrs778258371
p1929
aVrs72558186
p1930
aVrs12571421
p1931
aVrs4417205
p1932
aVrs28399513
p1933
aVrs138142612
p1934
aVrs3758580
p1935
aVrs3758581
p1936
aVrs118203757
p1937
aVrs770829708
p1938
aVrs144036596
p1939
aVrs550527959
p1940
aVrs113934938
p1941
aVrs4917623
p1942
aVchr10:96609710 (hg19)
p1943
aVrs377184510
p1944
aVchr10:96609737 (hg19)
p1945
aVrs17879685
p1946
aVrs17886522
p1947
aVchr10:96609785 (hg19)
p1948
aVrs56337013
p1949
aVrs192154563
p1950
aVrs118203759
p1951
aVrs55640102
p1952
asg28
VPA165816510
p1953
sg30
VNC_000010.10:g.[=]
p1954
sg32
V1
p1955
sa(dp1956
g10
V*1B
p1957
sg12
(lp1958
Vrs17885098
p1959
aVrs3758581
p1960
asg28
VPA165816511
p1961
sg30
VNC_000010.10:g.[96522561C>T;96602623A>G]
p1962
sg32
V1
p1963
sa(dp1964
g10
V*1C
p1965
sg12
(lp1966
Vrs3758581
p1967
asg28
VPA165816512
p1968
sg30
VNC_000010.10:g.[96602623A>G]
p1969
sg32
V1
p1970
sa(dp1971
g10
V*2A
p1972
sg12
(lp1973
Vrs17885098
p1974
aVrs4244285
p1975
aVrs3758580
p1976
aVrs3758581
p1977
asg28
VPA165816513
p1978
sg30
VNC_000010.10:g.[96522561C>T;96541616G>A;96602622C>T;96602623A>G]
p1979
sg32
V1
p1980
sa(dp1981
g10
V*2B
p1982
sg12
(lp1983
Vrs17885098
p1984
aVrs17878459
p1985
aVrs4244285
p1986
aVrs3758580
p1987
aVrs3758581
p1988
asg28
VPA165816514
p1989
sg30
VNC_000010.10:g.[96522561C>T;96534922G>C;96541616G>A;96602622C>T;96602623A>G]
p1990
sg32
V1
p1991
sa(dp1992
g10
V*2D
p1993
sg12
(lp1994
Vrs4986894
p1995
aVrs17885098
p1996
aVrs12769205
p1997
aVrs4244285
p1998
aVrs4417205
p1999
aVrs3758580
p2000
aVrs3758581
p2001
aVchr10:96609737 (hg19)
p2002
asg28
VPA165816516
p2003
sg30
VNC_000010.10:g.[96522365T>C;96522561C>T;96535124A>G;96541616G>A;96580202C>G;96602622C>T;96602623A>G;96609737G>A]
p2004
sg32
V1
p2005
sa(dp2006
g10
V*5A
p2007
sg12
(lp2008
Vrs56337013
p2009
asg28
VPA165816520
p2010
sg30
VNC_000010.10:g.[96612495C>T]
p2011
sg32
V1
p2012
sa(dp2013
g10
V*5B
p2014
sg12
(lp2015
Vrs17885098
p2016
aVrs3758581
p2017
aVrs56337013
p2018
asg28
VPA165816521
p2019
sg30
VNC_000010.10:g.[96522561C>T;96602623A>G;96612495C>T]
p2020
sg32
V1
p2021
sa(dp2022
g10
V*6
p2023
sg12
(lp2024
Vrs17885098
p2025
aVrs72552267
p2026
aVrs3758581
p2027
asg28
VPA165816522
p2028
sg30
VNC_000010.10:g.[96522561C>T;96535210G>A;96602623A>G]
p2029
sg32
V1
p2030
sa(dp2031
g10
V*7
p2032
sg12
(lp2033
Vrs72558186
p2034
asg28
VPA165816523
p2035
sg30
VNC_000010.10:g.[96541756T>A]
p2036
sg32
V1
p2037
sa(dp2038
g10
V*8
p2039
sg12
(lp2040
Vrs41291556
p2041
asg28
VPA165816524
p2042
sg30
VNC_000010.10:g.[96535173T>C]
p2043
sg32
V1
p2044
sa(dp2045
g10
V*9
p2046
sg12
(lp2047
Vrs17885098
p2048
aVrs17884712
p2049
aVrs3758581
p2050
asg28
VPA165816525
p2051
sg30
VNC_000010.10:g.[96522561C>T;96535246G>A;96602623A>G]
p2052
sg32
V1
p2053
sa(dp2054
g10
V*10
p2055
sg12
(lp2056
Vrs17885098
p2057
aVrs6413438
p2058
aVrs3758581
p2059
asg28
VPA165816526
p2060
sg30
VNC_000010.10:g.[96522561C>T;96541615C>T;96602623A>G]
p2061
sg32
V1
p2062
sa(dp2063
g10
V*11
p2064
sg12
(lp2065
Vrs17885098
p2066
aVrs58973490
p2067
aVrs3758581
p2068
asg28
VPA165816527
p2069
sg30
VNC_000010.10:g.[96522561C>T;96535264G>A;96602623A>G]
p2070
sg32
V1
p2071
sa(dp2072
g10
V*12
p2073
sg12
(lp2074
Vrs17885098
p2075
aVrs3758581
p2076
aVrs55640102
p2077
asg28
VPA165816528
p2078
sg30
VNC_000010.10:g.[96522561C>T;96602623A>G;96612671A>C]
p2079
sg32
V1
p2080
sa(dp2081
g10
V*13
p2082
sg12
(lp2083
Vrs3758581
p2084
aVrs17879685
p2085
asg28
VPA165816529
p2086
sg30
VNC_000010.10:g.[96602623A>G;96609752C>T]
p2087
sg32
V1
p2088
sa(dp2089
g10
V*14
p2090
sg12
(lp2091
Vrs55752064
p2092
aVrs17885098
p2093
aVrs3758581
p2094
asg28
VPA165816530
p2095
sg30
VNC_000010.10:g.[96522512T>C;96522561C>T;96602623A>G]
p2096
sg32
V1
p2097
sa(dp2098
g10
V*15
p2099
sg12
(lp2100
Vrs17882687
p2101
aVrs3758581
p2102
asg28
VPA165816531
p2103
sg30
VNC_000010.10:g.[96522517A>C;96602623A>G]
p2104
sg32
V1
p2105
sa(dp2106
g10
V*16
p2107
sg12
(lp2108
Vrs192154563
p2109
asg28
VPA165816532
p2110
sg30
VNC_000010.10:g.[96612522C>T]
p2111
sg32
V1
p2112
sa(dp2113
g10
V*17
p2114
sg12
(lp2115
Vrs11188072
p2116
aVrs12248560
p2117
aVrs17885098
p2118
aVrs3758581
p2119
asg28
VPA165816533
p2120
sg30
VNC_000010.10:g.[96519061C>T;96521657C>T;96522561C>T;96602623A>G]
p2121
sg32
V1
p2122
sa(dp2123
g10
V*18
p2124
sg12
(lp2125
Vrs17885098
p2126
aVrs138142612
p2127
aVrs3758581
p2128
aVrs4917623
p2129
asg28
VPA165816534
p2130
sg30
VNC_000010.10:g.[96522561C>T;96602618G>A;96602623A>G;96609568T>C]
p2131
sg32
V1
p2132
sa(dp2133
g10
V*19
p2134
sg12
(lp2135
Vrs17885098
p2136
aVchr10:96522613 (hg19)
p2137
aVrs3758581
p2138
aVrs4917623
p2139
asg28
VPA165816535
p2140
sg30
VNC_000010.10:g.[96522561C>T;96522613A>G;96602623A>G;96609568T>C]
p2141
sg32
V1
p2142
sa(dp2143
g10
V*22
p2144
sg12
(lp2145
Vrs140278421
p2146
aVrs3758581
p2147
asg28
VPA165816536
p2148
sg30
VNC_000010.10:g.[96540331G>C;96602623A>G]
p2149
sg32
V1
p2150
sa(dp2151
g10
V*23
p2152
sg12
(lp2153
Vrs17885098
p2154
aVrs118203756
p2155
aVrs3758581
p2156
asg28
VPA165816537
p2157
sg30
VNC_000010.10:g.[96522561C>T;96534917G>C;96602623A>G]
p2158
sg32
V1
p2159
sa(dp2160
g10
V*24
p2161
sg12
(lp2162
Vrs17885098
p2163
aVrs3758581
p2164
aVrs118203757
p2165
aVrs377184510
p2166
asg28
VPA165816538
p2167
sg30
VNC_000010.10:g.[96522561C>T;96602623A>G;96602636G>A;96609721A>G]
p2168
sg32
V1
p2169
sa(dp2170
g10
V*25
p2171
sg12
(lp2172
Vrs17885098
p2173
aVrs3758581
p2174
aVrs118203759
p2175
asg28
VPA165816539
p2176
sg30
VNC_000010.10:g.[96522561C>T;96602623A>G;96612542C>G]
p2177
sg32
V1
p2178
sa(dp2179
g10
V*26
p2180
sg12
(lp2181
Vrs17885098
p2182
aVchr10:96541701 (hg19)
p2183
aVrs3758581
p2184
asg28
VPA165816540
p2185
sg30
VNC_000010.10:g.[96522561C>T;96541701G>A;96602623A>G]
p2186
sg32
V1
p2187
sa(dp2188
g10
V*27
p2189
sg12
(lp2190
Vrs7902257
p2191
aVrs3758581
p2192
asg28
VPA165816541
p2193
sg30
VNC_000010.10:g.[96521422G>A;96602623A>G]
p2194
sg32
V1
p2195
sa(dp2196
g10
V*1
p2197
sg12
(lp2198
Vrs11188072
p2199
aVrs113164681
p2200
aVrs111490789
p2201
aVrs17878739
p2202
aVrs7902257
p2203
aVrs11568732
p2204
aVrs12248560
p2205
aVrs4986894
p2206
aVrs367543001
p2207
aVrs28399504
p2208
aVrs367543002
p2209
aVrs367543003
p2210
aVrs55752064
p2211
aVrs17882687
p2212
aVchr10:96522545 (hg19)
p2213
aVrs17885098
p2214
aVchr10:96522613 (hg19)
p2215
aVrs17884832
p2216
aVrs7916649
p2217
aVrs17878649
p2218
aVrs145328984
p2219
aVchr10:96534878 (hg19)
p2220
aVrs118203756
p2221
aVrs17878459
p2222
aVchr10:96534942 (hg19)
p2223
aVrs12769205
p2224
aVrs41291556
p2225
aVrs72552267
p2226
aVrs763625282
p2227
aVrs17884712
p2228
aVrs58973490
p2229
aVrs181297724
p2230
aVrs17879992
p2231
aVrs140278421
p2232
aVrs370803989
p2233
aVrs4986893
p2234
aVrs7088784
p2235
aVrs6413438
p2236
aVrs4244285
p2237
aVchr10:96541701 (hg19)
p2238
aVrs778258371
p2239
aVrs72558186
p2240
aVrs12571421
p2241
aVrs4417205
p2242
aVrs28399513
p2243
aVrs138142612
p2244
aVrs3758580
p2245
aVrs3758581
p2246
aVrs118203757
p2247
aVrs770829708
p2248
aVrs144036596
p2249
aVrs550527959
p2250
aVrs113934938
p2251
aVrs4917623
p2252
aVchr10:96609710 (hg19)
p2253
aVrs377184510
p2254
aVchr10:96609737 (hg19)
p2255
aVrs17879685
p2256
aVrs17886522
p2257
aVchr10:96609785 (hg19)
p2258
aVrs56337013
p2259
aVrs192154563
p2260
aVrs118203759
p2261
aVrs55640102
p2262
asg28
VPA165980634
p2263
sg30
VNC_000010.10:g.[=]
p2264
sg32
V1
p2265
sa(dp2266
g10
V*2
p2267
sg12
(lp2268
Vrs12769205
p2269
aVrs4244285
p2270
asg28
VPA165980635
p2271
sg30
VNC_000010.10:g.[96535124A>R;96541616G>A]
p2272
sg32
V1
p2273
sa(dp2274
g10
V*3
p2275
sg12
(lp2276
Vrs4986893
p2277
asg28
VPA165980636
p2278
sg30
VNC_000010.10:g.[96540410G>A]
p2279
sg32
V1
p2280
sa(dp2281
g10
V*4
p2282
sg12
(lp2283
Vrs28399504
p2284
asg28
VPA165980637
p2285
sg30
VNC_000010.10:g.[96522463A>G]
p2286
sg32
V1
p2287
sa(dp2288
g10
V*5
p2289
sg12
(lp2290
Vrs56337013
p2291
asg28
VPA165980638
p2292
sg30
VNC_000010.10:g.[96612495C>T]
p2293
sg32
V1
p2294
sa(dp2295
g10
V*31
p2296
sg12
(lp2297
Vrs17885098
p2298
aVchr10:96534878 (hg19)
p2299
aVrs3758581
p2300
asg28
VPA166123294
p2301
sg30
VNC_000010.10:g.[96522561C>T;96534878C>T;96602623A>G]
p2302
sg32
V1
p2303
sa(dp2304
g10
V*2E
p2305
sg12
(lp2306
Vrs17885098
p2307
aVrs4244285
p2308
aVrs778258371
p2309
aVrs3758580
p2310
aVrs3758581
p2311
asg28
VPA166123286
p2312
sg30
VNC_000010.10:g.[96522561C>T;96541616G>A;96541748G>A;96602622C>T;96602623A>G]
p2313
sg32
V1
p2314
sa(dp2315
g10
V*2F
p2316
sg12
(lp2317
Vrs17885098
p2318
aVrs4244285
p2319
aVrs3758580
p2320
aVrs3758581
p2321
aVrs770829708
p2322
asg28
VPA166123287
p2323
sg30
VNC_000010.10:g.[96522561C>T;96541616G>A;96602622C>T;96602623A>G;96602653G>A]
p2324
sg32
V1
p2325
sa(dp2326
g10
V*2G
p2327
sg12
(lp2328
Vrs17885098
p2329
aVrs4244285
p2330
aVrs3758580
p2331
aVrs3758581
p2332
aVrs550527959
p2333
asg28
VPA166123288
p2334
sg30
VNC_000010.10:g.[96522561C>T;96541616G>A;96602622C>T;96602623A>G;96602711A>T]
p2335
sg32
V1
p2336
sa(dp2337
g10
V*2H
p2338
sg12
(lp2339
Vrs17885098
p2340
aVrs4244285
p2341
aVrs3758580
p2342
aVrs3758581
p2343
aVchr10:96609710 (hg19)
p2344
asg28
VPA166123289
p2345
sg30
VNC_000010.10:g.[96522561C>T;96541616G>A;96602622C>T;96602623A>G;96609710C>G]
p2346
sg32
V1
p2347
sa(dp2348
g10
V*2J
p2349
sg12
(lp2350
Vrs17885098
p2351
aVrs4244285
p2352
aVrs3758580
p2353
aVrs3758581
p2354
aVchr10:96609785 (hg19)
p2355
asg28
VPA166123290
p2356
sg30
VNC_000010.10:g.[96522561C>T;96541616G>A;96602622C>T;96602623A>G;96609785A>C]
p2357
sg32
V1
p2358
sa(dp2359
g10
V*3C
p2360
sg12
(lp2361
Vrs763625282
p2362
aVrs4986893
p2363
aVrs3758581
p2364
aVrs17886522
p2365
asg28
VPA166123291
p2366
sg30
VNC_000010.10:g.[96535222T>A;96540410G>A;96602623A>G;96609775A>C]
p2367
sg32
V1
p2368
sa(dp2369
g10
V*29
p2370
sg12
(lp2371
Vchr10:96522545 (hg19)
p2372
aVrs17885098
p2373
aVrs3758581
p2374
asg28
VPA166123292
p2375
sg30
VNC_000010.10:g.[96522545A>T;96522561C>T;96602623A>G]
p2376
sg32
V1
p2377
sa(dp2378
g10
V*30
p2379
sg12
(lp2380
Vrs145328984
p2381
asg28
VPA166123293
p2382
sg30
VNC_000010.10:g.[96534863C>T]
p2383
sg32
V1
p2384
sa(dp2385
g10
V*28
p2386
sg12
(lp2387
Vrs113164681
p2388
aVrs111490789
p2389
aVrs17878739
p2390
aVrs17882687
p2391
aVrs3758581
p2392
aVrs113934938
p2393
asg28
VPA166115675
p2394
sg30
VNC_000010.10:g.[96520433C>T;96520443C>A;96521024T>C;96522517A>C;96602623A>G;96602752G>A]
p2395
sg32
V1
p2396
sa(dp2397
g10
V*34
p2398
sg12
(lp2399
Vrs367543001
p2400
aVrs367543002
p2401
aVrs367543003
p2402
asg28
VPA166115676
p2403
sg30
VNC_000010.10:g.[96522450G>A;96522469C>T;96522472T>C]
p2404
sg32
V1
p2405
sa(dp2406
g10
V*32
p2407
sg12
(lp2408
Vrs17885098
p2409
aVchr10:96534942 (hg19)
p2410
aVrs3758581
p2411
asg28
VPA166123295
p2412
sg30
VNC_000010.10:g.[96522561C>T;96534942A>G;96602623A>G]
p2413
sg32
V1
p2414
sa(dp2415
g10
V*33
p2416
sg12
(lp2417
Vrs17885098
p2418
aVrs370803989
p2419
aVrs3758581
p2420
asg28
VPA166123296
p2421
sg30
VNC_000010.10:g.[96522561C>T;96540336G>A;96602623A>G]
p2422
sg32
V1
p2423
sa(dp2424
g10
V*1
p2425
sg12
(lp2426
Vrs113164681
p2427
aVrs111490789
p2428
aVrs17878739
p2429
aVrs7902257
p2430
aVrs12248560
p2431
aVrs367543001
p2432
aVrs28399504
p2433
aVrs367543002
p2434
aVrs367543003
p2435
aVrs55752064
p2436
aVrs17882687
p2437
asg28
VPA166128324
p2438
sg30
VNC_000010.10:g.[=]
p2439
sg32
V1
p2440
sa(dp2441
g10
V*2
p2442
sg12
(lp2443
sg28
VPA166128325
p2444
sg30
VNC_000010.10:g.[=]
p2445
sg32
V1
p2446
sa(dp2447
g10
V*3
p2448
sg12
(lp2449
sg28
VPA166128326
p2450
sg30
VNC_000010.10:g.[=]
p2451
sg32
V1
p2452
sa(dp2453
g10
V*4A
p2454
sg12
(lp2455
Vrs28399504
p2456
asg28
VPA166128327
p2457
sg30
VNC_000010.10:g.[96522463A>G]
p2458
sg32
V1
p2459
sa(dp2460
g10
V*5
p2461
sg12
(lp2462
sg28
VPA166128328
p2463
sg30
VNC_000010.10:g.[=]
p2464
sg32
V1
p2465
sa(dp2466
g10
V*6
p2467
sg12
(lp2468
sg28
VPA166128329
p2469
sg30
VNC_000010.10:g.[=]
p2470
sg32
V1
p2471
sa(dp2472
g10
V*7
p2473
sg12
(lp2474
sg28
VPA166128330
p2475
sg30
VNC_000010.10:g.[=]
p2476
sg32
V1
p2477
sa(dp2478
g10
V*8
p2479
sg12
(lp2480
sg28
VPA166128331
p2481
sg30
VNC_000010.10:g.[=]
p2482
sg32
V1
p2483
sa(dp2484
g10
V*17
p2485
sg12
(lp2486
Vrs12248560
p2487
asg28
VPA166128332
p2488
sg30
VNC_000010.10:g.[96521657C>T]
p2489
sg32
V1
p2490
sa(dp2491
g10
V*9
p2492
sg12
(lp2493
sg28
VPA166128333
p2494
sg30
VNC_000010.10:g.[=]
p2495
sg32
V1
p2496
sa(dp2497
g10
V*10
p2498
sg12
(lp2499
sg28
VPA166128334
p2500
sg30
VNC_000010.10:g.[=]
p2501
sg32
V1
p2502
sa(dp2503
g10
V*11
p2504
sg12
(lp2505
sg28
VPA166128335
p2506
sg30
VNC_000010.10:g.[=]
p2507
sg32
V1
p2508
sa(dp2509
g10
V*13
p2510
sg12
(lp2511
sg28
VPA166128336
p2512
sg30
VNC_000010.10:g.[=]
p2513
sg32
V1
p2514
sa(dp2515
g10
V*15
p2516
sg12
(lp2517
Vrs17882687
p2518
asg28
VPA166128337
p2519
sg30
VNC_000010.10:g.[96522517A>C]
p2520
sg32
V1
p2521
sa(dp2522
g10
V*16
p2523
sg12
(lp2524
sg28
VPA166128338
p2525
sg30
VNC_000010.10:g.[=]
p2526
sg32
V1
p2527
sa(dp2528
g10
V*18
p2529
sg12
(lp2530
sg28
VPA166128339
p2531
sg30
VNC_000010.10:g.[=]
p2532
sg32
V1
p2533
sa(dp2534
g10
V*19
p2535
sg12
(lp2536
sg28
VPA166128340
p2537
sg30
VNC_000010.10:g.[=]
p2538
sg32
V1
p2539
sa(dp2540
g10
V*22
p2541
sg12
(lp2542
sg28
VPA166128341
p2543
sg30
VNC_000010.10:g.[=]
p2544
sg32
V1
p2545
sa(dp2546
g10
V*24
p2547
sg12
(lp2548
sg28
VPA166128342
p2549
sg30
VNC_000010.10:g.[=]
p2550
sg32
V1
p2551
sa(dp2552
g10
V*25
p2553
sg12
(lp2554
sg28
VPA166128343
p2555
sg30
VNC_000010.10:g.[=]
p2556
sg32
V1
p2557
sa(dp2558
g10
V*26
p2559
sg12
(lp2560
sg28
VPA166128344
p2561
sg30
VNC_000010.10:g.[=]
p2562
sg32
V1
p2563
sa(dp2564
g10
V*28
p2565
sg12
(lp2566
Vrs113164681
p2567
aVrs111490789
p2568
aVrs17878739
p2569
aVrs17882687
p2570
asg28
VPA166128345
p2571
sg30
VNC_000010.10:g.[96520433C>T;96520443C>A;96521024T>C;96522517A>C]
p2572
sg32
V1
p2573
sa(dp2574
g10
V*4B
p2575
sg12
(lp2576
Vrs12248560
p2577
aVrs28399504
p2578
asg28
VPA166160941
p2579
sg30
VNC_000010.10:g.[96521657C>T;96522463A>G]
p2580
sg32
V1
p2581
sa(dp2582
g10
V*12
p2583
sg12
(lp2584
sg28
VPA166160942
p2585
sg30
VNC_000010.10:g.[=]
p2586
sg32
V1
p2587
sa(dp2588
g10
V*14
p2589
sg12
(lp2590
Vrs55752064
p2591
asg28
VPA166160943
p2592
sg30
VNC_000010.10:g.[96522512T>C]
p2593
sg32
V1
p2594
sa(dp2595
g10
V*23
p2596
sg12
(lp2597
sg28
VPA166160944
p2598
sg30
VNC_000010.10:g.[=]
p2599
sg32
V1
p2600
sa(dp2601
g10
V*27
p2602
sg12
(lp2603
Vrs7902257
p2604
asg28
VPA166160945
p2605
sg30
VNC_000010.10:g.[96521422G>A]
p2606
sg32
V1
p2607
sa(dp2608
g10
V*29
p2609
sg12
(lp2610
sg28
VPA166160946
p2611
sg30
VNC_000010.10:g.[=]
p2612
sg32
V1
p2613
sa(dp2614
g10
V*30
p2615
sg12
(lp2616
sg28
VPA166160947
p2617
sg30
VNC_000010.10:g.[=]
p2618
sg32
V1
p2619
sa(dp2620
g10
V*31
p2621
sg12
(lp2622
sg28
VPA166160948
p2623
sg30
VNC_000010.10:g.[=]
p2624
sg32
V1
p2625
sa(dp2626
g10
V*32
p2627
sg12
(lp2628
sg28
VPA166160949
p2629
sg30
VNC_000010.10:g.[=]
p2630
sg32
V1
p2631
sa(dp2632
g10
V*33
p2633
sg12
(lp2634
sg28
VPA166160950
p2635
sg30
VNC_000010.10:g.[=]
p2636
sg32
V1
p2637
sa(dp2638
g10
V*34
p2639
sg12
(lp2640
Vrs367543001
p2641
aVrs367543002
p2642
aVrs367543003
p2643
asg28
VPA166160951
p2644
sg30
VNC_000010.10:g.[96522450G>A;96522469C>T;96522472T>C]
p2645
sg32
V1
p2646
sa(dp2647
g10
V*35
p2648
sg12
(lp2649
sg28
VPA166160952
p2650
sg30
VNC_000010.10:g.[=]
p2651
sg32
V1
p2652
sasg270
VCYP2C19
p2653
sg28
VPA124
p2654
sa(dp2655
g2
(lp2656
VPA449053
p2657
aVPA451544
p2658
aVPA10233
p2659
aVPA10892
p2660
aVPA449283
p2661
aVPA449782
p2662
aVPA449683
p2663
aVPA451906
p2664
aVPA449761
p2665
aVPA448817
p2666
aVPA452632
p2667
aVPA154410481
p2668
aVPA450921
p2669
aVPA448871
p2670
aVPA450947
p2671
aVPA451718
p2672
aVPA134308647
p2673
asg7
(lp2674
(dp2675
g10
V*1
p2676
sg12
(lp2677
Vrs114071557
p2678
aVrs67807361
p2679
aVrs142240658
p2680
aVM61857.1:121
p2681
aVrs564813580
p2682
aVrs371055887
p2683
aVM61857.1:226
p2684
aVrs72558187
p2685
aVM61857.1:287
p2686
aVrs762239445
p2687
aVM61857.1:329
p2688
aVCYP2C9 c.353_362delAGAAATGGAA
p2689
aVM61857.1:356
p2690
aVrs767576260
p2691
aVrs12414460
p2692
aVrs72558189
p2693
aVrs200965026
p2694
aVrs199523631
p2695
aVrs72558184
p2696
aVrs1799853
p2697
aVrs754487195
p2698
aVrs7900194
p2699
aVrs72558190
p2700
aVrs774550549
p2701
aVM61857.1:610
p2702
aVM61857.1:620
p2703
aVM61857.1:641
p2704
aVM61857.1:664
p2705
aVM61857.1:679
p2706
aVrs2256871
p2707
aVrs9332130
p2708
aVrs9332131
p2709
aVrs182132442
p2710
aVM61857.1:850
p2711
aVrs72558192
p2712
aVM61857.1:896
p2713
aVM61857.1:949
p2714
aVrs57505750
p2715
aVrs28371685
p2716
aVrs367826293
p2717
aVrs750820937
p2718
aVrs749060448
p2719
aVrs1057910
p2720
aVrs56165452
p2721
aVrs28371686
p2722
aVM61857.1:1081
p2723
aVM61857.1:1144
p2724
aVrs764211126
p2725
aVrs72558193
p2726
aVrs769942899
p2727
aVrs1057911
p2728
aVrs781583846
p2729
aVrs9332239
p2730
aVM61857.1:1468
p2731
asg28
VPA166124421
p2732
sg30
VNC_000010.11:g.[=]
p2733
sg32
V1
p2734
sa(dp2735
g10
V*2
p2736
sg12
(lp2737
Vrs1799853
p2738
asg28
VPA166124422
p2739
sg30
VNC_000010.11:g.[96702047C>T]
p2740
sg32
V1
p2741
sa(dp2742
g10
V*3
p2743
sg12
(lp2744
Vrs1057910
p2745
asg28
VPA166124423
p2746
sg30
VNC_000010.11:g.[96741053A>C]
p2747
sg32
V1
p2748
sa(dp2749
g10
V*4
p2750
sg12
(lp2751
Vrs56165452
p2752
asg28
VPA166124424
p2753
sg30
VNC_000010.11:g.[96741054T>C]
p2754
sg32
V1
p2755
sa(dp2756
g10
V*5
p2757
sg12
(lp2758
Vrs28371686
p2759
asg28
VPA166124425
p2760
sg30
VNC_000010.11:g.[96741058C>G]
p2761
sg32
V1
p2762
sa(dp2763
g10
V*6
p2764
sg12
(lp2765
Vrs9332131
p2766
asg28
VPA166124426
p2767
sg30
VNC_000010.11:g.[96709039_96709039delA]
p2768
sg32
V1
p2769
sa(dp2770
g10
V*7
p2771
sg12
(lp2772
Vrs67807361
p2773
asg28
VPA166124427
p2774
sg30
VNC_000010.11:g.[96698494C>A]
p2775
sg32
V1
p2776
sa(dp2777
g10
V*8
p2778
sg12
(lp2779
Vrs7900194
p2780
asg28
VPA166124428
p2781
sg30
VNC_000010.11:g.[96702066G>A]
p2782
sg32
V1
p2783
sa(dp2784
g10
V*9
p2785
sg12
(lp2786
Vrs2256871
p2787
asg28
VPA166124429
p2788
sg30
VNC_000010.11:g.[96708974A>G]
p2789
sg32
V1
p2790
sa(dp2791
g10
V*10
p2792
sg12
(lp2793
Vrs9332130
p2794
asg28
VPA166124430
p2795
sg30
VNC_000010.11:g.[96709037A>G]
p2796
sg32
V1
p2797
sa(dp2798
g10
V*11
p2799
sg12
(lp2800
Vrs28371685
p2801
asg28
VPA166124431
p2802
sg30
VNC_000010.11:g.[96740981C>T]
p2803
sg32
V1
p2804
sa(dp2805
g10
V*12
p2806
sg12
(lp2807
Vrs9332239
p2808
asg28
VPA166124432
p2809
sg30
VNC_000010.11:g.[96748777C>T]
p2810
sg32
V1
p2811
sa(dp2812
g10
V*13
p2813
sg12
(lp2814
Vrs72558187
p2815
asg28
VPA166124433
p2816
sg30
VNC_000010.11:g.[96701715T>C]
p2817
sg32
V1
p2818
sa(dp2819
g10
V*14
p2820
sg12
(lp2821
Vrs72558189
p2822
asg28
VPA166124434
p2823
sg30
VNC_000010.11:g.[96701991G>A]
p2824
sg32
V1
p2825
sa(dp2826
g10
V*15
p2827
sg12
(lp2828
Vrs72558190
p2829
asg28
VPA166124435
p2830
sg30
VNC_000010.11:g.[96707539C>A]
p2831
sg32
V1
p2832
sa(dp2833
g10
V*16
p2834
sg12
(lp2835
Vrs72558192
p2836
asg28
VPA166124436
p2837
sg30
VNC_000010.11:g.[96731936A>G]
p2838
sg32
V1
p2839
sa(dp2840
g10
V*17
p2841
sg12
(lp2842
VM61857.1:1144
p2843
asg28
VPA166124437
p2844
sg30
VM61857.1:g.[1144C>T]
p2845
sg32
V1
p2846
sa(dp2847
g10
V*18
p2848
sg12
(lp2849
Vrs1057910
p2850
aVrs72558193
p2851
aVrs1057911
p2852
asg28
VPA166124438
p2853
sg30
VNC_000010.11:g.[96741053A>C;96745830A>C;96748737A>T]
p2854
sg32
V1
p2855
sa(dp2856
g10
V*19
p2857
sg12
(lp2858
Vrs769942899
p2859
asg28
VPA166124439
p2860
sg30
VNC_000010.11:g.[94988917G>C]
p2861
sg32
V1
p2862
sa(dp2863
g10
V*20
p2864
sg12
(lp2865
Vrs371055887
p2866
asg28
VPA166124440
p2867
sg30
VNC_000010.11:g.[96701654G>C]
p2868
sg32
V1
p2869
sa(dp2870
g10
V*21
p2871
sg12
(lp2872
Vrs142240658
p2873
asg28
VPA166124441
p2874
sg30
VNC_000010.11:g.[94938771C>T]
p2875
sg32
V1
p2876
sa(dp2877
g10
V*22
p2878
sg12
(lp2879
VM61857.1:121
p2880
asg28
VPA166124442
p2881
sg30
VM61857.1:g.[121A>G]
p2882
sg32
V1
p2883
sa(dp2884
g10
V*23
p2885
sg12
(lp2886
VM61857.1:226
p2887
asg28
VPA166124443
p2888
sg30
VM61857.1:g.[226G>A]
p2889
sg32
V1
p2890
sa(dp2891
g10
V*24
p2892
sg12
(lp2893
Vrs1799853
p2894
aVrs749060448
p2895
asg28
VPA166124444
p2896
sg30
VNC_000010.11:g.[94981281G>A;96702047C>C OR T]
p2897
sg32
V1
p2898
sa(dp2899
g10
V*25
p2900
sg12
(lp2901
VCYP2C9 c.353_362delAGAAATGGAA
p2902
asg28
VPA166124445
p2903
sg30
Vc.353_362delAGAAATGGAA
p2904
sg32
V1
p2905
sa(dp2906
g10
V*26
p2907
sg12
(lp2908
Vrs200965026
p2909
asg28
VPA166124446
p2910
sg30
VNC_000010.11:g.[94942249C>G]
p2911
sg32
V1
p2912
sa(dp2913
g10
V*27
p2914
sg12
(lp2915
Vrs7900194
p2916
asg28
VPA166124447
p2917
sg30
VNC_000010.11:g.[96702066G>T]
p2918
sg32
V1
p2919
sa(dp2920
g10
V*28
p2921
sg12
(lp2922
VM61857.1:641
p2923
asg28
VPA166124448
p2924
sg30
VM61857.1:g.[641A>T]
p2925
sg32
V1
p2926
sa(dp2927
g10
V*29
p2928
sg12
(lp2929
Vrs182132442
p2930
asg28
VPA166124449
p2931
sg30
VNC_000010.11:g.[94972119C>A]
p2932
sg32
V1
p2933
sa(dp2934
g10
V*30
p2935
sg12
(lp2936
Vrs781583846
p2937
asg28
VPA166124450
p2938
sg30
VNC_000010.11:g.[94988984G>A]
p2939
sg32
V1
p2940
sa(dp2941
g10
V*31
p2942
sg12
(lp2943
Vrs57505750
p2944
asg28
VPA166124451
p2945
sg30
VNC_000010.11:g.[96740958T>C]
p2946
sg32
V1
p2947
sa(dp2948
g10
V*1
p2949
sg12
(lp2950
Vrs114071557
p2951
aVrs67807361
p2952
aVrs142240658
p2953
aVM61857.1:121
p2954
aVrs564813580
p2955
aVrs371055887
p2956
aVM61857.1:226
p2957
aVrs72558187
p2958
aVM61857.1:287
p2959
aVrs762239445
p2960
aVM61857.1:329
p2961
aVCYP2C9 c.353_362delAGAAATGGAA
p2962
aVM61857.1:356
p2963
aVrs767576260
p2964
aVrs12414460
p2965
aVrs72558189
p2966
aVrs200965026
p2967
aVrs199523631
p2968
aVrs72558184
p2969
aVrs1799853
p2970
aVrs754487195
p2971
aVrs7900194
p2972
aVrs72558190
p2973
aVrs774550549
p2974
aVM61857.1:610
p2975
aVM61857.1:620
p2976
aVM61857.1:641
p2977
aVM61857.1:664
p2978
aVM61857.1:679
p2979
aVrs2256871
p2980
aVrs9332130
p2981
aVrs9332131
p2982
aVrs182132442
p2983
aVM61857.1:850
p2984
aVrs72558192
p2985
aVM61857.1:896
p2986
aVM61857.1:949
p2987
aVrs57505750
p2988
aVrs28371685
p2989
aVrs367826293
p2990
aVrs750820937
p2991
aVrs749060448
p2992
aVrs1057910
p2993
aVrs56165452
p2994
aVrs28371686
p2995
aVM61857.1:1081
p2996
aVM61857.1:1144
p2997
aVrs764211126
p2998
aVrs72558193
p2999
aVrs769942899
p3000
aVrs1057911
p3001
aVrs781583846
p3002
aVrs9332239
p3003
aVM61857.1:1468
p3004
aVM61857.1:1009
p3005
aVM61857.1:1300
p3006
aVrs767284820
p3007
asg28
VPA165816542
p3008
sg30
VNC_000010.11:g.[=]
p3009
sg32
V1
p3010
sa(dp3011
g10
V*2
p3012
sg12
(lp3013
Vrs1799853
p3014
asg28
VPA165816543
p3015
sg30
VNC_000010.11:g.[96702047C>T]
p3016
sg32
V1
p3017
sa(dp3018
g10
V*3
p3019
sg12
(lp3020
Vrs1057910
p3021
asg28
VPA165816544
p3022
sg30
VNC_000010.11:g.[96741053A>C]
p3023
sg32
V1
p3024
sa(dp3025
g10
V*4
p3026
sg12
(lp3027
Vrs56165452
p3028
asg28
VPA165816545
p3029
sg30
VNC_000010.11:g.[96741054T>C]
p3030
sg32
V1
p3031
sa(dp3032
g10
V*5
p3033
sg12
(lp3034
Vrs28371686
p3035
asg28
VPA165816546
p3036
sg30
VNC_000010.11:g.[96741058C>G]
p3037
sg32
V1
p3038
sa(dp3039
g10
V*6
p3040
sg12
(lp3041
Vrs9332131
p3042
asg28
VPA165816547
p3043
sg30
VNC_000010.11:g.[96709039_96709039delA]
p3044
sg32
V1
p3045
sa(dp3046
g10
V*7
p3047
sg12
(lp3048
Vrs67807361
p3049
asg28
VPA165816548
p3050
sg30
VNC_000010.11:g.[96698494C>A]
p3051
sg32
V1
p3052
sa(dp3053
g10
V*8
p3054
sg12
(lp3055
Vrs7900194
p3056
asg28
VPA165816549
p3057
sg30
VNC_000010.11:g.[96702066G>A]
p3058
sg32
V1
p3059
sa(dp3060
g10
V*9
p3061
sg12
(lp3062
Vrs2256871
p3063
asg28
VPA165816550
p3064
sg30
VNC_000010.11:g.[96708974A>G]
p3065
sg32
V1
p3066
sa(dp3067
g10
V*10
p3068
sg12
(lp3069
Vrs9332130
p3070
asg28
VPA165816551
p3071
sg30
VNC_000010.11:g.[96709037A>G]
p3072
sg32
V1
p3073
sa(dp3074
g10
V*11
p3075
sg12
(lp3076
Vrs28371685
p3077
asg28
VPA165816552
p3078
sg30
VNC_000010.11:g.[96740981C>T]
p3079
sg32
V1
p3080
sa(dp3081
g10
V*12
p3082
sg12
(lp3083
Vrs9332239
p3084
asg28
VPA165816553
p3085
sg30
VNC_000010.11:g.[96748777C>T]
p3086
sg32
V1
p3087
sa(dp3088
g10
V*13
p3089
sg12
(lp3090
Vrs72558187
p3091
asg28
VPA165816554
p3092
sg30
VNC_000010.11:g.[96701715T>C]
p3093
sg32
V1
p3094
sa(dp3095
g10
V*14
p3096
sg12
(lp3097
Vrs72558189
p3098
asg28
VPA165816555
p3099
sg30
VNC_000010.11:g.[96701991G>A]
p3100
sg32
V1
p3101
sa(dp3102
g10
V*15
p3103
sg12
(lp3104
Vrs72558190
p3105
asg28
VPA165816556
p3106
sg30
VNC_000010.11:g.[96707539C>A]
p3107
sg32
V1
p3108
sa(dp3109
g10
V*16
p3110
sg12
(lp3111
Vrs72558192
p3112
asg28
VPA165816557
p3113
sg30
VNC_000010.11:g.[96731936A>G]
p3114
sg32
V1
p3115
sa(dp3116
g10
V*18
p3117
sg12
(lp3118
Vrs1057910
p3119
aVrs72558193
p3120
aVrs1057911
p3121
asg28
VPA165816558
p3122
sg30
VNC_000010.11:g.[96741053A>C;96745830A>C;96748737A>T]
p3123
sg32
V1
p3124
sa(dp3125
g10
V*25
p3126
sg12
(lp3127
VCYP2C9 c.353_362delAGAAATGGAA
p3128
asg28
VPA165816559
p3129
sg30
Vc.353_362delAGAAATGGAA
p3130
sg32
V1
p3131
sa(dp3132
g10
V*31
p3133
sg12
(lp3134
Vrs57505750
p3135
asg28
VPA165816560
p3136
sg30
VNC_000010.11:g.[96740958T>C]
p3137
sg32
V1
p3138
sa(dp3139
g10
V*33
p3140
sg12
(lp3141
Vrs72558184
p3142
asg28
VPA165816561
p3143
sg30
VNC_000010.11:g.[96535210G>A]
p3144
sg32
V1
p3145
sa(dp3146
g10
V*34
p3147
sg12
(lp3148
Vrs367826293
p3149
asg28
VPA165816562
p3150
sg30
VNC_000010.11:g.[96740982G>A]
p3151
sg32
V1
p3152
sa(dp3153
g10
V*17
p3154
sg12
(lp3155
VM61857.1:1144
p3156
asg28
VPA165816563
p3157
sg30
VM61857.1:g.[1144C>T]
p3158
sg32
V1
p3159
sa(dp3160
g10
V*19
p3161
sg12
(lp3162
Vrs769942899
p3163
asg28
VPA165816564
p3164
sg30
VNC_000010.11:g.[94988917G>C]
p3165
sg32
V1
p3166
sa(dp3167
g10
V*20
p3168
sg12
(lp3169
Vrs371055887
p3170
asg28
VPA165816565
p3171
sg30
VNC_000010.11:g.[96701654G>C]
p3172
sg32
V1
p3173
sa(dp3174
g10
V*21
p3175
sg12
(lp3176
Vrs142240658
p3177
asg28
VPA165816566
p3178
sg30
VNC_000010.11:g.[94938771C>T]
p3179
sg32
V1
p3180
sa(dp3181
g10
V*22
p3182
sg12
(lp3183
VM61857.1:121
p3184
asg28
VPA165816567
p3185
sg30
VM61857.1:g.[121A>G]
p3186
sg32
V1
p3187
sa(dp3188
g10
V*23
p3189
sg12
(lp3190
VM61857.1:226
p3191
asg28
VPA165816568
p3192
sg30
VM61857.1:g.[226G>A]
p3193
sg32
V1
p3194
sa(dp3195
g10
V*24
p3196
sg12
(lp3197
Vrs1799853
p3198
aVrs749060448
p3199
asg28
VPA165816569
p3200
sg30
VNC_000010.11:g.[94981281G>A;96702047C>C OR T]
p3201
sg32
V1
p3202
sa(dp3203
g10
V*26
p3204
sg12
(lp3205
Vrs200965026
p3206
asg28
VPA165816570
p3207
sg30
VNC_000010.11:g.[94942249C>G]
p3208
sg32
V1
p3209
sa(dp3210
g10
V*27
p3211
sg12
(lp3212
Vrs7900194
p3213
asg28
VPA165816571
p3214
sg30
VNC_000010.11:g.[96702066G>T]
p3215
sg32
V1
p3216
sa(dp3217
g10
V*28
p3218
sg12
(lp3219
VM61857.1:641
p3220
asg28
VPA165816572
p3221
sg30
VM61857.1:g.[641A>T]
p3222
sg32
V1
p3223
sa(dp3224
g10
V*29
p3225
sg12
(lp3226
Vrs182132442
p3227
asg28
VPA165816573
p3228
sg30
VNC_000010.11:g.[94972119C>A]
p3229
sg32
V1
p3230
sa(dp3231
g10
V*30
p3232
sg12
(lp3233
Vrs781583846
p3234
asg28
VPA165816574
p3235
sg30
VNC_000010.11:g.[94988984G>A]
p3236
sg32
V1
p3237
sa(dp3238
g10
V*32
p3239
sg12
(lp3240
VM61857.1:1468
p3241
asg28
VPA165816575
p3242
sg30
VM61857.1:g.[1468G>T]
p3243
sg32
V1
p3244
sa(dp3245
g10
V*35
p3246
sg12
(lp3247
Vrs72558189
p3248
aVrs1799853
p3249
asg28
VPA166048681
p3250
sg30
VNC_000010.11:g.[96701991G>A;96702047C>T]
p3251
sg32
V1
p3252
sa(dp3253
g10
V*36
p3254
sg12
(lp3255
Vrs114071557
p3256
asg28
VPA166048682
p3257
sg30
VNC_000010.11:g.[94938683A>G]
p3258
sg32
V1
p3259
sa(dp3260
g10
V*37
p3261
sg12
(lp3262
Vrs564813580
p3263
asg28
VPA166048683
p3264
sg30
VNC_000010.11:g.[94938828A>G]
p3265
sg32
V1
p3266
sa(dp3267
g10
V*38
p3268
sg12
(lp3269
VM61857.1:287
p3270
asg28
VPA166048684
p3271
sg30
VM61857.1:g.[287G>C]
p3272
sg32
V1
p3273
sa(dp3274
g10
V*39
p3275
sg12
(lp3276
Vrs762239445
p3277
asg28
VPA166048685
p3278
sg30
VNC_000010.11:g.[94941982G>T]
p3279
sg32
V1
p3280
sa(dp3281
g10
V*40
p3282
sg12
(lp3283
VM61857.1:329
p3284
asg28
VPA166048686
p3285
sg30
VM61857.1:g.[329T>C]
p3286
sg32
V1
p3287
sa(dp3288
g10
V*41
p3289
sg12
(lp3290
VM61857.1:356
p3291
asg28
VPA166048687
p3292
sg30
VM61857.1:g.[356A>G]
p3293
sg32
V1
p3294
sa(dp3295
g10
V*42
p3296
sg12
(lp3297
Vrs12414460
p3298
asg28
VPA166048688
p3299
sg30
VNC_000010.11:g.[96701988G>A]
p3300
sg32
V1
p3301
sa(dp3302
g10
V*43
p3303
sg12
(lp3304
Vrs767576260
p3305
asg28
VPA166048689
p3306
sg30
VNC_000010.11:g.[94942230C>T]
p3307
sg32
V1
p3308
sa(dp3309
g10
V*44
p3310
sg12
(lp3311
Vrs200965026
p3312
asg28
VPA166048690
p3313
sg30
VNC_000010.11:g.[94942249C>T]
p3314
sg32
V1
p3315
sa(dp3316
g10
V*45
p3317
sg12
(lp3318
Vrs199523631
p3319
asg28
VPA166048691
p3320
sg30
VNC_000010.11:g.[94942254C>T]
p3321
sg32
V1
p3322
sa(dp3323
g10
V*46
p3324
sg12
(lp3325
Vrs754487195
p3326
asg28
VPA166048692
p3327
sg30
VNC_000010.11:g.[94942305G>A]
p3328
sg32
V1
p3329
sa(dp3330
g10
V*47
p3331
sg12
(lp3332
Vrs774550549
p3333
asg28
VPA166048693
p3334
sg30
VNC_000010.11:g.[94947785C>T]
p3335
sg32
V1
p3336
sa(dp3337
g10
V*48
p3338
sg12
(lp3339
VM61857.1:620
p3340
asg28
VPA166048694
p3341
sg30
VM61857.1:g.[620T>C]
p3342
sg32
V1
p3343
sa(dp3344
g10
V*49
p3345
sg12
(lp3346
VM61857.1:664
p3347
asg28
VPA166048695
p3348
sg30
VM61857.1:g.[664A>G]
p3349
sg32
V1
p3350
sa(dp3351
g10
V*50
p3352
sg12
(lp3353
VM61857.1:679
p3354
asg28
VPA166048696
p3355
sg30
VM61857.1:g.[679C>T]
p3356
sg32
V1
p3357
sa(dp3358
g10
V*51
p3359
sg12
(lp3360
VM61857.1:850
p3361
asg28
VPA166048697
p3362
sg30
VM61857.1:g.[850A>G]
p3363
sg32
V1
p3364
sa(dp3365
g10
V*52
p3366
sg12
(lp3367
VM61857.1:896
p3368
asg28
VPA166048698
p3369
sg30
VM61857.1:g.[896C>G]
p3370
sg32
V1
p3371
sa(dp3372
g10
V*53
p3373
sg12
(lp3374
VM61857.1:949
p3375
asg28
VPA166048699
p3376
sg30
VM61857.1:g.[949C>T]
p3377
sg32
V1
p3378
sa(dp3379
g10
V*54
p3380
sg12
(lp3381
Vrs750820937
p3382
asg28
VPA166048700
p3383
sg30
VNC_000010.11:g.[94981250C>A]
p3384
sg32
V1
p3385
sa(dp3386
g10
V*55
p3387
sg12
(lp3388
VM61857.1:1081
p3389
asg28
VPA166048701
p3390
sg30
VM61857.1:g.[1081C>A]
p3391
sg32
V1
p3392
sa(dp3393
g10
V*56
p3394
sg12
(lp3395
Vrs764211126
p3396
asg28
VPA166048702
p3397
sg30
VNC_000010.11:g.[94986042A>G]
p3398
sg32
V1
p3399
sa(dp3400
g10
V*57
p3401
sg12
(lp3402
VM61857.1:610
p3403
asg28
VPA166048703
p3404
sg30
VM61857.1:g.[610A>C]
p3405
sg32
V1
p3406
sa(dp3407
g10
V*58
p3408
sg12
(lp3409
VM61857.1:1009
p3410
asg28
VPA166122566
p3411
sg30
VM61857.1:g.[1009C>A]
p3412
sg32
V1
p3413
sa(dp3414
g10
V*59
p3415
sg12
(lp3416
VM61857.1:1300
p3417
asg28
VPA166128210
p3418
sg30
VM61857.1:g.[1300A>T]
p3419
sg32
V1
p3420
sa(dp3421
g10
V*60
p3422
sg12
(lp3423
Vrs767284820
p3424
asg28
VPA166128211
p3425
sg30
VNC_000010.11:g.[94988955T>C]
p3426
sg32
V1
p3427
sa(dp3428
g10
V*32
p3429
sg12
(lp3430
VM61857.1:1468
p3431
asg28
VPA166124452
p3432
sg30
VM61857.1:g.[1468G>T]
p3433
sg32
V1
p3434
sa(dp3435
g10
V*33
p3436
sg12
(lp3437
Vrs72558184
p3438
asg28
VPA166124453
p3439
sg30
VNC_000010.11:g.[96535210G>A]
p3440
sg32
V1
p3441
sa(dp3442
g10
V*34
p3443
sg12
(lp3444
Vrs367826293
p3445
asg28
VPA166124454
p3446
sg30
VNC_000010.11:g.[96740982G>A]
p3447
sg32
V1
p3448
sa(dp3449
g10
V*35
p3450
sg12
(lp3451
Vrs72558189
p3452
aVrs1799853
p3453
asg28
VPA166124455
p3454
sg30
VNC_000010.11:g.[96701991G>A;96702047C>T]
p3455
sg32
V1
p3456
sa(dp3457
g10
V*36
p3458
sg12
(lp3459
Vrs114071557
p3460
asg28
VPA166124456
p3461
sg30
VNC_000010.11:g.[94938683A>G]
p3462
sg32
V1
p3463
sa(dp3464
g10
V*37
p3465
sg12
(lp3466
Vrs564813580
p3467
asg28
VPA166124457
p3468
sg30
VNC_000010.11:g.[94938828A>G]
p3469
sg32
V1
p3470
sa(dp3471
g10
V*38
p3472
sg12
(lp3473
VM61857.1:287
p3474
asg28
VPA166124458
p3475
sg30
VM61857.1:g.[287G>C]
p3476
sg32
V1
p3477
sa(dp3478
g10
V*39
p3479
sg12
(lp3480
Vrs762239445
p3481
asg28
VPA166124459
p3482
sg30
VNC_000010.11:g.[94941982G>T]
p3483
sg32
V1
p3484
sa(dp3485
g10
V*40
p3486
sg12
(lp3487
VM61857.1:329
p3488
asg28
VPA166124460
p3489
sg30
VM61857.1:g.[329T>C]
p3490
sg32
V1
p3491
sa(dp3492
g10
V*41
p3493
sg12
(lp3494
VM61857.1:356
p3495
asg28
VPA166124461
p3496
sg30
VM61857.1:g.[356A>G]
p3497
sg32
V1
p3498
sa(dp3499
g10
V*42
p3500
sg12
(lp3501
Vrs12414460
p3502
asg28
VPA166124462
p3503
sg30
VNC_000010.11:g.[96701988G>A]
p3504
sg32
V1
p3505
sa(dp3506
g10
V*43
p3507
sg12
(lp3508
Vrs767576260
p3509
asg28
VPA166124463
p3510
sg30
VNC_000010.11:g.[94942230C>T]
p3511
sg32
V1
p3512
sa(dp3513
g10
V*44
p3514
sg12
(lp3515
Vrs200965026
p3516
asg28
VPA166124464
p3517
sg30
VNC_000010.11:g.[94942249C>T]
p3518
sg32
V1
p3519
sa(dp3520
g10
V*45
p3521
sg12
(lp3522
Vrs199523631
p3523
asg28
VPA166124465
p3524
sg30
VNC_000010.11:g.[94942254C>T]
p3525
sg32
V1
p3526
sa(dp3527
g10
V*46
p3528
sg12
(lp3529
Vrs754487195
p3530
asg28
VPA166124466
p3531
sg30
VNC_000010.11:g.[94942305G>A]
p3532
sg32
V1
p3533
sa(dp3534
g10
V*47
p3535
sg12
(lp3536
Vrs774550549
p3537
asg28
VPA166124467
p3538
sg30
VNC_000010.11:g.[94947785C>T]
p3539
sg32
V1
p3540
sa(dp3541
g10
V*48
p3542
sg12
(lp3543
VM61857.1:620
p3544
asg28
VPA166124468
p3545
sg30
VM61857.1:g.[620T>C]
p3546
sg32
V1
p3547
sa(dp3548
g10
V*49
p3549
sg12
(lp3550
VM61857.1:664
p3551
asg28
VPA166124469
p3552
sg30
VM61857.1:g.[664A>G]
p3553
sg32
V1
p3554
sa(dp3555
g10
V*50
p3556
sg12
(lp3557
VM61857.1:679
p3558
asg28
VPA166124470
p3559
sg30
VM61857.1:g.[679C>T]
p3560
sg32
V1
p3561
sa(dp3562
g10
V*51
p3563
sg12
(lp3564
VM61857.1:850
p3565
asg28
VPA166124471
p3566
sg30
VM61857.1:g.[850A>G]
p3567
sg32
V1
p3568
sa(dp3569
g10
V*52
p3570
sg12
(lp3571
VM61857.1:896
p3572
asg28
VPA166124472
p3573
sg30
VM61857.1:g.[896C>G]
p3574
sg32
V1
p3575
sa(dp3576
g10
V*53
p3577
sg12
(lp3578
VM61857.1:949
p3579
asg28
VPA166124473
p3580
sg30
VM61857.1:g.[949C>T]
p3581
sg32
V1
p3582
sa(dp3583
g10
V*54
p3584
sg12
(lp3585
Vrs750820937
p3586
asg28
VPA166124474
p3587
sg30
VNC_000010.11:g.[94981250C>A]
p3588
sg32
V1
p3589
sa(dp3590
g10
V*55
p3591
sg12
(lp3592
VM61857.1:1081
p3593
asg28
VPA166124475
p3594
sg30
VM61857.1:g.[1081C>A]
p3595
sg32
V1
p3596
sa(dp3597
g10
V*56
p3598
sg12
(lp3599
Vrs764211126
p3600
asg28
VPA166124476
p3601
sg30
VNC_000010.11:g.[94986042A>G]
p3602
sg32
V1
p3603
sa(dp3604
g10
V*57
p3605
sg12
(lp3606
VM61857.1:610
p3607
asg28
VPA166124477
p3608
sg30
VM61857.1:g.[610A>C]
p3609
sg32
V1
p3610
sasg270
VCYP2C9
p3611
sg28
VPA126
p3612
sa(dp3613
g2
(lp3614
VPA165291492
p3615
asg7
(lp3616
(dp3617
g10
V*14
p3618
sg12
(lp3619
Vrs188934928
p3620
asg28
VPA165958696
p3621
sg30
VNC_000010.11:g.[96818199C>G]
p3622
sg32
V1
p3623
sa(dp3624
g10
V*1A
p3625
sg12
(lp3626
VCYP2C8 -271G>T
p3627
aVCYP2C8 -370A>C
p3628
aVCYP2C8 1675G>A
p3629
aVCYP2C8 2010C>T
p3630
aVCYP2C8 2040_2041insA
p3631
aVrs11572080
p3632
aVrs72558196
p3633
aVrs3832694
p3634
aVrs142886225
p3635
aVrs72558195
p3636
aVrs1058930
p3637
aVCYP2C8 10918A>C
p3638
aVrs188934928
p3639
aVCYP2C8 10989T>C
p3640
aVrs11572103
p3641
aVrs78637571
p3642
aVCYP2C8 26513C>A
p3643
aVCYP2C8 26562A>T
p3644
aVrs10509681
p3645
aVCYP2C8 32299G>A
p3646
asg28
VPA165958681
p3647
sg30
VNC_000010.11:g.[=]
p3648
sg32
V1
p3649
sa(dp3650
g10
V*1B
p3651
sg12
(lp3652
VCYP2C8 -271G>T
p3653
asg28
VPA165958682
p3654
sg30
V-271G>T
p3655
sg32
V1
p3656
sa(dp3657
g10
V*1C
p3658
sg12
(lp3659
VCYP2C8 -370A>C
p3660
asg28
VPA165958683
p3661
sg30
V-370A>C
p3662
sg32
V1
p3663
sa(dp3664
g10
V*2
p3665
sg12
(lp3666
VCYP2C8 1675G>A
p3667
aVCYP2C8 2010C>T
p3668
aVCYP2C8 2040_2041insA
p3669
aVrs11572103
p3670
aVCYP2C8 26562A>T
p3671
aVCYP2C8 32299G>A
p3672
asg28
VPA165958684
p3673
sg30
V1675G>A;2010C>T;2040_2041insA;26562A>T;32299G>A,NC_000010.11:g.[96818106T>A]
p3674
sg32
V1
p3675
sa(dp3676
g10
V*3
p3677
sg12
(lp3678
VCYP2C8 1675G>A
p3679
aVCYP2C8 2010C>T
p3680
aVrs11572080
p3681
aVrs10509681
p3682
asg28
VPA165958685
p3683
sg30
V1675G>A;2010C>T,NC_000010.11:g.[96798749T>C;96827030C>T]
p3684
sg32
V1
p3685
sa(dp3686
g10
V*4
p3687
sg12
(lp3688
Vrs1058930
p3689
asg28
VPA165958686
p3690
sg30
VNC_000010.11:g.[96818119G>C]
p3691
sg32
V1
p3692
sa(dp3693
g10
V*5
p3694
sg12
(lp3695
Vrs72558196
p3696
asg28
VPA165958687
p3697
sg30
VNC_000010.11:g.[96826971_96826971delT]
p3698
sg32
V1
p3699
sa(dp3700
g10
V*6
p3701
sg12
(lp3702
Vrs142886225
p3703
asg28
VPA165958688
p3704
sg30
VNC_000010.11:g.[96824688C>T]
p3705
sg32
V1
p3706
sa(dp3707
g10
V*7
p3708
sg12
(lp3709
Vrs72558195
p3710
asg28
VPA165958689
p3711
sg30
VNC_000010.11:g.[96824643G>A]
p3712
sg32
V1
p3713
sa(dp3714
g10
V*8
p3715
sg12
(lp3716
Vrs72558195
p3717
asg28
VPA165958690
p3718
sg30
VNC_000010.11:g.[96824643G>C]
p3719
sg32
V1
p3720
sa(dp3721
g10
V*9
p3722
sg12
(lp3723
VCYP2C8 10989T>C
p3724
asg28
VPA165958691
p3725
sg30
V10989T>C
p3726
sg32
V1
p3727
sa(dp3728
g10
V*10
p3729
sg12
(lp3730
VCYP2C8 26513C>A
p3731
asg28
VPA165958692
p3732
sg30
V26513C>A
p3733
sg32
V1
p3734
sa(dp3735
g10
V*11
p3736
sg12
(lp3737
Vrs78637571
p3738
asg28
VPA165958693
p3739
sg30
VNC_000010.11:g.[96805708C>A]
p3740
sg32
V1
p3741
sa(dp3742
g10
V*12
p3743
sg12
(lp3744
Vrs3832694
p3745
asg28
VPA165958694
p3746
sg30
VNC_000010.11:g.[96796974_96796976delCAA]
p3747
sg32
V1
p3748
sa(dp3749
g10
V*13
p3750
sg12
(lp3751
VCYP2C8 10918A>C
p3752
asg28
VPA165958695
p3753
sg30
V10918A>C
p3754
sg32
V1
p3755
sasg270
VCYP2C8
p3756
sg28
VPA125
p3757
sa(dp3758
g2
(lp3759
sg7
(lp3760
(dp3761
g10
VH1
p3762
sg12
(lp3763
Vrs1885301
p3764
aVrs2804402
p3765
aVrs717620
p3766
aVrs2273697
p3767
aVABCC2 Intron 26-34T>C
p3768
aVrs3740066
p3769
aVABCC2 PMID
p3770
asg28
VPA165948969
p3771
sg30
VNC_000010.11:g.[=]
p3772
sg32
V1
p3773
sa(dp3774
g10
VH2
p3775
sg12
(lp3776
Vrs1885301
p3777
aVrs2804402
p3778
aVrs717620
p3779
aVrs2273697
p3780
aVABCC2 Intron 26-34T>C
p3781
aVrs3740066
p3782
aVABCC2 PMID
p3783
asg28
VPA165948970
p3784
sg30
VNC_000010.11:g.[101541053G>A;101541583A>G;101542578C>T;101604207C>T]
p3785
sg32
V1
p3786
sa(dp3787
g10
VH9
p3788
sg12
(lp3789
Vrs1885301
p3790
aVrs2804402
p3791
aVrs717620
p3792
aVrs2273697
p3793
aVABCC2 Intron 26-34T>C
p3794
aVrs3740066
p3795
aVABCC2 PMID
p3796
asg28
VPA165948971
p3797
sg30
VNC_000010.11:g.[101541053G>A;101541583A>G;101542578C>T]
p3798
sg32
V1
p3799
sa(dp3800
g10
VH10
p3801
sg12
(lp3802
Vrs1885301
p3803
aVrs2804402
p3804
aVrs717620
p3805
aVrs2273697
p3806
aVABCC2 Intron 26-34T>C
p3807
aVrs3740066
p3808
aVABCC2 PMID
p3809
asg28
VPA165948972
p3810
sg30
VNC_000010.11:g.[101541053G>A]
p3811
sg32
V1
p3812
sa(dp3813
g10
VH12
p3814
sg12
(lp3815
Vrs1885301
p3816
aVrs2804402
p3817
aVrs717620
p3818
aVrs2273697
p3819
aVABCC2 Intron 26-34T>C
p3820
aVrs3740066
p3821
aVABCC2 PMID
p3822
asg28
VPA165948973
p3823
sg30
VIntron 26-34T>C,NC_000010.11:g.[101541053G>A]
p3824
sg32
V1
p3825
sa(dp3826
g10
VH13
p3827
sg12
(lp3828
Vrs717620
p3829
aVrs2273697
p3830
aVrs3740066
p3831
aVABCC2 PMID
p3832
asg28
VPA165949833
p3833
sg30
VPMID,NC_000010.11:g.[101563815G>A;101604207C>T]
p3834
sg32
V1
p3835
sa(dp3836
g10
VH14
p3837
sg12
(lp3838
Vrs717620
p3839
aVrs2273697
p3840
aVrs3740066
p3841
aVABCC2 PMID
p3842
asg28
VPA165949834
p3843
sg30
VPMID,NC_000010.11:g.[101542578C>T;101563815G>A]
p3844
sg32
V1
p3845
sa(dp3846
g10
VH15
p3847
sg12
(lp3848
Vrs717620
p3849
aVrs2273697
p3850
aVrs3740066
p3851
aVABCC2 PMID
p3852
asg28
VPA165949835
p3853
sg30
VPMID,NC_000010.11:g.[101542578C>T;101563815G>A;101604207C>T]
p3854
sg32
V1
p3855
sasg270
VABCC2
p3856
sg28
VPA116
p3857
sa(dp3858
g2
(lp3859
VPA134308647
p3860
aVPA451363
p3861
aVPA448500
p3862
asg7
(lp3863
(dp3864
g10
V*16
p3865
sg12
(lp3866
Vrs2306282
p3867
asg28
VPA165949164
p3868
sg30
VNC_000012.11:g.[21329802A>G]
p3869
sg32
V1
p3870
sa(dp3871
g10
V*22
p3872
sg12
(lp3873
Vrs34671512
p3874
asg28
VPA165947863
p3875
sg30
VNC_000012.11:g.[21391976A>C]
p3876
sg32
V1
p3877
sa(dp3878
g10
V*23
p3879
sg12
(lp3880
Vrs373327528
p3881
asg28
VPA165947864
p3882
sg30
VNC_000012.11:g.[21325710G>A]
p3883
sg32
V1
p3884
sa(dp3885
g10
V*24
p3886
sg12
(lp3887
Vrs2306283
p3888
aVrs11045852
p3889
asg28
VPA165947865
p3890
sg30
VNC_000012.11:g.[21329738A>G;21349885A>G]
p3891
sg32
V1
p3892
sa(dp3893
g10
V*25
p3894
sg12
(lp3895
Vrs2306283
p3896
aVrs11045819
p3897
aVrs11045852
p3898
aVrs11045853
p3899
asg28
VPA165947866
p3900
sg30
VNC_000012.11:g.[21329738A>G;21329813C>A;21349885A>G;21349910G>A]
p3901
sg32
V1
p3902
sa(dp3903
g10
V*26
p3904
sg12
(lp3905
Vrs142965323
p3906
asg28
VPA165947867
p3907
sg30
VNC_000012.11:g.[21355598G>A]
p3908
sg32
V1
p3909
sa(dp3910
g10
V*27
p3911
sg12
(lp3912
Vrs2306283
p3913
aVrs59113707
p3914
asg28
VPA165947868
p3915
sg30
VNC_000012.11:g.[21329738A>G;21355489C>G]
p3916
sg32
V1
p3917
sa(dp3918
g10
V*28
p3919
sg12
(lp3920
Vrs2306283
p3921
aVrs11045852
p3922
aVrs11045853
p3923
asg28
VPA165947869
p3924
sg30
VNC_000012.11:g.[21329738A>G;21349885A>G;21349910G>A]
p3925
sg32
V1
p3926
sa(dp3927
g10
V*29
p3928
sg12
(lp3929
Vrs2306283
p3930
aVrs140790673
p3931
asg28
VPA165947870
p3932
sg30
VNC_000012.11:g.[21329738A>G;21392092C>T]
p3933
sg32
V1
p3934
sa(dp3935
g10
V*30
p3936
sg12
(lp3937
Vrs2306283
p3938
aVrs79135870
p3939
asg28
VPA165947871
p3940
sg30
VNC_000012.11:g.[21329738A>G;21331891A>G]
p3941
sg32
V1
p3942
sa(dp3943
g10
V*31
p3944
sg12
(lp3945
Vrs2306283
p3946
aVrs59502379
p3947
asg28
VPA165947872
p3948
sg30
VNC_000012.11:g.[21329738A>G;21358933G>C]
p3949
sg32
V1
p3950
sa(dp3951
g10
V*32
p3952
sg12
(lp3953
Vrs2306283
p3954
aVrs11045819
p3955
aVrs11045852
p3956
asg28
VPA165947873
p3957
sg30
VNC_000012.11:g.[21329738A>G;21329813C>A;21349885A>G]
p3958
sg32
V1
p3959
sa(dp3960
g10
V*33
p3961
sg12
(lp3962
Vrs139257324
p3963
aVrs2306283
p3964
aVrs11045852
p3965
aVrs11045853
p3966
asg28
VPA165947874
p3967
sg30
VNC_000012.11:g.[21325668C>T;21329738A>G;21349885A>G;21349910G>A]
p3968
sg32
V1
p3969
sa(dp3970
g10
V*34
p3971
sg12
(lp3972
Vrs200995543
p3973
asg28
VPA165947875
p3974
sg30
VNC_000012.11:g.[21392079C>T]
p3975
sg32
V1
p3976
sa(dp3977
g10
V*35
p3978
sg12
(lp3979
Vrs2306283
p3980
aVrs34671512
p3981
asg28
VPA165947876
p3982
sg30
VNC_000012.11:g.[21329738A>G;21391976A>C]
p3983
sg32
V1
p3984
sa(dp3985
g10
V*36
p3986
sg12
(lp3987
Vchr12:21355487 (hg19)
p3988
asg28
VPA165947877
p3989
sg30
VNC_000012.11:g.[21355487T>G]
p3990
sg32
V1
p3991
sa(dp3992
g10
V*1A
p3993
sg12
(lp3994
Vrs4149015
p3995
aVrs139257324
p3996
aVrs373327528
p3997
aVrs56101265
p3998
aVrs56061388
p3999
aVrs2306283
p4000
aVrs11045818
p4001
aVrs2306282
p4002
aVrs11045819
p4003
aVrs72559745
p4004
aVrs4149056
p4005
aVrs4149057
p4006
aVrs72559746
p4007
aVrs2291075
p4008
aVrs79135870
p4009
aVrs11045852
p4010
aVrs11045853
p4011
aVrs55901008
p4012
aVchr12:21355487 (hg19)
p4013
aVrs59113707
p4014
aVrs56387224
p4015
aVrs142965323
p4016
aVrs72559748
p4017
aVrs59502379
p4018
aVrs34671512
p4019
aVrs56199088
p4020
aVrs55737008
p4021
aVrs200995543
p4022
aVrs140790673
p4023
asg28
VPA165819250
p4024
sg30
VNC_000012.11:g.[=]
p4025
sg32
V1
p4026
sa(dp4027
g10
V*1B
p4028
sg12
(lp4029
Vrs2306283
p4030
asg28
VPA165819251
p4031
sg30
VNC_000012.11:g.[21329738A>G]
p4032
sg32
V1
p4033
sa(dp4034
g10
V*2
p4035
sg12
(lp4036
Vrs56101265
p4037
asg28
VPA165819252
p4038
sg30
VNC_000012.11:g.[21325716T>C]
p4039
sg32
V1
p4040
sa(dp4041
g10
V*3
p4042
sg12
(lp4043
Vrs56061388
p4044
aVrs72559745
p4045
asg28
VPA165819253
p4046
sg30
VNC_000012.11:g.[21327529T>C;21329817A>G]
p4047
sg32
V1
p4048
sa(dp4049
g10
V*4
p4050
sg12
(lp4051
Vrs11045819
p4052
asg28
VPA165819254
p4053
sg30
VNC_000012.11:g.[21329813C>A]
p4054
sg32
V1
p4055
sa(dp4056
g10
V*5
p4057
sg12
(lp4058
Vrs4149056
p4059
asg28
VPA165819255
p4060
sg30
VNC_000012.11:g.[21331549T>C]
p4061
sg32
V1
p4062
sa(dp4063
g10
V*6
p4064
sg12
(lp4065
Vrs55901008
p4066
asg28
VPA165819256
p4067
sg30
VNC_000012.11:g.[21353529T>C]
p4068
sg32
V1
p4069
sa(dp4070
g10
V*7
p4071
sg12
(lp4072
Vrs56387224
p4073
asg28
VPA165819257
p4074
sg30
VNC_000012.11:g.[21355583A>G]
p4075
sg32
V1
p4076
sa(dp4077
g10
V*8
p4078
sg12
(lp4079
Vrs72559748
p4080
asg28
VPA165819258
p4081
sg30
VNC_000012.11:g.[21358855A>G]
p4082
sg32
V1
p4083
sa(dp4084
g10
V*9
p4085
sg12
(lp4086
Vrs59502379
p4087
asg28
VPA165819259
p4088
sg30
VNC_000012.11:g.[21358933G>C]
p4089
sg32
V1
p4090
sa(dp4091
g10
V*10
p4092
sg12
(lp4093
Vrs56199088
p4094
asg28
VPA165819260
p4095
sg30
VNC_000012.11:g.[21392011A>G]
p4096
sg32
V1
p4097
sa(dp4098
g10
V*11
p4099
sg12
(lp4100
Vrs55737008
p4101
asg28
VPA165819261
p4102
sg30
VNC_000012.11:g.[21392047A>G]
p4103
sg32
V1
p4104
sa(dp4105
g10
V*12
p4106
sg12
(lp4107
Vrs56101265
p4108
aVrs56199088
p4109
asg28
VPA165819262
p4110
sg30
VNC_000012.11:g.[21325716T>C;21392011A>G]
p4111
sg32
V1
p4112
sa(dp4113
g10
V*13
p4114
sg12
(lp4115
Vrs56061388
p4116
aVrs72559745
p4117
aVrs55737008
p4118
asg28
VPA165819263
p4119
sg30
VNC_000012.11:g.[21327529T>C;21329817A>G;21392047A>G]
p4120
sg32
V1
p4121
sa(dp4122
g10
V*14
p4123
sg12
(lp4124
Vrs2306283
p4125
aVrs11045819
p4126
asg28
VPA165819264
p4127
sg30
VNC_000012.11:g.[21329738A>G;21329813C>A]
p4128
sg32
V1
p4129
sa(dp4130
g10
V*15
p4131
sg12
(lp4132
Vrs2306283
p4133
aVrs4149056
p4134
asg28
VPA165819265
p4135
sg30
VNC_000012.11:g.[21329738A>G;21331549T>C]
p4136
sg32
V1
p4137
sa(dp4138
g10
V*17
p4139
sg12
(lp4140
Vrs4149015
p4141
aVrs2306283
p4142
aVrs4149056
p4143
asg28
VPA165819266
p4144
sg30
VNC_000012.11:g.[21283322G>A;21329738A>G;21331549T>C]
p4145
sg32
V1
p4146
sa(dp4147
g10
V*1
p4148
sg12
(lp4149
Vrs4149015
p4150
aVrs139257324
p4151
aVrs373327528
p4152
aVrs56101265
p4153
aVrs56061388
p4154
aVrs2306283
p4155
aVrs11045818
p4156
aVrs2306282
p4157
aVrs11045819
p4158
aVrs72559745
p4159
aVrs4149056
p4160
aVrs4149057
p4161
aVrs72559746
p4162
aVrs2291075
p4163
aVrs79135870
p4164
aVrs11045852
p4165
aVrs11045853
p4166
aVrs55901008
p4167
aVchr12:21355487 (hg19)
p4168
aVrs59113707
p4169
aVrs56387224
p4170
aVrs142965323
p4171
aVrs72559748
p4172
aVrs59502379
p4173
aVrs34671512
p4174
aVrs56199088
p4175
aVrs55737008
p4176
aVrs200995543
p4177
aVrs140790673
p4178
asg28
VPA165981641
p4179
sg30
VNC_000012.11:g.[=]
p4180
sg32
V1
p4181
sa(dp4182
g10
V*18
p4183
sg12
(lp4184
Vrs2306283
p4185
aVrs11045818
p4186
aVrs11045819
p4187
aVrs4149057
p4188
aVrs72559746
p4189
asg28
VPA165988674
p4190
sg30
VNC_000012.11:g.[21329738A>G;21329761G>A;21329813C>A;21331599T>C;21331606T>G]
p4191
sg32
V1
p4192
sa(dp4193
g10
V*19
p4194
sg12
(lp4195
Vrs4149057
p4196
aVrs34671512
p4197
asg28
VPA165988675
p4198
sg30
VNC_000012.11:g.[21331599T>C;21391976A>C]
p4199
sg32
V1
p4200
sa(dp4201
g10
V*20
p4202
sg12
(lp4203
Vrs2306283
p4204
aVrs2291075
p4205
aVrs34671512
p4206
asg28
VPA165988676
p4207
sg30
VNC_000012.11:g.[21329738A>G;21331625C>T;21391976A>C]
p4208
sg32
V1
p4209
sa(dp4210
g10
V*21
p4211
sg12
(lp4212
Vrs4149015
p4213
aVrs2306283
p4214
aVrs2291075
p4215
asg28
VPA165988677
p4216
sg30
VNC_000012.11:g.[21283322G>A;21329738A>G;21331625C>T]
p4217
sg32
V1
p4218
sa(dp4219
g10
V*1A
p4220
sg12
(lp4221
Vrs4149015
p4222
aVrs139257324
p4223
aVrs373327528
p4224
aVrs56101265
p4225
aVrs56061388
p4226
aVrs2306283
p4227
aVrs11045818
p4228
aVrs2306282
p4229
aVrs11045819
p4230
aVrs72559745
p4231
aVrs4149056
p4232
aVrs4149057
p4233
aVrs72559746
p4234
aVrs2291075
p4235
aVrs79135870
p4236
aVrs11045852
p4237
aVrs11045853
p4238
aVrs55901008
p4239
aVchr12:21355487 (hg19)
p4240
aVrs59113707
p4241
aVrs56387224
p4242
aVrs142965323
p4243
aVrs72559748
p4244
aVrs59502379
p4245
aVrs34671512
p4246
aVrs56199088
p4247
aVrs55737008
p4248
aVrs200995543
p4249
aVrs140790673
p4250
asg28
VPA166128239
p4251
sg30
VNC_000012.11:g.[=]
p4252
sg32
V1
p4253
sa(dp4254
g10
V*1B
p4255
sg12
(lp4256
Vrs2306283
p4257
asg28
VPA166128240
p4258
sg30
VNC_000012.11:g.[21329738A>G]
p4259
sg32
V1
p4260
sa(dp4261
g10
V*2
p4262
sg12
(lp4263
Vrs56101265
p4264
asg28
VPA166128242
p4265
sg30
VNC_000012.11:g.[21325716T>C]
p4266
sg32
V1
p4267
sa(dp4268
g10
V*3
p4269
sg12
(lp4270
Vrs56061388
p4271
aVrs72559745
p4272
asg28
VPA166128243
p4273
sg30
VNC_000012.11:g.[21327529T>C;21329817A>G]
p4274
sg32
V1
p4275
sa(dp4276
g10
V*4
p4277
sg12
(lp4278
Vrs11045819
p4279
asg28
VPA166128244
p4280
sg30
VNC_000012.11:g.[21329813C>A]
p4281
sg32
V1
p4282
sa(dp4283
g10
V*5
p4284
sg12
(lp4285
Vrs4149056
p4286
asg28
VPA166128245
p4287
sg30
VNC_000012.11:g.[21331549T>C]
p4288
sg32
V1
p4289
sa(dp4290
g10
V*6
p4291
sg12
(lp4292
Vrs55901008
p4293
asg28
VPA166128246
p4294
sg30
VNC_000012.11:g.[21353529T>C]
p4295
sg32
V1
p4296
sa(dp4297
g10
V*7
p4298
sg12
(lp4299
Vrs56387224
p4300
asg28
VPA166128247
p4301
sg30
VNC_000012.11:g.[21355583A>G]
p4302
sg32
V1
p4303
sa(dp4304
g10
V*8
p4305
sg12
(lp4306
Vrs72559748
p4307
asg28
VPA166128248
p4308
sg30
VNC_000012.11:g.[21358855A>G]
p4309
sg32
V1
p4310
sa(dp4311
g10
V*9
p4312
sg12
(lp4313
Vrs59502379
p4314
asg28
VPA166128249
p4315
sg30
VNC_000012.11:g.[21358933G>C]
p4316
sg32
V1
p4317
sa(dp4318
g10
V*10
p4319
sg12
(lp4320
Vrs56199088
p4321
asg28
VPA166128250
p4322
sg30
VNC_000012.11:g.[21392011A>G]
p4323
sg32
V1
p4324
sa(dp4325
g10
V*11
p4326
sg12
(lp4327
Vrs55737008
p4328
asg28
VPA166128251
p4329
sg30
VNC_000012.11:g.[21392047A>G]
p4330
sg32
V1
p4331
sa(dp4332
g10
V*12
p4333
sg12
(lp4334
Vrs56101265
p4335
aVrs56199088
p4336
asg28
VPA166128252
p4337
sg30
VNC_000012.11:g.[21325716T>C;21392011A>G]
p4338
sg32
V1
p4339
sa(dp4340
g10
V*13
p4341
sg12
(lp4342
Vrs56061388
p4343
aVrs72559745
p4344
aVrs55737008
p4345
asg28
VPA166128253
p4346
sg30
VNC_000012.11:g.[21327529T>C;21329817A>G;21392047A>G]
p4347
sg32
V1
p4348
sa(dp4349
g10
V*14
p4350
sg12
(lp4351
Vrs2306283
p4352
aVrs11045819
p4353
asg28
VPA166128254
p4354
sg30
VNC_000012.11:g.[21329738A>G;21329813C>A]
p4355
sg32
V1
p4356
sa(dp4357
g10
V*15
p4358
sg12
(lp4359
Vrs2306283
p4360
aVrs4149056
p4361
asg28
VPA166128255
p4362
sg30
VNC_000012.11:g.[21329738A>G;21331549T>C]
p4363
sg32
V1
p4364
sa(dp4365
g10
V*16
p4366
sg12
(lp4367
Vrs2306282
p4368
asg28
VPA166128256
p4369
sg30
VNC_000012.11:g.[21329802A>G]
p4370
sg32
V1
p4371
sa(dp4372
g10
V*17
p4373
sg12
(lp4374
Vrs4149015
p4375
aVrs2306283
p4376
aVrs4149056
p4377
asg28
VPA166128257
p4378
sg30
VNC_000012.11:g.[21283322G>A;21329738A>G;21331549T>C]
p4379
sg32
V1
p4380
sa(dp4381
g10
V*18
p4382
sg12
(lp4383
Vrs2306283
p4384
aVrs11045818
p4385
aVrs11045819
p4386
aVrs4149057
p4387
aVrs72559746
p4388
asg28
VPA166128258
p4389
sg30
VNC_000012.11:g.[21329738A>G;21329761G>A;21329813C>A;21331599T>C;21331606T>G]
p4390
sg32
V1
p4391
sa(dp4392
g10
V*19
p4393
sg12
(lp4394
Vrs4149057
p4395
aVrs34671512
p4396
asg28
VPA166128259
p4397
sg30
VNC_000012.11:g.[21331599T>C;21391976A>C]
p4398
sg32
V1
p4399
sa(dp4400
g10
V*20
p4401
sg12
(lp4402
Vrs2306283
p4403
aVrs2291075
p4404
aVrs34671512
p4405
asg28
VPA166128260
p4406
sg30
VNC_000012.11:g.[21329738A>G;21331625C>T;21391976A>C]
p4407
sg32
V1
p4408
sa(dp4409
g10
V*21
p4410
sg12
(lp4411
Vrs4149015
p4412
aVrs2306283
p4413
aVrs2291075
p4414
asg28
VPA166128261
p4415
sg30
VNC_000012.11:g.[21283322G>A;21329738A>G;21331625C>T]
p4416
sg32
V1
p4417
sa(dp4418
g10
V*22
p4419
sg12
(lp4420
Vrs34671512
p4421
asg28
VPA166128262
p4422
sg30
VNC_000012.11:g.[21391976A>C]
p4423
sg32
V1
p4424
sa(dp4425
g10
V*23
p4426
sg12
(lp4427
Vrs373327528
p4428
asg28
VPA166128263
p4429
sg30
VNC_000012.11:g.[21325710G>A]
p4430
sg32
V1
p4431
sa(dp4432
g10
V*24
p4433
sg12
(lp4434
Vrs2306283
p4435
aVrs11045852
p4436
asg28
VPA166128264
p4437
sg30
VNC_000012.11:g.[21329738A>G;21349885A>G]
p4438
sg32
V1
p4439
sa(dp4440
g10
V*25
p4441
sg12
(lp4442
Vrs2306283
p4443
aVrs11045819
p4444
aVrs11045852
p4445
aVrs11045853
p4446
asg28
VPA166128265
p4447
sg30
VNC_000012.11:g.[21329738A>G;21329813C>A;21349885A>G;21349910G>A]
p4448
sg32
V1
p4449
sa(dp4450
g10
V*26
p4451
sg12
(lp4452
Vrs142965323
p4453
asg28
VPA166128266
p4454
sg30
VNC_000012.11:g.[21355598G>A]
p4455
sg32
V1
p4456
sa(dp4457
g10
V*27
p4458
sg12
(lp4459
Vrs2306283
p4460
aVrs59113707
p4461
asg28
VPA166128267
p4462
sg30
VNC_000012.11:g.[21329738A>G;21355489C>G]
p4463
sg32
V1
p4464
sa(dp4465
g10
V*28
p4466
sg12
(lp4467
Vrs2306283
p4468
aVrs11045852
p4469
aVrs11045853
p4470
asg28
VPA166128268
p4471
sg30
VNC_000012.11:g.[21329738A>G;21349885A>G;21349910G>A]
p4472
sg32
V1
p4473
sa(dp4474
g10
V*29
p4475
sg12
(lp4476
Vrs2306283
p4477
aVrs140790673
p4478
asg28
VPA166128269
p4479
sg30
VNC_000012.11:g.[21329738A>G;21392092C>T]
p4480
sg32
V1
p4481
sa(dp4482
g10
V*30
p4483
sg12
(lp4484
Vrs2306283
p4485
aVrs79135870
p4486
asg28
VPA166128270
p4487
sg30
VNC_000012.11:g.[21329738A>G;21331891A>G]
p4488
sg32
V1
p4489
sa(dp4490
g10
V*31
p4491
sg12
(lp4492
Vrs2306283
p4493
aVrs59502379
p4494
asg28
VPA166128271
p4495
sg30
VNC_000012.11:g.[21329738A>G;21358933G>C]
p4496
sg32
V1
p4497
sa(dp4498
g10
V*32
p4499
sg12
(lp4500
Vrs2306283
p4501
aVrs11045819
p4502
aVrs11045852
p4503
asg28
VPA166128272
p4504
sg30
VNC_000012.11:g.[21329738A>G;21329813C>A;21349885A>G]
p4505
sg32
V1
p4506
sa(dp4507
g10
V*33
p4508
sg12
(lp4509
Vrs139257324
p4510
aVrs2306283
p4511
aVrs11045852
p4512
aVrs11045853
p4513
asg28
VPA166128273
p4514
sg30
VNC_000012.11:g.[21325668C>T;21329738A>G;21349885A>G;21349910G>A]
p4515
sg32
V1
p4516
sa(dp4517
g10
V*34
p4518
sg12
(lp4519
Vrs200995543
p4520
asg28
VPA166128274
p4521
sg30
VNC_000012.11:g.[21392079C>T]
p4522
sg32
V1
p4523
sa(dp4524
g10
V*35
p4525
sg12
(lp4526
Vrs2306283
p4527
aVrs34671512
p4528
asg28
VPA166128275
p4529
sg30
VNC_000012.11:g.[21329738A>G;21391976A>C]
p4530
sg32
V1
p4531
sa(dp4532
g10
V*36
p4533
sg12
(lp4534
Vchr12:21355487 (hg19)
p4535
asg28
VPA166128276
p4536
sg30
VNC_000012.11:g.[21355487T>G]
p4537
sg32
V1
p4538
sasg270
VSLCO1B1
p4539
sg28
VPA134865839
p4540
sa(dp4541
g2
(lp4542
sg7
(lp4543
(dp4544
g10
V*1
p4545
sg12
(lp4546
Vrs554405994
p4547
aVrs116855232
p4548
aVrs147390019
p4549
aVrs186364861
p4550
asg28
VPA166131619
p4551
sg30
VNC_000013.10:g.[=]
p4552
sg32
V1
p4553
sa(dp4554
g10
V*2
p4555
sg12
(lp4556
Vrs554405994
p4557
aVrs116855232
p4558
asg28
VPA166131620
p4559
sg30
VNC_000013.10:g.[48037782_48037787insGGAGTC;48619855C>T]
p4560
sg32
V1
p4561
sa(dp4562
g10
V*3
p4563
sg12
(lp4564
Vrs116855232
p4565
asg28
VPA166131621
p4566
sg30
VNC_000013.10:g.[48619855C>T]
p4567
sg32
V1
p4568
sa(dp4569
g10
V*4
p4570
sg12
(lp4571
Vrs147390019
p4572
asg28
VPA166131622
p4573
sg30
VNC_000013.10:g.[48619856G>A]
p4574
sg32
V1
p4575
sa(dp4576
g10
V*5
p4577
sg12
(lp4578
Vrs186364861
p4579
asg28
VPA166131623
p4580
sg30
VNC_000013.10:g.[48611934G>A]
p4581
sg32
V1
p4582
sa(dp4583
g10
V*6
p4584
sg12
(lp4585
Vrs554405994
p4586
asg28
VPA166151814
p4587
sg30
VNC_000013.10:g.[48037782_48037787insGGAGTC]
p4588
sg32
V1
p4589
sasg270
VNUDT15
p4590
sg28
VPA134963132
p4591
sa(dp4592
g2
(lp4593
VPA134687924
p4594
aVPA449053
p4595
aVPA449048
p4596
aVPA10074
p4597
aVPA449061
p4598
aVPA449690
p4599
aVPA450688
p4600
asg7
(lp4601
(dp4602
g10
V*1A
p4603
sg12
(lp4604
Vrs2069514
p4605
aVCYP1A2 -3954T>G
p4606
aVCYP1A2 -3113A>G
p4607
aVCYP1A2 -3053A>G
p4608
aVCYP1A2 -2808A>C
p4609
aVCYP1A2 -2667T>G
p4610
aVrs35694136
p4611
aVrs2069526
p4612
aVCYP1A2 -733G>C
p4613
aVrs12720461
p4614
aVCYP1A2 -367C>T
p4615
aVrs762551
p4616
aVrs56160784
p4617
aVrs72547511
p4618
aVrs138652540
p4619
aVrs72547512
p4620
aVrs72547513
p4621
aVCYP1A2 634A>T
p4622
aVCYP1A2 678C>T
p4623
aVrs17861157
p4624
aVrs35796837
p4625
aVCYP1A2 2025A>C
p4626
aVrs56276455
p4627
aVrs2472304
p4628
aVCYP1A2 2321G>C
p4629
aVrs72547515
p4630
aVrs72547516
p4631
aVrs149928755
p4632
aVCYP1A2 3468A>C
p4633
aVrs55889066
p4634
aVrs56107638
p4635
aVrs28399424
p4636
aVrs144148965
p4637
aVrs45486893
p4638
aVrs72547517
p4639
aVrs143193369
p4640
aVCYP1A2 5328G>A
p4641
aVrs2470890
p4642
aVCYP1A2 5521A>G
p4643
asg28
VPA165819171
p4644
sg30
VNC_000015.10:g.[=]
p4645
sg32
V1
p4646
sa(dp4647
g10
V*1B
p4648
sg12
(lp4649
Vrs2470890
p4650
asg28
VPA165819172
p4651
sg30
VNC_000015.10:g.[75047426T>C]
p4652
sg32
V1
p4653
sa(dp4654
g10
V*1C
p4655
sg12
(lp4656
Vrs2069514
p4657
asg28
VPA165819173
p4658
sg30
VNC_000015.10:g.[75038220G>A]
p4659
sg32
V1
p4660
sa(dp4661
g10
V*1D
p4662
sg12
(lp4663
Vrs35694136
p4664
asg28
VPA165819174
p4665
sg30
VNC_000015.10:g.[75039613_75039613delT]
p4666
sg32
V1
p4667
sa(dp4668
g10
V*1E
p4669
sg12
(lp4670
Vrs2069526
p4671
asg28
VPA165819175
p4672
sg30
VNC_000015.10:g.[75041341T>G]
p4673
sg32
V1
p4674
sa(dp4675
g10
V*1F
p4676
sg12
(lp4677
Vrs762551
p4678
asg28
VPA165819176
p4679
sg30
VNC_000015.10:g.[75041917C>A]
p4680
sg32
V1
p4681
sa(dp4682
g10
V*1G
p4683
sg12
(lp4684
Vrs2069526
p4685
aVrs2470890
p4686
asg28
VPA165819177
p4687
sg30
VNC_000015.10:g.[75041341T>G;75047426T>C]
p4688
sg32
V1
p4689
sa(dp4690
g10
V*1J
p4691
sg12
(lp4692
Vrs2069526
p4693
aVrs762551
p4694
asg28
VPA165819178
p4695
sg30
VNC_000015.10:g.[75041341T>G;75041917C>A]
p4696
sg32
V1
p4697
sa(dp4698
g10
V*1K
p4699
sg12
(lp4700
Vrs2069526
p4701
aVrs12720461
p4702
aVrs762551
p4703
asg28
VPA165819179
p4704
sg30
VNC_000015.10:g.[75041341T>G;75041351C>T;75041917C>A]
p4705
sg32
V1
p4706
sa(dp4707
g10
V*2
p4708
sg12
(lp4709
Vrs56160784
p4710
asg28
VPA165819180
p4711
sg30
VNC_000015.10:g.[75042142C>G]
p4712
sg32
V1
p4713
sa(dp4714
g10
V*3
p4715
sg12
(lp4716
Vrs56276455
p4717
aVrs2470890
p4718
asg28
VPA165819181
p4719
sg30
VNC_000015.10:g.[75044195G>A;75047426T>C]
p4720
sg32
V1
p4721
sa(dp4722
g10
V*4
p4723
sg12
(lp4724
Vrs72547516
p4725
asg28
VPA165819182
p4726
sg30
VNC_000015.10:g.[75044578A>T]
p4727
sg32
V1
p4728
sa(dp4729
g10
V*6
p4730
sg12
(lp4731
Vrs28399424
p4732
asg28
VPA165819183
p4733
sg30
VNC_000015.10:g.[75047169C>T]
p4734
sg32
V1
p4735
sa(dp4736
g10
V*7
p4737
sg12
(lp4738
Vrs56107638
p4739
asg28
VPA165819184
p4740
sg30
VNC_000015.10:g.[75045612G>A]
p4741
sg32
V1
p4742
sa(dp4743
g10
V*8
p4744
sg12
(lp4745
Vrs72547517
p4746
aVrs2470890
p4747
asg28
VPA165819185
p4748
sg30
VNC_000015.10:g.[75047245G>A;75047426T>C]
p4749
sg32
V1
p4750
sa(dp4751
g10
V*10
p4752
sg12
(lp4753
Vrs72547512
p4754
asg28
VPA165819186
p4755
sg30
VNC_000015.10:g.[75042581G>C]
p4756
sg32
V1
p4757
sa(dp4758
g10
V*11
p4759
sg12
(lp4760
Vrs72547513
p4761
asg28
VPA165819187
p4762
sg30
VNC_000015.10:g.[75042637C>A]
p4763
sg32
V1
p4764
sa(dp4765
g10
V*13
p4766
sg12
(lp4767
Vrs35796837
p4768
asg28
VPA165819188
p4769
sg30
VNC_000015.10:g.[75043593G>A]
p4770
sg32
V1
p4771
sa(dp4772
g10
V*14
p4773
sg12
(lp4774
Vrs45486893
p4775
asg28
VPA165819189
p4776
sg30
VNC_000015.10:g.[75047191C>T]
p4777
sg32
V1
p4778
sa(dp4779
g10
V*15
p4780
sg12
(lp4781
Vrs72547511
p4782
aVrs2470890
p4783
asg28
VPA165819190
p4784
sg30
VNC_000015.10:g.[75042204C>G;75047426T>C]
p4785
sg32
V1
p4786
sa(dp4787
g10
V*16
p4788
sg12
(lp4789
Vrs72547515
p4790
aVrs2470890
p4791
asg28
VPA165819191
p4792
sg30
VNC_000015.10:g.[75044552G>A;75047426T>C]
p4793
sg32
V1
p4794
sa(dp4795
g10
V*1H
p4796
sg12
(lp4797
VCYP1A2 2025A>C
p4798
aVrs2470890
p4799
asg28
VPA165819192
p4800
sg30
V2025A>C,NC_000015.10:g.[75047426T>C]
p4801
sg32
V1
p4802
sa(dp4803
g10
V*5
p4804
sg12
(lp4805
Vrs55889066
p4806
asg28
VPA165819193
p4807
sg30
VNC_000015.10:g.[75045575G>A]
p4808
sg32
V1
p4809
sa(dp4810
g10
V*9
p4811
sg12
(lp4812
Vrs138652540
p4813
asg28
VPA165819194
p4814
sg30
VNC_000015.10:g.[75042327C>T]
p4815
sg32
V1
p4816
sa(dp4817
g10
V*12
p4818
sg12
(lp4819
VCYP1A2 634A>T
p4820
asg28
VPA165819195
p4821
sg30
V634A>T
p4822
sg32
V1
p4823
sa(dp4824
g10
V*17
p4825
sg12
(lp4826
Vrs762551
p4827
aVrs2472304
p4828
aVrs149928755
p4829
aVrs2470890
p4830
asg28
VPA165819196
p4831
sg30
VNC_000015.10:g.[75041917C>A;75044238G>A;75045542C>T;75047426T>C]
p4832
sg32
V1
p4833
sa(dp4834
g10
V*18
p4835
sg12
(lp4836
VCYP1A2 3468A>C
p4837
aVrs2470890
p4838
asg28
VPA165819197
p4839
sg30
V3468A>C,NC_000015.10:g.[75047426T>C]
p4840
sg32
V1
p4841
sa(dp4842
g10
V*19
p4843
sg12
(lp4844
VCYP1A2 5328G>A
p4845
aVrs2470890
p4846
asg28
VPA165819198
p4847
sg30
V5328G>A,NC_000015.10:g.[75047426T>C]
p4848
sg32
V1
p4849
sa(dp4850
g10
V*20
p4851
sg12
(lp4852
Vrs144148965
p4853
aVrs2470890
p4854
asg28
VPA165819199
p4855
sg30
VNC_000015.10:g.[75047184G>A;75047426T>C]
p4856
sg32
V1
p4857
sa(dp4858
g10
V*21
p4859
sg12
(lp4860
Vrs762551
p4861
aVrs17861157
p4862
aVrs143193369
p4863
aVrs2470890
p4864
asg28
VPA165819200
p4865
sg30
VNC_000015.10:g.[75041917C>A;75043592C>A;75047363C>A;75047426T>C]
p4866
sg32
V1
p4867
sa(dp4868
g10
V*1L
p4869
sg12
(lp4870
Vrs2069514
p4871
aVrs35694136
p4872
aVrs762551
p4873
aVrs2470890
p4874
asg28
VPA165988094
p4875
sg30
VNC_000015.10:g.[75038220G>A;75039613_75039613delT;75041917C>A;75047426T>C]
p4876
sg32
V1
p4877
sa(dp4878
g10
V*1M
p4879
sg12
(lp4880
Vrs762551
p4881
aVrs2472304
p4882
asg28
VPA165988095
p4883
sg30
VNC_000015.10:g.[75041917C>A;75044238G>A]
p4884
sg32
V1
p4885
sa(dp4886
g10
V*1N
p4887
sg12
(lp4888
VCYP1A2 -3954T>G
p4889
aVrs35694136
p4890
aVrs762551
p4891
aVCYP1A2 2321G>C
p4892
aVrs2470890
p4893
aVCYP1A2 5521A>G
p4894
asg28
VPA165988096
p4895
sg30
V-3954T>G;2321G>C;5521A>G,NC_000015.10:g.[75039613_75039613delT;75041917C>A;75047426T>C]
p4896
sg32
V1
p4897
sa(dp4898
g10
V*1P
p4899
sg12
(lp4900
VCYP1A2 -3954T>G
p4901
aVrs35694136
p4902
aVCYP1A2 -733G>C
p4903
aVrs762551
p4904
aVCYP1A2 2321G>C
p4905
aVrs2470890
p4906
aVCYP1A2 5521A>G
p4907
asg28
VPA165988097
p4908
sg30
V-3954T>G;-733G>C;2321G>C;5521A>G,NC_000015.10:g.[75039613_75039613delT;75041917C>A;75047426T>C]
p4909
sg32
V1
p4910
sa(dp4911
g10
V*1Q
p4912
sg12
(lp4913
VCYP1A2 -2808A>C
p4914
aVrs762551
p4915
aVrs2472304
p4916
asg28
VPA165988098
p4917
sg30
V-2808A>C,NC_000015.10:g.[75041917C>A;75044238G>A]
p4918
sg32
V1
p4919
sa(dp4920
g10
V*1R
p4921
sg12
(lp4922
VCYP1A2 -3954T>G
p4923
aVrs35694136
p4924
aVCYP1A2 -367C>T
p4925
aVrs762551
p4926
aVCYP1A2 2321G>C
p4927
aVrs2470890
p4928
aVCYP1A2 5521A>G
p4929
asg28
VPA165988099
p4930
sg30
V-367C>T;-3954T>G;2321G>C;5521A>G,NC_000015.10:g.[75039613_75039613delT;75041917C>A;75047426T>C]
p4931
sg32
V1
p4932
sa(dp4933
g10
V*1S
p4934
sg12
(lp4935
VCYP1A2 -3053A>G
p4936
aVrs2470890
p4937
asg28
VPA165988100
p4938
sg30
V-3053A>G,NC_000015.10:g.[75047426T>C]
p4939
sg32
V1
p4940
sa(dp4941
g10
V*1T
p4942
sg12
(lp4943
VCYP1A2 -2667T>G
p4944
aVrs2470890
p4945
asg28
VPA165988101
p4946
sg30
V-2667T>G,NC_000015.10:g.[75047426T>C]
p4947
sg32
V1
p4948
sa(dp4949
g10
V*1U
p4950
sg12
(lp4951
VCYP1A2 678C>T
p4952
aVrs2470890
p4953
asg28
VPA165988102
p4954
sg30
V678C>T,NC_000015.10:g.[75047426T>C]
p4955
sg32
V1
p4956
sa(dp4957
g10
V*1V
p4958
sg12
(lp4959
Vrs35694136
p4960
aVrs762551
p4961
asg28
VPA165988103
p4962
sg30
VNC_000015.10:g.[75039613_75039613delT;75041917C>A]
p4963
sg32
V1
p4964
sa(dp4965
g10
V*1W
p4966
sg12
(lp4967
VCYP1A2 -3113A>G
p4968
aVrs35694136
p4969
aVrs2069526
p4970
aVrs762551
p4971
asg28
VPA165988104
p4972
sg30
V-3113A>G,NC_000015.10:g.[75039613_75039613delT;75041341T>G;75041917C>A]
p4973
sg32
V1
p4974
sasg270
VCYP1A2
p4975
sg28
VPA27093
p4976
sa(dp4977
g2
(lp4978
sg7
(lp4979
sg270
VFANCI
p4980
sg28
VPA162387928
p4981
sa(dp4982
g2
(lp4983
sg7
(lp4984
sg270
VPRSS53
p4985
sg28
VPA165450635
p4986
sa(dp4987
g2
(lp4988
sg7
(lp4989
sg270
VBCKDK
p4990
sg28
VPA134899581
p4991
sa(dp4992
g2
(lp4993
sg7
(lp4994
sg270
VSLC47A1
p4995
sg28
VPA162403808
p4996
sa(dp4997
g2
(lp4998
VPA166122590
p4999
aVPA165958354
p5000
aVPA164749390
p5001
aVPA166122593
p5002
aVPA165948902
p5003
aVPA164784024
p5004
aVPA451241
p5005
asg7
(lp5006
(dp5007
g10
Vrs12979860C
p5008
sg12
(lp5009
Vrs12979860
p5010
asg28
VPA166129427
p5011
sg30
VNC_000019.10:g.[=]
p5012
sg32
V1
p5013
sa(dp5014
g10
Vrs12979860T
p5015
sg12
(lp5016
Vrs12979860
p5017
asg28
VPA166129428
p5018
sg30
VNC_000019.10:g.[39738787C>T]
p5019
sg32
V1
p5020
sasg270
VIFNL3
p5021
sg28
VPA134952671
p5022
sa(dp5023
g2
(lp5024
VPA449053
p5025
aVPA449441
p5026
aVPA154410481
p5027
asg7
(lp5028
(dp5029
g10
V*1
p5030
sg12
(lp5031
Vrs4802101
p5032
aVrs34223104
p5033
aVrs34883432
p5034
aVrs8192709
p5035
aVrs33973337
p5036
aVrs33980385
p5037
aVrs33926104
p5038
aVrs34284776
p5039
aVrs35303484
p5040
aVrs281864907
p5041
aVrs2279341
p5042
aVrs36060847
p5043
aVrs186335453
p5044
aVrs2279342
p5045
aVrs139801276
p5046
aVrs12721655
p5047
aVrs35773040
p5048
aVrs145884402
p5049
aVrs4803418
p5050
aVrs4803419
p5051
aVrs3826711
p5052
aVrs36056539
p5053
aVrs3745274
p5054
aVrs36079186
p5055
aVrs35266616
p5056
aVrs45482602
p5057
aVrs2279343
p5058
aVrs2279344
p5059
aVrs12721649
p5060
aVrs139029625
p5061
aVrs34698757
p5062
aVrs35468935
p5063
aVrs35622401
p5064
aVrs28399499
p5065
aVrs34826503
p5066
aVrs34097093
p5067
aVrs35979566
p5068
aVrs35010098
p5069
aVrs8192719
p5070
aVrs3211369
p5071
aVrs3211371
p5072
aVCYP2B6 -2320T>C
p5073
aVCYP2B6 -1972C>T
p5074
aVCYP2B6 -1848C>A
p5075
aVCYP2B6 -1778A>G
p5076
aVCYP2B6 -1578C>T
p5077
aVCYP2B6 -1456T>C
p5078
aVCYP2B6 -1224A>G
p5079
aVCYP2B6 -1186C>G
p5080
aVCYP2B6 -757C>T
p5081
aVCYP2B6 -801G>T
p5082
aVCYP2B6 -591A>G
p5083
aVCYP2B6 12725G>A
p5084
aVCYP2B6 12788T>G
p5085
aVCYP2B6 13122G>A
p5086
aVCYP2B6 15663T>G
p5087
aVCYP2B6 17897C>T
p5088
aVCYP2B6 25473G>A
p5089
aVCYP2B6 25500A>T
p5090
aVCYP2B6 25505C>A
p5091
aVCYP2B6 CYP2B7/CYP2B6 hybrid (crossover in intron 4; partial deletion allele)**
p5092
aVCYP2B6 CYP2B6/CYP2B7 hybrid (crossover in intron 4; duplicated fusion allele)**
p5093
asg28
VPA165818750
p5094
sg30
VNC_000019.10:g.[=]
p5095
sg32
V1
p5096
sa(dp5097
g10
V*1A
p5098
sg12
(lp5099
sg28
VPA165818751
p5100
sg30
VNC_000019.10:g.[=]
p5101
sg32
V1
p5102
sa(dp5103
g10
V*1G
p5104
sg12
(lp5105
Vrs4802101
p5106
asg28
VPA165818752
p5107
sg30
VNC_000019.10:g.[41496461T>C]
p5108
sg32
V1
p5109
sa(dp5110
g10
V*2
p5111
sg12
(lp5112
Vrs8192709
p5113
asg28
VPA165818753
p5114
sg30
VNC_000019.10:g.[41497274C>T]
p5115
sg32
V1
p5116
sa(dp5117
g10
V*2A
p5118
sg12
(lp5119
Vrs8192709
p5120
asg28
VPA165818754
p5121
sg30
VNC_000019.10:g.[41497274C>T]
p5122
sg32
V1
p5123
sa(dp5124
g10
V*2B
p5125
sg12
(lp5126
Vrs8192709
p5127
aVrs2279341
p5128
asg28
VPA165818755
p5129
sg30
VNC_000019.10:g.[41497274C>T;41509950G>C]
p5130
sg32
V1
p5131
sa(dp5132
g10
V*3
p5133
sg12
(lp5134
Vrs45482602
p5135
asg28
VPA165818756
p5136
sg30
VNC_000019.10:g.[41515255C>A]
p5137
sg32
V1
p5138
sa(dp5139
g10
V*4
p5140
sg12
(lp5141
Vrs2279343
p5142
asg28
VPA165818757
p5143
sg30
VNC_000019.10:g.[41515263A>G]
p5144
sg32
V1
p5145
sa(dp5146
g10
V*4A
p5147
sg12
(lp5148
Vrs2279343
p5149
asg28
VPA165818758
p5150
sg30
VNC_000019.10:g.[41515263A>G]
p5151
sg32
V1
p5152
sa(dp5153
g10
V*4C
p5154
sg12
(lp5155
Vrs2279342
p5156
aVrs2279343
p5157
asg28
VPA165818759
p5158
sg30
VNC_000019.10:g.[41510127A>T;41515263A>G]
p5159
sg32
V1
p5160
sa(dp5161
g10
V*5
p5162
sg12
(lp5163
Vrs3211371
p5164
asg28
VPA165818760
p5165
sg30
VNC_000019.10:g.[41522715C>T]
p5166
sg32
V1
p5167
sa(dp5168
g10
V*5A
p5169
sg12
(lp5170
Vrs3211371
p5171
asg28
VPA165818761
p5172
sg30
VNC_000019.10:g.[41522715C>T]
p5173
sg32
V1
p5174
sa(dp5175
g10
V*6
p5176
sg12
(lp5177
Vrs3745274
p5178
aVrs2279343
p5179
asg28
VPA165818762
p5180
sg30
VNC_000019.10:g.[41512841G>T;41515263A>G]
p5181
sg32
V1
p5182
sa(dp5183
g10
V*6A
p5184
sg12
(lp5185
Vrs3745274
p5186
aVrs2279343
p5187
asg28
VPA165818763
p5188
sg30
VNC_000019.10:g.[41512841G>T;41515263A>G]
p5189
sg32
V1
p5190
sa(dp5191
g10
V*6C
p5192
sg12
(lp5193
Vrs4802101
p5194
aVrs3745274
p5195
aVrs2279343
p5196
asg28
VPA165818764
p5197
sg30
VNC_000019.10:g.[41496461T>C;41512841G>T;41515263A>G]
p5198
sg32
V1
p5199
sa(dp5200
g10
V*7
p5201
sg12
(lp5202
Vrs3745274
p5203
aVrs2279343
p5204
aVrs3211371
p5205
asg28
VPA165818765
p5206
sg30
VNC_000019.10:g.[41512841G>T;41515263A>G;41522715C>T]
p5207
sg32
V1
p5208
sa(dp5209
g10
V*7A
p5210
sg12
(lp5211
Vrs3745274
p5212
aVrs2279343
p5213
aVrs3211371
p5214
asg28
VPA165818766
p5215
sg30
VNC_000019.10:g.[41512841G>T;41515263A>G;41522715C>T]
p5216
sg32
V1
p5217
sa(dp5218
g10
V*8
p5219
sg12
(lp5220
Vrs12721655
p5221
asg28
VPA165818767
p5222
sg30
VNC_000019.10:g.[41510282A>G]
p5223
sg32
V1
p5224
sa(dp5225
g10
V*10
p5226
sg12
(lp5227
Vrs34883432
p5228
aVrs8192709
p5229
aVrs2279341
p5230
asg28
VPA165818768
p5231
sg30
VNC_000019.10:g.[41497272A>T;41497274C>T;41509950G>C]
p5232
sg32
V1
p5233
sa(dp5234
g10
V*11A
p5235
sg12
(lp5236
Vrs35303484
p5237
asg28
VPA165818770
p5238
sg30
VNC_000019.10:g.[41497346A>G]
p5239
sg32
V1
p5240
sa(dp5241
g10
V*11B
p5242
sg12
(lp5243
Vrs35303484
p5244
aVrs2279344
p5245
asg28
VPA165818771
p5246
sg30
VNC_000019.10:g.[41497346A>G;41515483G>A]
p5247
sg32
V1
p5248
sa(dp5249
g10
V*12
p5250
sg12
(lp5251
Vrs36060847
p5252
aVrs2279344
p5253
asg28
VPA165818772
p5254
sg30
VNC_000019.10:g.[41510030G>A;41515483G>A]
p5255
sg32
V1
p5256
sa(dp5257
g10
V*13
p5258
sg12
(lp5259
Vrs12721655
p5260
aVrs3745274
p5261
aVrs2279343
p5262
aVrs2279344
p5263
aVrs8192719
p5264
asg28
VPA165818773
p5265
sg30
VNC_000019.10:g.[41510282A>G;41512841G>T;41515263A>G;41515483G>A;41518773C>T]
p5266
sg32
V1
p5267
sa(dp5268
g10
V*13A
p5269
sg12
(lp5270
Vrs12721655
p5271
aVrs3745274
p5272
aVrs2279343
p5273
aVrs2279344
p5274
aVrs8192719
p5275
asg28
VPA165818774
p5276
sg30
VNC_000019.10:g.[41510282A>G;41512841G>T;41515263A>G;41515483G>A;41518773C>T]
p5277
sg32
V1
p5278
sa(dp5279
g10
V*13B
p5280
sg12
(lp5281
Vrs12721655
p5282
aVrs4803419
p5283
aVrs3745274
p5284
aVrs2279343
p5285
aVrs2279344
p5286
aVrs8192719
p5287
asg28
VPA165818775
p5288
sg30
VNC_000019.10:g.[41510282A>G;41512792C>T;41512841G>T;41515263A>G;41515483G>A;41518773C>T]
p5289
sg32
V1
p5290
sa(dp5291
g10
V*14
p5292
sg12
(lp5293
Vrs35773040
p5294
aVrs2279344
p5295
asg28
VPA165818776
p5296
sg30
VNC_000019.10:g.[41510286G>A;41515483G>A]
p5297
sg32
V1
p5298
sa(dp5299
g10
V*15
p5300
sg12
(lp5301
Vrs4803419
p5302
aVrs35979566
p5303
asg28
VPA165818777
p5304
sg30
VNC_000019.10:g.[41512792C>T;41518598T>A]
p5305
sg32
V1
p5306
sa(dp5307
g10
V*15A
p5308
sg12
(lp5309
Vrs4803419
p5310
aVrs35979566
p5311
asg28
VPA165818778
p5312
sg30
VNC_000019.10:g.[41512792C>T;41518598T>A]
p5313
sg32
V1
p5314
sa(dp5315
g10
V*15B
p5316
sg12
(lp5317
Vrs4803419
p5318
aVrs2279344
p5319
aVrs35979566
p5320
asg28
VPA165818779
p5321
sg30
VNC_000019.10:g.[41512792C>T;41515483G>A;41518598T>A]
p5322
sg32
V1
p5323
sa(dp5324
g10
V*16
p5325
sg12
(lp5326
Vrs2279343
p5327
aVrs28399499
p5328
asg28
VPA165818780
p5329
sg30
VNC_000019.10:g.[41515263A>G;41518221T>C]
p5330
sg32
V1
p5331
sa(dp5332
g10
V*17
p5333
sg12
(lp5334
Vrs33973337
p5335
aVrs33980385
p5336
aVrs33926104
p5337
aVrs34284776
p5338
aVrs2279344
p5339
asg28
VPA165818781
p5340
sg30
VNC_000019.10:g.[41497286A>T;41497293A>G;41497295C>A;41497296G>C;41515483G>A]
p5341
sg32
V1
p5342
sa(dp5343
g10
V*17A
p5344
sg12
(lp5345
Vrs33973337
p5346
aVrs33980385
p5347
aVrs33926104
p5348
aVrs34284776
p5349
aVrs2279344
p5350
aVrs35468935
p5351
asg28
VPA165818782
p5352
sg30
VNC_000019.10:g.[41497286A>T;41497293A>G;41497295C>A;41497296G>C;41515483G>A;41516009C>T]
p5353
sg32
V1
p5354
sa(dp5355
g10
V*17B
p5356
sg12
(lp5357
Vrs33973337
p5358
aVrs33980385
p5359
aVrs33926104
p5360
aVrs34284776
p5361
aVrs2279344
p5362
asg28
VPA165818783
p5363
sg30
VNC_000019.10:g.[41497286A>T;41497293A>G;41497295C>A;41497296G>C;41515483G>A]
p5364
sg32
V1
p5365
sa(dp5366
g10
V*19
p5367
sg12
(lp5368
Vrs3745274
p5369
aVrs2279343
p5370
aVrs2279344
p5371
aVrs34826503
p5372
aVrs8192719
p5373
asg28
VPA165818784
p5374
sg30
VNC_000019.10:g.[41512841G>T;41515263A>G;41515483G>A;41518244C>T;41518773C>T]
p5375
sg32
V1
p5376
sa(dp5377
g10
V*20
p5378
sg12
(lp5379
Vrs36056539
p5380
aVrs3745274
p5381
aVrs2279343
p5382
aVrs2279344
p5383
asg28
VPA165818785
p5384
sg30
VNC_000019.10:g.[41512828C>T;41512841G>T;41515263A>G;41515483G>A]
p5385
sg32
V1
p5386
sa(dp5387
g10
V*21
p5388
sg12
(lp5389
Vrs2279344
p5390
aVrs35010098
p5391
asg28
VPA165818786
p5392
sg30
VNC_000019.10:g.[41515483G>A;41518708C>A]
p5393
sg32
V1
p5394
sa(dp5395
g10
V*23
p5396
sg12
(lp5397
Vrs3211369
p5398
asg28
VPA165818787
p5399
sg30
VNC_000019.10:g.[41522631A>G]
p5400
sg32
V1
p5401
sa(dp5402
g10
V*26
p5403
sg12
(lp5404
Vrs3826711
p5405
aVrs3745274
p5406
aVrs2279343
p5407
asg28
VPA165818788
p5408
sg30
VNC_000019.10:g.[41512824C>G;41512841G>T;41515263A>G]
p5409
sg32
V1
p5410
sa(dp5411
g10
V*27
p5412
sg12
(lp5413
Vrs36079186
p5414
aVrs2279344
p5415
asg28
VPA165818789
p5416
sg30
VNC_000019.10:g.[41512918T>C;41515483G>A]
p5417
sg32
V1
p5418
sa(dp5419
g10
V*1B
p5420
sg12
(lp5421
VCYP2B6 -2320T>C
p5422
asg28
VPA165818790
p5423
sg30
V-2320T>C
p5424
sg32
V1
p5425
sa(dp5426
g10
V*1C
p5427
sg12
(lp5428
Vrs4803418
p5429
aVrs4803419
p5430
aVCYP2B6 -2320T>C
p5431
asg28
VPA165818791
p5432
sg30
V-2320T>C,NC_000019.10:g.[41511803C>G;41512792C>T]
p5433
sg32
V1
p5434
sa(dp5435
g10
V*1D
p5436
sg12
(lp5437
Vrs2279342
p5438
aVCYP2B6 -1778A>G
p5439
aVCYP2B6 -1186C>G
p5440
asg28
VPA165818792
p5441
sg30
V-1186C>G;-1778A>G,NC_000019.10:g.[41510127A>T]
p5442
sg32
V1
p5443
sa(dp5444
g10
V*1E
p5445
sg12
(lp5446
VCYP2B6 -1578C>T
p5447
aVCYP2B6 -757C>T
p5448
asg28
VPA165818793
p5449
sg30
V-1578C>T;-757C>T
p5450
sg32
V1
p5451
sa(dp5452
g10
V*1F
p5453
sg12
(lp5454
VCYP2B6 -1224A>G
p5455
asg28
VPA165818794
p5456
sg30
V-1224A>G
p5457
sg32
V1
p5458
sa(dp5459
g10
V*1H
p5460
sg12
(lp5461
Vrs4802101
p5462
aVCYP2B6 -2320T>C
p5463
asg28
VPA165818795
p5464
sg30
V-2320T>C,NC_000019.10:g.[41496461T>C]
p5465
sg32
V1
p5466
sa(dp5467
g10
V*1J
p5468
sg12
(lp5469
Vrs4802101
p5470
aVCYP2B6 -2320T>C
p5471
aVCYP2B6 -1778A>G
p5472
aVCYP2B6 -1186C>G
p5473
asg28
VPA165818796
p5474
sg30
V-1186C>G;-1778A>G;-2320T>C,NC_000019.10:g.[41496461T>C]
p5475
sg32
V1
p5476
sa(dp5477
g10
V*1K
p5478
sg12
(lp5479
Vrs4802101
p5480
aVCYP2B6 -1972C>T
p5481
aVCYP2B6 -1578C>T
p5482
asg28
VPA165818797
p5483
sg30
V-1578C>T;-1972C>T,NC_000019.10:g.[41496461T>C]
p5484
sg32
V1
p5485
sa(dp5486
g10
V*1L
p5487
sg12
(lp5488
Vrs4802101
p5489
aVCYP2B6 -1578C>T
p5490
asg28
VPA165818798
p5491
sg30
V-1578C>T,NC_000019.10:g.[41496461T>C]
p5492
sg32
V1
p5493
sa(dp5494
g10
V*1M
p5495
sg12
(lp5496
VCYP2B6 -1578C>T
p5497
asg28
VPA165818799
p5498
sg30
V-1578C>T
p5499
sg32
V1
p5500
sa(dp5501
g10
V*1N
p5502
sg12
(lp5503
Vrs4802101
p5504
aVCYP2B6 -1456T>C
p5505
asg28
VPA165818800
p5506
sg30
V-1456T>C,NC_000019.10:g.[41496461T>C]
p5507
sg32
V1
p5508
sa(dp5509
g10
V*4B
p5510
sg12
(lp5511
Vrs4802101
p5512
aVrs2279343
p5513
aVCYP2B6 -2320T>C
p5514
aVCYP2B6 -1778A>G
p5515
aVCYP2B6 -1186C>G
p5516
asg28
VPA165818801
p5517
sg30
V-1186C>G;-1778A>G;-2320T>C,NC_000019.10:g.[41496461T>C;41515263A>G]
p5518
sg32
V1
p5519
sa(dp5520
g10
V*4D
p5521
sg12
(lp5522
Vrs4802101
p5523
aVrs2279343
p5524
aVCYP2B6 -1456T>C
p5525
asg28
VPA165818802
p5526
sg30
V-1456T>C,NC_000019.10:g.[41496461T>C;41515263A>G]
p5527
sg32
V1
p5528
sa(dp5529
g10
V*5B
p5530
sg12
(lp5531
Vrs4802101
p5532
aVrs3211371
p5533
aVCYP2B6 -2320T>C
p5534
asg28
VPA165818803
p5535
sg30
V-2320T>C,NC_000019.10:g.[41496461T>C;41522715C>T]
p5536
sg32
V1
p5537
sa(dp5538
g10
V*5C
p5539
sg12
(lp5540
Vrs3211371
p5541
aVCYP2B6 -591A>G
p5542
asg28
VPA165818804
p5543
sg30
V-591A>G,NC_000019.10:g.[41522715C>T]
p5544
sg32
V1
p5545
sa(dp5546
g10
V*6B
p5547
sg12
(lp5548
Vrs4802101
p5549
aVrs3745274
p5550
aVrs2279343
p5551
aVCYP2B6 -1456T>C
p5552
asg28
VPA165818805
p5553
sg30
V-1456T>C,NC_000019.10:g.[41496461T>C;41512841G>T;41515263A>G]
p5554
sg32
V1
p5555
sa(dp5556
g10
V*7B
p5557
sg12
(lp5558
Vrs4802101
p5559
aVrs3745274
p5560
aVrs2279343
p5561
aVrs3211371
p5562
aVCYP2B6 -1456T>C
p5563
asg28
VPA165818806
p5564
sg30
V-1456T>C,NC_000019.10:g.[41496461T>C;41512841G>T;41515263A>G;41522715C>T]
p5565
sg32
V1
p5566
sa(dp5567
g10
V*9
p5568
sg12
(lp5569
Vrs3745274
p5570
aVrs8192719
p5571
aVCYP2B6 -1456T>C
p5572
asg28
VPA165818807
p5573
sg30
V-1456T>C,NC_000019.10:g.[41512841G>T;41518773C>T]
p5574
sg32
V1
p5575
sa(dp5576
g10
V*18
p5577
sg12
(lp5578
Vrs2279344
p5579
aVrs12721649
p5580
aVrs28399499
p5581
aVCYP2B6 17897C>T
p5582
asg28
VPA165818808
p5583
sg30
V17897C>T,NC_000019.10:g.[41515483G>A;41515837G>A;41518221T>C]
p5584
sg32
V1
p5585
sa(dp5586
g10
V*22
p5587
sg12
(lp5588
Vrs4802101
p5589
aVrs34223104
p5590
aVCYP2B6 -1848C>A
p5591
aVCYP2B6 -801G>T
p5592
asg28
VPA165818809
p5593
sg30
V-1848C>A;-801G>T,NC_000019.10:g.[41496461T>C;41497129T>C]
p5594
sg32
V1
p5595
sa(dp5596
g10
V*24
p5597
sg12
(lp5598
VCYP2B6 25473G>A
p5599
asg28
VPA165818810
p5600
sg30
V25473G>A
p5601
sg32
V1
p5602
sa(dp5603
g10
V*25
p5604
sg12
(lp5605
VCYP2B6 25500A>T
p5606
asg28
VPA165818811
p5607
sg30
V25500A>T
p5608
sg32
V1
p5609
sa(dp5610
g10
V*28
p5611
sg12
(lp5612
Vrs4802101
p5613
aVrs35266616
p5614
aVrs2279344
p5615
aVrs12721649
p5616
aVrs34698757
p5617
aVrs35622401
p5618
aVrs34097093
p5619
aVCYP2B6 -1456T>C
p5620
asg28
VPA165818812
p5621
sg30
V-1456T>C,NC_000019.10:g.[41496461T>C;41513047C>T;41515483G>A;41515837G>A;41515993C>G;41516122G>C;41518370C>T]
p5622
sg32
V1
p5623
sa(dp5624
g10
V*29
p5625
sg12
(lp5626
VCYP2B6 CYP2B7/CYP2B6 hybrid (crossover in intron 4; partial deletion allele)**
p5627
asg28
VPA165818813
p5628
sg30
VCYP2B7/CYP2B6 hybrid (crossover in intron 4; partial deletion allele)**
p5629
sg32
V1
p5630
sa(dp5631
g10
V*30
p5632
sg12
(lp5633
VCYP2B6 CYP2B6/CYP2B7 hybrid (crossover in intron 4; duplicated fusion allele)**
p5634
asg28
VPA166117272
p5635
sg30
VCYP2B6/CYP2B7 hybrid (crossover in intron 4; duplicated fusion allele)**
p5636
sg32
V1
p5637
sa(dp5638
g10
V*33
p5639
sg12
(lp5640
VCYP2B6 25505C>A
p5641
asg28
VPA166117273
p5642
sg30
V25505C>A
p5643
sg32
V1
p5644
sa(dp5645
g10
V*34
p5646
sg12
(lp5647
Vrs34223104
p5648
aVrs3745274
p5649
aVrs2279343
p5650
aVCYP2B6 25505C>A
p5651
asg28
VPA166117274
p5652
sg30
V25505C>A,NC_000019.10:g.[41497129T>C;41512841G>T;41515263A>G]
p5653
sg32
V1
p5654
sa(dp5655
g10
V*35
p5656
sg12
(lp5657
Vrs34223104
p5658
aVrs186335453
p5659
aVrs139801276
p5660
aVrs145884402
p5661
aVrs36079186
p5662
aVrs139029625
p5663
aVCYP2B6 12725G>A
p5664
aVCYP2B6 12788T>G
p5665
aVCYP2B6 13122G>A
p5666
asg28
VPA166117275
p5667
sg30
V12725G>A;12788T>G;13122G>A,NC_000019.10:g.[41497129T>C;41510063G>T;41510208T>C;41510311G>T;41512918T>C;41515911G>C]
p5668
sg32
V1
p5669
sa(dp5670
g10
V*36
p5671
sg12
(lp5672
Vrs34223104
p5673
aVrs3745274
p5674
aVrs2279343
p5675
asg28
VPA166117276
p5676
sg30
VNC_000019.10:g.[41497129T>C;41512841G>T;41515263A>G]
p5677
sg32
V1
p5678
sa(dp5679
g10
V*37
p5680
sg12
(lp5681
Vrs3745274
p5682
aVrs2279343
p5683
aVCYP2B6 15663T>G
p5684
asg28
VPA166117277
p5685
sg30
V15663T>G,NC_000019.10:g.[41512841G>T;41515263A>G]
p5686
sg32
V1
p5687
sa(dp5688
g10
V*38
p5689
sg12
(lp5690
Vrs281864907
p5691
aVrs3745274
p5692
aVrs2279343
p5693
aVrs2279344
p5694
aVrs8192719
p5695
asg28
VPA166117278
p5696
sg30
VNC_000019.10:g.[41509920T>A;41512841G>T;41515263A>G;41515483G>A;41518773C>T]
p5697
sg32
V1
p5698
sasg270
VCYP2B6
p5699
sg28
VPA123
p5700
sa(dp5701
g2
(lp5702
sg7
(lp5703
sg270
VCYP2A7P1
p5704
sg28
VPA27103
p5705
sa(dp5706
g2
(lp5707
sg7
(lp5708
(dp5709
g10
VHaplotype high activity
p5710
sg12
(lp5711
Vrs6269
p5712
aVrs4633
p5713
aVrs4818
p5714
aVrs4680
p5715
asg28
VPA165947990
p5716
sg30
VNC_000022.10:g.[19949952A>G;19951207C>G]
p5717
sg32
V1
p5718
sa(dp5719
g10
VHaplotype intermediate activity
p5720
sg12
(lp5721
Vrs6269
p5722
aVrs4633
p5723
aVrs4818
p5724
aVrs4680
p5725
asg28
VPA165947991
p5726
sg30
VNC_000022.10:g.[19950235C>T;19951271G>A]
p5727
sg32
V1
p5728
sa(dp5729
g10
VHaplotype low activity
p5730
sg12
(lp5731
Vrs6269
p5732
aVrs4633
p5733
aVrs4818
p5734
aVrs4680
p5735
asg28
VPA165947992
p5736
sg30
VNC_000022.10:g.[=]
p5737
sg32
V1
p5738
sasg270
VCOMT
p5739
sg28
VPA117
p5740
sa(dp5741
g2
(lp5742
sg7
(lp5743
sg270
VWBP2NL
p5744
sg28
VPA145147710
p5745
sa(dp5746
g2
(lp5747
VPA448817
p5748
aVPA449969
p5749
aVPA161199368
p5750
aVPA448871
p5751
aVPA165958376
p5752
aVPA449841
p5753
aVPA450882
p5754
aVPA166122595
p5755
aVPA451690
p5756
aVPA451145
p5757
aVPA164746757
p5758
aVPA451866
p5759
aVPA449273
p5760
aVPA449673
p5761
aVPA10804
p5762
aVPA10074
p5763
aVPA448385
p5764
aVPA449690
p5765
aVPA10066
p5766
aVPA10026
p5767
aVPA450657
p5768
aVPA134688071
p5769
aVPA450522
p5770
aVPA450965
p5771
aVPA451791
p5772
aVPA451666
p5773
aVPA449726
p5774
aVPA448015
p5775
aVPA449048
p5776
aVPA450801
p5777
aVPA451581
p5778
aVPA451257
p5779
aVPA449233
p5780
aVPA449015
p5781
aVPA452629
p5782
aVPA449088
p5783
aVPA131301952
p5784
aVPA451735
p5785
aVPA450741
p5786
aVPA450480
p5787
aVPA451131
p5788
aVPA450688
p5789
aVPA449646
p5790
aVPA449409
p5791
aVPA140222719
p5792
aVPA449061
p5793
asg7
(lp5794
(dp5795
g10
V*5
p5796
sg12
(lp5797
Vrs1080983
p5798
aVrs58188898
p5799
aVrs267608286
p5800
aVrs1080985
p5801
aVrs76210340
p5802
aVrs28588594
p5803
aVrs59099247
p5804
aVchr22:42132048 (hg19)
p5805
aVchr22:42132048 (hg19)
p5806
aVchr22:42132048 (hg19)
p5807
aVrs28735595
p5808
aVrs267608271
p5809
aVchr22:42131884 (hg19)
p5810
aVrs59360719
p5811
aVrs1080989
p5812
aVrs1080990
p5813
aVchr22:42131540 (hg19)
p5814
aVrs28624811
p5815
aVrs534009571
p5816
aVrs28633410
p5817
aVchr22:42131420 (hg19)
p5818
aVchr22:42131222 (hg19)
p5819
aVchr22:42131145 (hg19)
p5820
aVchr22:42131125 (hg19)
p5821
aVchr22:42131122 (hg19)
p5822
aVchr22:42131119 (hg19)
p5823
aVchr22:42131118 (hg19)
p5824
aVchr22:42131112 (hg19)
p5825
aVchr22:42131111 (hg19)
p5826
aVchr22:42131067 (hg19)
p5827
aVchr22:42131066 (hg19)
p5828
aVchr22:42131063 (hg19)
p5829
aVchr22:42131059 (hg19)
p5830
aVchr22:42131058 (hg19)
p5831
aVchr22:42131023 (hg19)
p5832
aVchr22:42131016 (hg19)
p5833
aVrs1080993
p5834
aVrs773790593
p5835
aVrs148382141
p5836
aVrs72549358
p5837
aVrs769258
p5838
aVrs267608313
p5839
aVrs28371696
p5840
aVrs138100349
p5841
aVrs1065852
p5842
aVrs151226748
p5843
aVrs5030862
p5844
aVrs118203758
p5845
aVrs774671100
p5846
aVrs1080995
p5847
aVrs1080996
p5848
aVrs74644586
p5849
aVrs76312385
p5850
aVrs75276289
p5851
aVrs28695233
p5852
aVrs1081000
p5853
aVrs28371699
p5854
aVrs575159870
p5855
aVrs28371701
p5856
aVrs28371702
p5857
aVrs201377835
p5858
aVrs267608311
p5859
aVrs267608310
p5860
aVrs267608309
p5861
aVrs28371703
p5862
aVrs28371704
p5863
aVrs28371705
p5864
aVrs267608308
p5865
aVrs76187628
p5866
aVrs74802369
p5867
aVrs28371706
p5868
aVrs78459009
p5869
aVrs1135821
p5870
aVrs1081003
p5871
aVrs267608289
p5872
aVrs267608306
p5873
aVrs67497403
p5874
aVrs267608305
p5875
aVrs374616348
p5876
aVrs1135822
p5877
aVrs1135823
p5878
aVrs61736512
p5879
aVrs1058164
p5880
aVrs375135093
p5881
aVrs569229126
p5882
aVrs78482768
p5883
aVrs5030655
p5884
aVrs28371710
p5885
aVrs267608302
p5886
aVchr22:42129071 (hg19)
p5887
aVrs74962936
p5888
aVchr22:42129056 (hg19)
p5889
aVrs1135824
p5890
aVrs199849357
p5891
aVrs5030865
p5892
aVrs3892097
p5893
aVrs370249680
p5894
aVrs553846709
p5895
aVrs111606937
p5896
aVchr22:42128903 (hg19)
p5897
aVrs745365204
p5898
aVrs72549354
p5899
aVrs139779104
p5900
aVrs150163869
p5901
aVrs199535154
p5902
aVchr22:42128796 (hg19)
p5903
aVrs2267447
p5904
aVrs267608290
p5905
aVrs267608300
p5906
aVrs79738337
p5907
aVrs188062577
p5908
aVrs17002852
p5909
aVrs267608298
p5910
aVrs28371717
p5911
aVrs376326826
p5912
aVrs758320086
p5913
aVrs35742686
p5914
aVrs267608297
p5915
aVchr22:42128217 (hg19)
p5916
aVrs148769737
p5917
aVrs28371718
p5918
aVrs369762769
p5919
aVrs367543000
p5920
aVrs72549351
p5921
aVrs77913725
p5922
aVrs1135828
p5923
aVrs5030656
p5924
aVrs76015180
p5925
aVrs267608279
p5926
aVrs16947
p5927
aVchr22:42127938 (hg19)
p5928
aVrs730882170
p5929
aVrs5030867
p5930
aVrs140513104
p5931
aVrs79292917
p5932
aVrs72549349
p5933
aVrs28371725
p5934
aVrs267608291
p5935
aVrs72549348
p5936
aVrs748712690
p5937
aVrs59421388
p5938
aVrs267608295
p5939
aVrs147960066
p5940
aVrs61736517
p5941
aVrs202102799
p5942
aVrs28371726
p5943
aVrs72549346
p5944
aVchr22:42127523 (hg19)
p5945
aVrs267608293
p5946
aVrs150552908
p5947
aVrs75386357
p5948
aVrs77312092
p5949
aVrs1985842
p5950
aVrs28371729
p5951
aVrs267608292
p5952
aVrs2004511
p5953
aVrs28371730
p5954
aVrs267608322
p5955
aVrs4987144
p5956
aVrs28371732
p5957
aVchr22:42126956 (hg19)
p5958
aVrs769157652
p5959
aVrs149157808
p5960
aVchr22:42126914 (hg19)
p5961
aVchr22:42126904 (hg19)
p5962
aVrs763964554
p5963
aVrs267608319
p5964
aVrs730882171
p5965
aVrs532668079
p5966
aVchr22:42126697 (hg19)
p5967
aVchr22:42126681 (hg19)
p5968
aVrs150445731
p5969
aVrs199767157
p5970
aVchr22:42126663 (hg19)
p5971
aVchr22:42126660 (hg19)
p5972
aVchr22:42126658 (hg19)
p5973
aVchr22:42126636 (hg19)
p5974
aVchr22:42126635 (hg19)
p5975
aVrs370146597
p5976
aVchr22:42126627 (hg19)
p5977
aVchr22:42126625 (hg19)
p5978
aVchr22:42126624 (hg19)
p5979
aVchr22:42126623 (hg19)
p5980
aVchr22:42126622 (hg19)
p5981
aVchr22:42126619 (hg19)
p5982
aVchr22:42126658 (hg19)
p5983
aVchr22:42126634 (hg19)
p5984
aVrs1135840
p5985
aVrs28371738
p5986
aVrs12169962
p5987
aVrs372465406
p5988
aVCYP2D6 EU098008.1; GQ162807.1; HM641839.1; HM641840.1; GQ162808.1; EU098009.1; EU093102.1; JN618990.1; HQ670229.1; GQ162806.1
p5989
aVCYP2D6 EU530607.1
p5990
aVCYP2D6 EU530608.1
p5991
aVCYP2D6 JF307779.1
p5992
asg28
VPA165948092
p5993
sg30
VNC_000022.10:g.[0]
p5994
sg32
V0
p5995
sa(dp5996
g10
V*9
p5997
sg12
(lp5998
Vrs5030656
p5999
asg28
VPA165948317
p6000
sg30
VNC_000022.10:g.[42524176_42524178delCTT]
p6001
sg32
V1
p6002
sa(dp6003
g10
V*29
p6004
sg12
(lp6005
Vrs61736512
p6006
aVrs1058164
p6007
aVrs16947
p6008
aVrs59421388
p6009
aVrs1135840
p6010
asg28
VPA165948318
p6011
sg30
VNC_000022.10:g.[42522613C>G;42523610C>T;42523943G>A;42525132C>G;42525134C>T]
p6012
sg32
V1
p6013
sa(dp6014
g10
V*1
p6015
sg12
(lp6016
Vrs1080983
p6017
aVrs58188898
p6018
aVrs267608286
p6019
aVrs1080985
p6020
aVrs76210340
p6021
aVrs28588594
p6022
aVrs59099247
p6023
aVchr22:42132048 (hg19)
p6024
aVchr22:42132048 (hg19)
p6025
aVchr22:42132048 (hg19)
p6026
aVrs28735595
p6027
aVrs267608271
p6028
aVchr22:42131884 (hg19)
p6029
aVrs59360719
p6030
aVrs1080989
p6031
aVrs1080990
p6032
aVchr22:42131540 (hg19)
p6033
aVrs28624811
p6034
aVrs534009571
p6035
aVrs28633410
p6036
aVchr22:42131420 (hg19)
p6037
aVchr22:42131222 (hg19)
p6038
aVchr22:42131145 (hg19)
p6039
aVchr22:42131125 (hg19)
p6040
aVchr22:42131122 (hg19)
p6041
aVchr22:42131119 (hg19)
p6042
aVchr22:42131118 (hg19)
p6043
aVchr22:42131112 (hg19)
p6044
aVchr22:42131111 (hg19)
p6045
aVchr22:42131067 (hg19)
p6046
aVchr22:42131066 (hg19)
p6047
aVchr22:42131063 (hg19)
p6048
aVchr22:42131059 (hg19)
p6049
aVchr22:42131058 (hg19)
p6050
aVchr22:42131023 (hg19)
p6051
aVchr22:42131016 (hg19)
p6052
aVrs1080993
p6053
aVrs267608272
p6054
aVrs773790593
p6055
aVrs148382141
p6056
aVrs72549358
p6057
aVrs769258
p6058
aVrs267608313
p6059
aVrs28371696
p6060
aVrs138100349
p6061
aVrs1065852
p6062
aVrs151226748
p6063
aVrs5030862
p6064
aVrs118203758
p6065
aVrs774671100
p6066
aVrs1080995
p6067
aVrs1080996
p6068
aVrs74644586
p6069
aVrs76312385
p6070
aVrs75276289
p6071
aVrs28695233
p6072
aVrs1081000
p6073
aVrs28371699
p6074
aVrs575159870
p6075
aVrs28371701
p6076
aVrs28371702
p6077
aVrs201377835
p6078
aVrs267608311
p6079
aVrs267608310
p6080
aVrs267608309
p6081
aVrs28371703
p6082
aVrs28371704
p6083
aVrs28371705
p6084
aVrs267608308
p6085
aVrs76187628
p6086
aVrs74802369
p6087
aVrs28371706
p6088
aVrs78459009
p6089
aVrs1135821
p6090
aVrs1081003
p6091
aVrs267608289
p6092
aVrs267608306
p6093
aVrs67497403
p6094
aVrs267608305
p6095
aVrs374616348
p6096
aVrs1135822
p6097
aVrs1135823
p6098
aVrs61736512
p6099
aVrs1058164
p6100
aVrs375135093
p6101
aVrs569229126
p6102
aVrs78482768
p6103
aVrs5030655
p6104
aVrs28371710
p6105
aVrs267608302
p6106
aVchr22:42129071 (hg19)
p6107
aVrs74962936
p6108
aVchr22:42129056 (hg19)
p6109
aVrs1135824
p6110
aVrs199849357
p6111
aVrs5030865
p6112
aVrs3892097
p6113
aVrs370249680
p6114
aVrs553846709
p6115
aVrs111606937
p6116
aVchr22:42128903 (hg19)
p6117
aVrs745365204
p6118
aVrs72549354
p6119
aVrs139779104
p6120
aVrs150163869
p6121
aVrs199535154
p6122
aVchr22:42128796 (hg19)
p6123
aVrs2267447
p6124
aVrs267608290
p6125
aVrs267608300
p6126
aVrs79738337
p6127
aVrs188062577
p6128
aVrs17002852
p6129
aVrs267608298
p6130
aVrs28371717
p6131
aVrs376326826
p6132
aVrs758320086
p6133
aVrs35742686
p6134
aVrs267608297
p6135
aVchr22:42128217 (hg19)
p6136
aVrs148769737
p6137
aVrs28371718
p6138
aVrs369762769
p6139
aVrs367543000
p6140
aVrs72549351
p6141
aVrs77913725
p6142
aVrs1135828
p6143
aVrs5030656
p6144
aVrs76015180
p6145
aVrs267608279
p6146
aVrs16947
p6147
aVchr22:42127938 (hg19)
p6148
aVrs730882170
p6149
aVrs5030867
p6150
aVrs140513104
p6151
aVrs79292917
p6152
aVrs72549349
p6153
aVrs28371725
p6154
aVrs267608291
p6155
aVrs72549348
p6156
aVrs748712690
p6157
aVrs59421388
p6158
aVrs267608295
p6159
aVrs147960066
p6160
aVrs61736517
p6161
aVrs202102799
p6162
aVrs28371726
p6163
aVrs72549346
p6164
aVchr22:42127523 (hg19)
p6165
aVrs267608293
p6166
aVrs150552908
p6167
aVrs75386357
p6168
aVrs77312092
p6169
aVrs1985842
p6170
aVrs28371729
p6171
aVrs267608292
p6172
aVrs2004511
p6173
aVrs28371730
p6174
aVrs267608322
p6175
aVrs4987144
p6176
aVrs28371732
p6177
aVchr22:42126956 (hg19)
p6178
aVrs769157652
p6179
aVrs149157808
p6180
aVchr22:42126914 (hg19)
p6181
aVchr22:42126904 (hg19)
p6182
aVrs763964554
p6183
aVrs267608319
p6184
aVrs730882171
p6185
aVrs532668079
p6186
aVchr22:42126697 (hg19)
p6187
aVchr22:42126681 (hg19)
p6188
aVrs150445731
p6189
aVrs199767157
p6190
aVchr22:42126663 (hg19)
p6191
aVchr22:42126660 (hg19)
p6192
aVchr22:42126658 (hg19)
p6193
aVchr22:42126636 (hg19)
p6194
aVchr22:42126635 (hg19)
p6195
aVrs370146597
p6196
aVchr22:42126627 (hg19)
p6197
aVchr22:42126625 (hg19)
p6198
aVchr22:42126624 (hg19)
p6199
aVchr22:42126623 (hg19)
p6200
aVchr22:42126622 (hg19)
p6201
aVchr22:42126619 (hg19)
p6202
aVchr22:42126658 (hg19)
p6203
aVchr22:42126634 (hg19)
p6204
aVrs1135840
p6205
aVrs28371738
p6206
aVrs12169962
p6207
aVrs372465406
p6208
aVCYP2D6 EU098008.1; GQ162807.1; HM641839.1; HM641840.1; GQ162808.1; EU098009.1; EU093102.1; JN618990.1; HQ670229.1; GQ162806.1
p6209
aVCYP2D6 EU530607.1
p6210
aVCYP2D6 EU530608.1
p6211
aVCYP2D6 JF307779.1
p6212
asg28
VPA165816576
p6213
sg30
VNC_000022.10:g.[=]
p6214
sg32
V1
p6215
sa(dp6216
g10
V*2
p6217
sg12
(lp6218
Vrs1058164
p6219
aVrs16947
p6220
aVrs1135840
p6221
asg28
VPA165816577
p6222
sg30
VNC_000022.10:g.[42522613C>G;42523943G>A;42525132C>G]
p6223
sg32
V1
p6224
sa(dp6225
g10
V*3
p6226
sg12
(lp6227
Vrs35742686
p6228
asg28
VPA165816578
p6229
sg30
VNC_000022.10:g.[42524244_42524244delT]
p6230
sg32
V1
p6231
sa(dp6232
g10
V*4
p6233
sg12
(lp6234
Vrs1065852
p6235
aVrs28371703
p6236
aVrs28371704
p6237
aVrs28371705
p6238
aVrs1058164
p6239
aVrs3892097
p6240
aVrs1135840
p6241
asg28
VPA165816579
p6242
sg30
VNC_000022.10:g.[42522613C>G;42524947C>T;42525132C>G;42525798G>C;42525811T>C;42525821G>T;42526694G>A]
p6243
sg32
V1
p6244
sa(dp6245
g10
V*6
p6246
sg12
(lp6247
Vrs5030655
p6248
asg28
VPA165816581
p6249
sg30
VNC_000022.10:g.[42525086_42525086delA]
p6250
sg32
V1
p6251
sa(dp6252
g10
V*10
p6253
sg12
(lp6254
Vrs1065852
p6255
aVrs1058164
p6256
aVrs1135840
p6257
asg28
VPA165816582
p6258
sg30
VNC_000022.10:g.[42522613C>G;42525132C>G;42526694G>A]
p6259
sg32
V1
p6260
sa(dp6261
g10
V*17
p6262
sg12
(lp6263
Vrs28371706
p6264
aVrs1058164
p6265
aVrs16947
p6266
aVrs1135840
p6267
asg28
VPA165816583
p6268
sg30
VNC_000022.10:g.[42522613C>G;42523943G>A;42525132C>G;42525772G>A]
p6269
sg32
V1
p6270
sa(dp6271
g10
V*41
p6272
sg12
(lp6273
Vrs28735595
p6274
aVrs28624811
p6275
aVrs28633410
p6276
aVrs1080995
p6277
aVrs1080996
p6278
aVrs74644586
p6279
aVrs76312385
p6280
aVrs75276289
p6281
aVrs28695233
p6282
aVrs1081000
p6283
aVrs1058164
p6284
aVrs16947
p6285
aVrs28371725
p6286
aVrs1135840
p6287
asg28
VPA165816584
p6288
sg30
VNC_000022.10:g.[42522613C>G;42523805C>T;42523943G>A;42525132C>G;42526549T>C;42526561T>G;42526562C>G;42526567A>G;42526571G>C;42526573G>T;42526580C>G;42527471C>T;42527533G>A;42528028T>C]
p6289
sg32
V1
p6290
sa(dp6291
g10
V*1A
p6292
sg12
(lp6293
sg28
VPA165971524
p6294
sg30
VNC_000022.10:g.[=]
p6295
sg32
V1
p6296
sa(dp6297
g10
V*1B
p6298
sg12
(lp6299
Vrs28371732
p6300
asg28
VPA165971525
p6301
sg30
VNC_000022.10:g.[42522965C>T]
p6302
sg32
V1
p6303
sa(dp6304
g10
V*1C
p6305
sg12
(lp6306
Vrs150163869
p6307
asg28
VPA165971526
p6308
sg30
VNC_000022.10:g.[42524815G>A]
p6309
sg32
V1
p6310
sa(dp6311
g10
V*1D
p6312
sg12
(lp6313
Vrs28371718
p6314
asg28
VPA165971527
p6315
sg30
VNC_000022.10:g.[42524218G>T]
p6316
sg32
V1
p6317
sa(dp6318
g10
V*1E
p6319
sg12
(lp6320
Vrs111606937
p6321
asg28
VPA165971528
p6322
sg30
VNC_000022.10:g.[42524924A>G]
p6323
sg32
V1
p6324
sa(dp6325
g10
V*2A
p6326
sg12
(lp6327
Vrs1080985
p6328
aVrs28735595
p6329
aVrs28624811
p6330
aVrs28633410
p6331
aVrs1080995
p6332
aVrs1080996
p6333
aVrs74644586
p6334
aVrs76312385
p6335
aVrs75276289
p6336
aVrs28695233
p6337
aVrs1081000
p6338
aVrs1058164
p6339
aVrs16947
p6340
aVrs1135840
p6341
asg28
VPA165971529
p6342
sg30
VNC_000022.10:g.[42522613C>G;42523943G>A;42525132C>G;42526549T>C;42526561T>G;42526562C>G;42526567A>G;42526571G>C;42526573G>T;42526580C>G;42527471C>T;42527533G>A;42528028T>C;42528382G>C]
p6343
sg32
V1
p6344
sa(dp6345
g10
V*2B
p6346
sg12
(lp6347
Vrs1081003
p6348
aVrs1058164
p6349
aVrs16947
p6350
aVrs1135840
p6351
asg28
VPA165971530
p6352
sg30
VNC_000022.10:g.[42522613C>G;42523943G>A;42525132C>G;42525756G>A]
p6353
sg32
V1
p6354
sa(dp6355
g10
V*2C
p6356
sg12
(lp6357
Vrs1058164
p6358
aVrs17002852
p6359
aVrs16947
p6360
aVrs1135840
p6361
asg28
VPA165971531
p6362
sg30
VNC_000022.10:g.[42522613C>G;42523943G>A;42524323A>G;42525132C>G]
p6363
sg32
V1
p6364
sa(dp6365
g10
V*2D
p6366
sg12
(lp6367
Vrs16947
p6368
aVrs1135840
p6369
asg28
VPA165971532
p6370
sg30
VNC_000022.10:g.[42522613C>G;42523943G>A]
p6371
sg32
V1
p6372
sa(dp6373
g10
V*2E
p6374
sg12
(lp6375
Vrs28371705
p6376
aVrs1058164
p6377
aVrs16947
p6378
aVrs1135840
p6379
asg28
VPA165971533
p6380
sg30
VNC_000022.10:g.[42522613C>G;42523943G>A;42525132C>G;42525798G>C]
p6381
sg32
V1
p6382
sa(dp6383
g10
V*2F
p6384
sg12
(lp6385
Vrs1058164
p6386
aVrs74962936
p6387
aVrs16947
p6388
aVrs1135840
p6389
asg28
VPA165971534
p6390
sg30
VNC_000022.10:g.[42522613C>G;42523943G>A;42525069G>A;42525132C>G]
p6391
sg32
V1
p6392
sa(dp6393
g10
V*2G
p6394
sg12
(lp6395
Vrs1058164
p6396
aVrs17002852
p6397
aVrs28371718
p6398
aVrs16947
p6399
aVrs1135840
p6400
asg28
VPA165971535
p6401
sg30
VNC_000022.10:g.[42522613C>G;42523943G>A;42524218G>T;42524323A>G;42525132C>G]
p6402
sg32
V1
p6403
sa(dp6404
g10
V*2H
p6405
sg12
(lp6406
Vrs1058164
p6407
aVrs267608298
p6408
aVrs16947
p6409
aVrs1135840
p6410
asg28
VPA165971536
p6411
sg30
VNC_000022.10:g.[42522613C>G;42523943G>A;42524313G>A;42525132C>G]
p6412
sg32
V1
p6413
sa(dp6414
g10
V*2K
p6415
sg12
(lp6416
Vrs1058164
p6417
aVrs16947
p6418
aVrs150445731
p6419
aVrs1135840
p6420
asg28
VPA165971537
p6421
sg30
VNC_000022.10:g.[42522613C>G;42522678G>A;42523943G>A;42525132C>G]
p6422
sg32
V1
p6423
sa(dp6424
g10
V*2L
p6425
sg12
(lp6426
Vrs59099247
p6427
aVrs28735595
p6428
aVrs28624811
p6429
aVrs28371699
p6430
aVrs28371701
p6431
aVrs28371702
p6432
aVrs67497403
p6433
aVrs1058164
p6434
aVrs199849357
p6435
aVrs16947
p6436
aVrs1985842
p6437
aVrs28371730
p6438
aVrs4987144
p6439
aVrs1135840
p6440
asg28
VPA165971538
p6441
sg30
VNC_000022.10:g.[42522613C>G;42523003G>A;42523209C>T;42523409T>G;42523943G>A;42525036G>A;42525132C>G;42525280G>A;42525952A>C;42526049G>C;42526484C>A;42527533G>A;42528028T>C;42528096C>T]
p6442
sg32
V1
p6443
sa(dp6444
g10
V*2M
p6445
sg12
(lp6446
Vchr22:42132048 (hg19)
p6447
aVrs28735595
p6448
aVchr22:42131540 (hg19)
p6449
aVrs28624811
p6450
aVrs28633410
p6451
aVrs1080995
p6452
aVrs1080996
p6453
aVrs74644586
p6454
aVrs76312385
p6455
aVrs75276289
p6456
aVrs28695233
p6457
aVrs1081000
p6458
aVrs28371699
p6459
aVrs28371701
p6460
aVrs28371702
p6461
aVrs1058164
p6462
aVrs16947
p6463
aVrs1985842
p6464
aVrs28371730
p6465
aVrs4987144
p6466
aVrs1135840
p6467
aVrs12169962
p6468
asg28
VPA165971539
p6469
sg30
VNC_000022.10:g.[42131540_42131541delTC;42132048_42132049insTT;42522312C>T;42522613C>G;42523003G>A;42523209C>T;42523409T>G;42523943G>A;42525132C>G;42525952A>C;42526049G>C;42526484C>A;42526549T>C;42526561T>G;42526562C>G;42526567A>G;42526571G>C;42526573G>T;42526580C>G;42527471C>T;42527533G>A;42528028T>C]
p6470
sg32
V1
p6471
sa(dp6472
g10
V*3A
p6473
sg12
(lp6474
Vrs35742686
p6475
asg28
VPA165971540
p6476
sg30
VNC_000022.10:g.[42524244_42524244delT]
p6477
sg32
V1
p6478
sa(dp6479
g10
V*3B
p6480
sg12
(lp6481
Vrs1135824
p6482
aVrs35742686
p6483
asg28
VPA165971541
p6484
sg30
VNC_000022.10:g.[42524244_42524244delT;42525044T>C]
p6485
sg32
V1
p6486
sa(dp6487
g10
V*4A
p6488
sg12
(lp6489
Vrs1065852
p6490
aVrs28371703
p6491
aVrs28371704
p6492
aVrs28371705
p6493
aVrs1058164
p6494
aVrs3892097
p6495
aVrs1135840
p6496
asg28
VPA165971542
p6497
sg30
VNC_000022.10:g.[42522613C>G;42524947C>T;42525132C>G;42525798G>C;42525811T>C;42525821G>T;42526694G>A]
p6498
sg32
V1
p6499
sa(dp6500
g10
V*4B
p6501
sg12
(lp6502
Vrs1065852
p6503
aVrs28371703
p6504
aVrs28371704
p6505
aVrs28371705
p6506
aVrs3892097
p6507
aVrs1135840
p6508
asg28
VPA165971543
p6509
sg30
VNC_000022.10:g.[42522613C>G;42524947C>T;42525798G>C;42525811T>C;42525821G>T;42526694G>A]
p6510
sg32
V1
p6511
sa(dp6512
g10
V*4C
p6513
sg12
(lp6514
Vrs1065852
p6515
aVrs1058164
p6516
aVrs3892097
p6517
aVchr22:42126904 (hg19)
p6518
aVrs1135840
p6519
asg28
VPA165971544
p6520
sg30
VNC_000022.10:g.[42126904A>G;42522613C>G;42524947C>T;42525132C>G;42526694G>A]
p6521
sg32
V1
p6522
sa(dp6523
g10
V*4D
p6524
sg12
(lp6525
Vrs1065852
p6526
aVrs1081003
p6527
aVrs1058164
p6528
aVrs3892097
p6529
aVrs1135840
p6530
asg28
VPA165971545
p6531
sg30
VNC_000022.10:g.[42522613C>G;42524947C>T;42525132C>G;42525756G>A;42526694G>A]
p6532
sg32
V1
p6533
sa(dp6534
g10
V*4E
p6535
sg12
(lp6536
Vrs1065852
p6537
aVrs1058164
p6538
aVrs3892097
p6539
aVrs1135840
p6540
asg28
VPA165971546
p6541
sg30
VNC_000022.10:g.[42522613C>G;42524947C>T;42525132C>G;42526694G>A]
p6542
sg32
V1
p6543
sa(dp6544
g10
V*4F
p6545
sg12
(lp6546
Vrs1065852
p6547
aVrs28371703
p6548
aVrs28371704
p6549
aVrs28371705
p6550
aVrs1058164
p6551
aVrs3892097
p6552
aVrs370249680
p6553
aVrs1135840
p6554
asg28
VPA165971547
p6555
sg30
VNC_000022.10:g.[42522613C>G;42524935G>A;42524947C>T;42525132C>G;42525798G>C;42525811T>C;42525821G>T;42526694G>A]
p6556
sg32
V1
p6557
sa(dp6558
g10
V*4G
p6559
sg12
(lp6560
Vrs1065852
p6561
aVrs28371703
p6562
aVrs28371704
p6563
aVrs28371705
p6564
aVrs1058164
p6565
aVrs3892097
p6566
aVrs140513104
p6567
aVrs1135840
p6568
asg28
VPA165971548
p6569
sg30
VNC_000022.10:g.[42522613C>G;42523855G>A;42524947C>T;42525132C>G;42525798G>C;42525811T>C;42525821G>T;42526694G>A]
p6570
sg32
V1
p6571
sa(dp6572
g10
V*4H
p6573
sg12
(lp6574
Vrs1065852
p6575
aVrs28371703
p6576
aVrs28371704
p6577
aVrs28371705
p6578
aVrs1058164
p6579
aVrs3892097
p6580
aVchr22:42126914 (hg19)
p6581
aVrs1135840
p6582
asg28
VPA165971549
p6583
sg30
VNC_000022.10:g.[42126914C>G;42522613C>G;42524947C>T;42525132C>G;42525798G>C;42525811T>C;42525821G>T;42526694G>A]
p6584
sg32
V1
p6585
sa(dp6586
g10
V*4J
p6587
sg12
(lp6588
Vrs1065852
p6589
aVrs28371703
p6590
aVrs28371704
p6591
aVrs28371705
p6592
aVrs1058164
p6593
aVrs3892097
p6594
asg28
VPA165971550
p6595
sg30
VNC_000022.10:g.[42524947C>T;42525132C>G;42525798G>C;42525811T>C;42525821G>T;42526694G>A]
p6596
sg32
V1
p6597
sa(dp6598
g10
V*4K
p6599
sg12
(lp6600
Vrs1065852
p6601
aVrs1058164
p6602
aVrs3892097
p6603
aVrs16947
p6604
aVrs1135840
p6605
asg28
VPA165971551
p6606
sg30
VNC_000022.10:g.[42522613C>G;42523943G>A;42524947C>T;42525132C>G;42526694G>A]
p6607
sg32
V1
p6608
sa(dp6609
g10
V*4L
p6610
sg12
(lp6611
Vrs1065852
p6612
aVrs28371705
p6613
aVrs1058164
p6614
aVrs3892097
p6615
aVrs1135840
p6616
asg28
VPA165971552
p6617
sg30
VNC_000022.10:g.[42522613C>G;42524947C>T;42525132C>G;42525798G>C;42526694G>A]
p6618
sg32
V1
p6619
sa(dp6620
g10
V*4M
p6621
sg12
(lp6622
Vrs28735595
p6623
aVrs28371701
p6624
aVrs28371702
p6625
aVrs28371703
p6626
aVrs28371704
p6627
aVrs28371705
p6628
aVrs1058164
p6629
aVrs3892097
p6630
aVrs2267447
p6631
aVrs1985842
p6632
aVrs2004511
p6633
aVrs28371738
p6634
asg28
VPA165971553
p6635
sg30
VNC_000022.10:g.[42522392G>A;42523211T>C;42523409T>G;42524696T>C;42524947C>T;42525132C>G;42525798G>C;42525811T>C;42525821G>T;42525952A>C;42526049G>C;42528028T>C]
p6636
sg32
V1
p6637
sa(dp6638
g10
V*4N
p6639
sg12
(lp6640
Vrs28588594
p6641
aVrs28735595
p6642
aVrs1080989
p6643
aVrs1065852
p6644
aVrs28371699
p6645
aVrs28371701
p6646
aVrs28371702
p6647
aVrs28371703
p6648
aVrs28371704
p6649
aVrs28371705
p6650
aVrs1058164
p6651
aVrs3892097
p6652
aVrs2267447
p6653
aVrs1985842
p6654
aVrs2004511
p6655
aVrs199767157
p6656
aVchr22:42126663 (hg19)
p6657
aVchr22:42126660 (hg19)
p6658
aVchr22:42126658 (hg19)
p6659
aVchr22:42126636 (hg19)
p6660
aVchr22:42126635 (hg19)
p6661
aVrs370146597
p6662
aVchr22:42126627 (hg19)
p6663
aVchr22:42126625 (hg19)
p6664
aVchr22:42126624 (hg19)
p6665
aVchr22:42126623 (hg19)
p6666
aVchr22:42126622 (hg19)
p6667
aVchr22:42126619 (hg19)
p6668
aVrs1135840
p6669
aVrs28371738
p6670
asg28
VPA165971554
p6671
sg30
VNC_000022.10:g.[42126619G>A;42126622A>G;42126623G>C;42126624C>T;42126625A>G;42126627A>C;42126633C>G;42126635T>G;42126636G>A;42126658A>G;42126660T>C;42126663G>C;42126667C>G;42522392G>A;42522613C>G;42523211T>C;42523409T>G;42524696T>C;42524947C>T;42525132C>G;42525798G>C;42525811T>C;42525821G>T;42525952A>C;42526049G>C;42526484C>A;42526694G>A;42527793C>T;42528028T>C;42528224G>A]
p6672
sg32
V1
p6673
sa(dp6674
g10
V*6A
p6675
sg12
(lp6676
Vrs5030655
p6677
asg28
VPA165971555
p6678
sg30
VNC_000022.10:g.[42525086_42525086delA]
p6679
sg32
V1
p6680
sa(dp6681
g10
V*6B
p6682
sg12
(lp6683
Vrs5030655
p6684
aVrs139779104
p6685
asg28
VPA165971556
p6686
sg30
VNC_000022.10:g.[42524817C>T;42525086_42525086delA]
p6687
sg32
V1
p6688
sa(dp6689
g10
V*6C
p6690
sg12
(lp6691
Vrs5030655
p6692
aVrs139779104
p6693
aVrs1135840
p6694
asg28
VPA165971557
p6695
sg30
VNC_000022.10:g.[42522613C>G;42524817C>T;42525086_42525086delA]
p6696
sg32
V1
p6697
sa(dp6698
g10
V*6D
p6699
sg12
(lp6700
Vrs5030655
p6701
aVrs150552908
p6702
asg28
VPA165971558
p6703
sg30
VNC_000022.10:g.[42523505C>T;42525086_42525086delA]
p6704
sg32
V1
p6705
sa(dp6706
g10
V*7
p6707
sg12
(lp6708
Vrs5030867
p6709
asg28
VPA165971559
p6710
sg30
VNC_000022.10:g.[42523858T>G]
p6711
sg32
V1
p6712
sa(dp6713
g10
V*8
p6714
sg12
(lp6715
Vrs1058164
p6716
aVrs5030865
p6717
aVrs16947
p6718
aVrs1135840
p6719
asg28
VPA165971560
p6720
sg30
VNC_000022.10:g.[42522613C>G;42523943G>A;42525035C>A;42525132C>G]
p6721
sg32
V1
p6722
sa(dp6723
g10
V*10A
p6724
sg12
(lp6725
Vrs1065852
p6726
aVrs1058164
p6727
aVrs1135840
p6728
asg28
VPA165971561
p6729
sg30
VNC_000022.10:g.[42522613C>G;42525132C>G;42526694G>A]
p6730
sg32
V1
p6731
sa(dp6732
g10
V*10B
p6733
sg12
(lp6734
Vrs28588594
p6735
aVchr22:42132048 (hg19)
p6736
aVrs28735595
p6737
aVrs1080989
p6738
aVrs1065852
p6739
aVrs1081003
p6740
aVrs1058164
p6741
aVrs1135840
p6742
asg28
VPA165971562
p6743
sg30
VNC_000022.10:g.[42132048_42132049insTT;42522613C>G;42525132C>G;42525756G>A;42526694G>A;42527793C>T;42528028T>C;42528224G>A]
p6744
sg32
V1
p6745
sa(dp6746
g10
V*10D
p6747
sg12
(lp6748
Vrs1065852
p6749
aVrs1081003
p6750
aVrs1058164
p6751
aVrs1135840
p6752
asg28
VPA165971563
p6753
sg30
VNC_000022.10:g.[42522613C>G;42525132C>G;42525756G>A;42526694G>A]
p6754
sg32
V1
p6755
sa(dp6756
g10
V*11
p6757
sg12
(lp6758
Vrs201377835
p6759
aVrs1058164
p6760
aVrs16947
p6761
aVrs1135840
p6762
asg28
VPA165971564
p6763
sg30
VNC_000022.10:g.[42522613C>G;42523943G>A;42525132C>G;42525912C>G]
p6764
sg32
V1
p6765
sa(dp6766
g10
V*12
p6767
sg12
(lp6768
Vrs5030862
p6769
aVrs1058164
p6770
aVrs16947
p6771
aVrs1135840
p6772
asg28
VPA165971565
p6773
sg30
VNC_000022.10:g.[42522613C>G;42523943G>A;42525132C>G;42526670C>T]
p6774
sg32
V1
p6775
sa(dp6776
g10
V*14A
p6777
sg12
(lp6778
Vrs1065852
p6779
aVrs5030865
p6780
aVrs16947
p6781
aVrs1135840
p6782
asg28
VPA165971566
p6783
sg30
VNC_000022.10:g.[42522613C>G;42523943G>A;42525035C>T;42526694G>A]
p6784
sg32
V1
p6785
sa(dp6786
g10
V*14B
p6787
sg12
(lp6788
Vrs1080995
p6789
aVrs1080996
p6790
aVrs74644586
p6791
aVrs76312385
p6792
aVrs75276289
p6793
aVrs28695233
p6794
aVrs1081000
p6795
aVrs1058164
p6796
aVrs5030865
p6797
aVrs16947
p6798
aVrs1135840
p6799
asg28
VPA165971567
p6800
sg30
VNC_000022.10:g.[42522613C>G;42523943G>A;42525035C>T;42525132C>G;42526549T>C;42526561T>G;42526562C>G;42526567A>G;42526571G>C;42526573G>T;42526580C>G]
p6801
sg32
V1
p6802
sa(dp6803
g10
V*15
p6804
sg12
(lp6805
Vrs774671100
p6806
asg28
VPA165971568
p6807
sg30
VNC_000022.10:g.[42526656_42526656insA]
p6808
sg32
V1
p6809
sa(dp6810
g10
V*18
p6811
sg12
(lp6812
Vchr22:42126658 (hg19)
p6813
asg28
VPA165971569
p6814
sg30
VNC_000022.10:g.[42126658AGTGGGCAC>DUPAGTGGGCAC]
p6815
sg32
V1
p6816
sa(dp6817
g10
V*19
p6818
sg12
(lp6819
Vrs1058164
p6820
aVrs758320086
p6821
aVrs16947
p6822
aVrs1135840
p6823
asg28
VPA165971570
p6824
sg30
VNC_000022.10:g.[42522613C>G;42523943G>A;42524251_42524254delAGTT;42525132C>G]
p6825
sg32
V1
p6826
sa(dp6827
g10
V*20
p6828
sg12
(lp6829
Vrs1058164
p6830
aVrs72549354
p6831
aVrs150163869
p6832
aVrs199535154
p6833
aVrs16947
p6834
aVrs1135840
p6835
asg28
VPA165971571
p6836
sg30
VNC_000022.10:g.[42522613C>G;42523943G>A;42524814A>G;42524815G>A;42524819_42524819insC;42525132C>G]
p6837
sg32
V1
p6838
sa(dp6839
g10
V*21A
p6840
sg12
(lp6841
Vrs1080985
p6842
aVrs28588594
p6843
aVrs28735595
p6844
aVrs28624811
p6845
aVrs28633410
p6846
aVchr22:42131420 (hg19)
p6847
aVrs1080995
p6848
aVrs1080996
p6849
aVrs74644586
p6850
aVrs76312385
p6851
aVrs28371699
p6852
aVrs1058164
p6853
aVchr22:42128217 (hg19)
p6854
aVrs16947
p6855
aVrs28371730
p6856
aVrs1135840
p6857
asg28
VPA165971572
p6858
sg30
VNC_000022.10:g.[42128217_42128217insG;42131420T>C;42522613C>G;42523209C>T;42523943G>A;42525132C>G;42526484C>A;42526567A>G;42526571G>C;42526573G>T;42526580C>G;42527471C>T;42527533G>A;42528028T>C;42528224G>A;42528382G>C]
p6859
sg32
V1
p6860
sa(dp6861
g10
V*21B
p6862
sg12
(lp6863
Vrs1080985
p6864
aVrs28735595
p6865
aVrs28624811
p6866
aVrs28633410
p6867
aVrs1080995
p6868
aVrs1080996
p6869
aVrs74644586
p6870
aVrs76312385
p6871
aVrs75276289
p6872
aVrs28695233
p6873
aVrs1081000
p6874
aVrs1058164
p6875
aVchr22:42128217 (hg19)
p6876
aVrs16947
p6877
aVrs1135840
p6878
asg28
VPA165971573
p6879
sg30
VNC_000022.10:g.[42128217_42128217insG;42522613C>G;42523943G>A;42525132C>G;42526549T>G;42526561T>G;42526562C>G;42526567A>G;42526571G>C;42526573G>T;42526580C>G;42527471C>T;42527533G>A;42528028T>C;42528382G>C]
p6880
sg32
V1
p6881
sa(dp6882
g10
V*22
p6883
sg12
(lp6884
Vrs138100349
p6885
asg28
VPA165971574
p6886
sg30
VNC_000022.10:g.[42526712G>A]
p6887
sg32
V1
p6888
sa(dp6889
g10
V*23
p6890
sg12
(lp6891
Vrs267608310
p6892
asg28
VPA165971575
p6893
sg30
VNC_000022.10:g.[42525838G>A]
p6894
sg32
V1
p6895
sa(dp6896
g10
V*24
p6897
sg12
(lp6898
Vchr22:42127938 (hg19)
p6899
asg28
VPA165971576
p6900
sg30
VNC_000022.10:g.[42127938T>G]
p6901
sg32
V1
p6902
sa(dp6903
g10
V*25
p6904
sg12
(lp6905
Vrs267608295
p6906
asg28
VPA165971577
p6907
sg30
VNC_000022.10:g.[42523595G>C]
p6908
sg32
V1
p6909
sa(dp6910
g10
V*26
p6911
sg12
(lp6912
Vrs267608293
p6913
asg28
VPA165971578
p6914
sg30
VNC_000022.10:g.[42523517A>G]
p6915
sg32
V1
p6916
sa(dp6917
g10
V*27
p6918
sg12
(lp6919
Vrs769157652
p6920
asg28
VPA165971579
p6921
sg30
VNC_000022.10:g.[42522940C>T]
p6922
sg32
V1
p6923
sa(dp6924
g10
V*28
p6925
sg12
(lp6926
Vrs72549358
p6927
aVrs1058164
p6928
aVrs78482768
p6929
aVrs16947
p6930
aVrs1135840
p6931
asg28
VPA165971580
p6932
sg30
VNC_000022.10:g.[42522613C>G;42523943G>A;42525089G>C;42525132C>G;42526775C>T]
p6933
sg32
V1
p6934
sa(dp6935
g10
V*30
p6936
sg12
(lp6937
Vrs1058164
p6938
aVrs553846709
p6939
aVrs16947
p6940
aVrs1135840
p6941
asg28
VPA165971581
p6942
sg30
VNC_000022.10:g.[42522613C>G;42523943G>A;42524929_42524937insGGGGCGAAA;42525132C>G]
p6943
sg32
V1
p6944
sa(dp6945
g10
V*31
p6946
sg12
(lp6947
Vrs1080983
p6948
aVrs1080985
p6949
aVrs28735595
p6950
aVrs28624811
p6951
aVrs28633410
p6952
aVrs1080995
p6953
aVrs1080996
p6954
aVrs74644586
p6955
aVrs76312385
p6956
aVrs75276289
p6957
aVrs28695233
p6958
aVrs1081000
p6959
aVrs28371699
p6960
aVrs28371701
p6961
aVrs28371702
p6962
aVrs1058164
p6963
aVrs16947
p6964
aVrs1985842
p6965
aVrs28371730
p6966
aVrs4987144
p6967
aVrs267608319
p6968
aVrs1135840
p6969
aVrs12169962
p6970
asg28
VPA165971582
p6971
sg30
VNC_000022.10:g.[42522312C>T;42522613C>G;42522751C>T;42523003G>A;42523209C>T;42523409T>G;42523943G>A;42525132C>G;42525952A>C;42526049G>C;42526484C>A;42526549T>C;42526561T>G;42526562C>G;42526567A>G;42526571G>C;42526573G>T;42526580C>G;42527471C>T;42527533G>A;42528028T>C;42528382G>C;42528568C>T]
p6972
sg32
V1
p6973
sa(dp6974
g10
V*32
p6975
sg12
(lp6976
Vrs1058164
p6977
aVrs16947
p6978
aVrs769157652
p6979
aVrs1135840
p6980
asg28
VPA165971583
p6981
sg30
VNC_000022.10:g.[42522613C>G;42522940C>T;42523943G>A;42525132C>G]
p6982
sg32
V1
p6983
sa(dp6984
g10
V*33
p6985
sg12
(lp6986
Vrs28371717
p6987
asg28
VPA165971584
p6988
sg30
VNC_000022.10:g.[42524310C>A]
p6989
sg32
V1
p6990
sa(dp6991
g10
V*34
p6992
sg12
(lp6993
Vrs16947
p6994
asg28
VPA165971585
p6995
sg30
VNC_000022.10:g.[42523943G>A]
p6996
sg32
V1
p6997
sa(dp6998
g10
V*35A
p6999
sg12
(lp7000
Vrs1080985
p7001
aVrs769258
p7002
aVrs1058164
p7003
aVrs16947
p7004
aVrs1135840
p7005
asg28
VPA165971586
p7006
sg30
VNC_000022.10:g.[42522613C>G;42523943G>A;42525132C>G;42526763C>T;42528382G>C]
p7007
sg32
V1
p7008
sa(dp7009
g10
V*35B
p7010
sg12
(lp7011
Vrs1080983
p7012
aVrs1080985
p7013
aVrs28735595
p7014
aVrs28624811
p7015
aVrs28633410
p7016
aVchr22:42131222 (hg19)
p7017
aVchr22:42131145 (hg19)
p7018
aVchr22:42131125 (hg19)
p7019
aVchr22:42131122 (hg19)
p7020
aVchr22:42131119 (hg19)
p7021
aVchr22:42131118 (hg19)
p7022
aVchr22:42131112 (hg19)
p7023
aVchr22:42131111 (hg19)
p7024
aVchr22:42131067 (hg19)
p7025
aVchr22:42131066 (hg19)
p7026
aVchr22:42131063 (hg19)
p7027
aVchr22:42131059 (hg19)
p7028
aVchr22:42131058 (hg19)
p7029
aVchr22:42131023 (hg19)
p7030
aVchr22:42131016 (hg19)
p7031
aVrs267608272
p7032
aVrs769258
p7033
aVrs28371699
p7034
aVrs28371701
p7035
aVrs28371702
p7036
aVrs1058164
p7037
aVrs16947
p7038
aVrs1985842
p7039
aVrs28371730
p7040
aVrs4987144
p7041
aVrs1135840
p7042
aVrs12169962
p7043
asg28
VPA165971587
p7044
sg30
VNC_000022.10:g.[42131016T>C;42131023C>G;42131058C>G;42131059C>T;42131063G>A;42131066G>A;42131067G>A;42131111T>C;42131112G>C;42131118T>C;42131119G>A;42131122A>C;42131125C>G;42131145T>C;42131222G>A;42522312C>T;42522613C>G;42523003G>A;42523209C>T;42523409T>G;42523943G>A;42525132C>G;42525952A>C;42526049G>C;42526484C>A;42526763C>T;42526931T>C;42527471C>T;42527533G>A;42528028T>C;42528382G>C;42528568C>T]
p7045
sg32
V1
p7046
sa(dp7047
g10
V*35xN
p7048
sg12
(lp7049
Vrs769258
p7050
aVrs1058164
p7051
aVrs16947
p7052
aVrs1135840
p7053
asg28
VPA165971588
p7054
sg30
VNC_000022.10:g.[42522613C>G;42523943G>A;42525132C>G;42526763C>T]
p7055
sg32
VN
p7056
sa(dp7057
g10
V*36xN
p7058
sg12
(lp7059
Vrs28588594
p7060
aVchr22:42132048 (hg19)
p7061
aVrs28735595
p7062
aVrs1080989
p7063
aVrs1065852
p7064
aVrs1081003
p7065
aVrs1058164
p7066
aVrs199767157
p7067
aVchr22:42126663 (hg19)
p7068
aVchr22:42126660 (hg19)
p7069
aVchr22:42126658 (hg19)
p7070
aVchr22:42126636 (hg19)
p7071
aVchr22:42126635 (hg19)
p7072
aVrs370146597
p7073
aVchr22:42126627 (hg19)
p7074
aVchr22:42126625 (hg19)
p7075
aVchr22:42126624 (hg19)
p7076
aVchr22:42126623 (hg19)
p7077
aVchr22:42126622 (hg19)
p7078
aVchr22:42126619 (hg19)
p7079
aVrs1135840
p7080
asg28
VPA165971589
p7081
sg30
VNC_000022.10:g.[42126619G>A;42126622A>G;42126623G>C;42126624C>T;42126625A>G;42126627A>C;42126633C>G;42126635T>G;42126636G>A;42126658A>G;42126660T>C;42126663G>C;42126667C>G;42132048_42132048insT;42522613C>G;42525132C>G;42525756G>A;42526694G>A;42527793C>T;42528028T>C;42528224G>A]
p7082
sg32
VN
p7083
sa(dp7084
g10
V*37
p7085
sg12
(lp7086
Vrs1065852
p7087
aVrs1081003
p7088
aVrs1058164
p7089
aVrs745365204
p7090
aVrs1135840
p7091
asg28
VPA165971591
p7092
sg30
VNC_000022.10:g.[42522613C>G;42524850C>T;42525132C>G;42525756G>A;42526694G>A]
p7093
sg32
V1
p7094
sa(dp7095
g10
V*38
p7096
sg12
(lp7097
Vrs72549351
p7098
asg28
VPA165971592
p7099
sg30
VNC_000022.10:g.[42524203_42524206delAGTC]
p7100
sg32
V1
p7101
sa(dp7102
g10
V*40
p7103
sg12
(lp7104
Vrs28371706
p7105
aVrs1058164
p7106
aVrs553846709
p7107
aVrs16947
p7108
aVrs1135840
p7109
asg28
VPA165971594
p7110
sg30
VNC_000022.10:g.[42522613C>G;42523943G>A;42524929_42524946insGGGGCGAAAGGGGCGAAA;42525132C>G;42525772G>A]
p7111
sg32
V1
p7112
sa(dp7113
g10
V*42
p7114
sg12
(lp7115
Vrs1058164
p7116
aVrs16947
p7117
aVrs72549346
p7118
aVrs1135840
p7119
asg28
VPA165971595
p7120
sg30
VNC_000022.10:g.[42522613C>G;42523533_42523534insAC;42523943G>A;42525132C>G]
p7121
sg32
V1
p7122
sa(dp7123
g10
V*43
p7124
sg12
(lp7125
Vrs28371696
p7126
asg28
VPA165971596
p7127
sg30
VNC_000022.10:g.[42526717C>T]
p7128
sg32
V1
p7129
sa(dp7130
g10
V*44
p7131
sg12
(lp7132
Vrs138100349
p7133
aVrs72549349
p7134
asg28
VPA165971597
p7135
sg30
VNC_000022.10:g.[42523843C>G;42526712G>A]
p7136
sg32
V1
p7137
sa(dp7138
g10
V*45A
p7139
sg12
(lp7140
Vrs267608286
p7141
aVchr22:42132048 (hg19)
p7142
aVchr22:42131884 (hg19)
p7143
aVrs59360719
p7144
aVrs28371699
p7145
aVrs28371701
p7146
aVrs28371702
p7147
aVrs1058164
p7148
aVrs28371710
p7149
aVrs267608290
p7150
aVrs28371718
p7151
aVrs76015180
p7152
aVrs16947
p7153
aVrs28371726
p7154
aVrs1985842
p7155
aVrs28371730
p7156
aVrs4987144
p7157
aVrs1135840
p7158
asg28
VPA165971598
p7159
sg30
VNC_000022.10:g.[42131884_42131884insT;42132048_42132049delTT;42522613C>G;42523003G>A;42523209C>T;42523409T>G;42523539A>G;42523943G>A;42524132C>T;42524218G>T;42524664T>G;42525077C>T;42525132C>G;42525952A>C;42526049G>C;42526484C>A;42527804A>G;42528398TC>AA]
p7160
sg32
V1
p7161
sa(dp7162
g10
V*45B
p7163
sg12
(lp7164
Vrs76210340
p7165
aVrs59099247
p7166
aVrs28735595
p7167
aVchr22:42131884 (hg19)
p7168
aVrs28624811
p7169
aVrs534009571
p7170
aVrs28371699
p7171
aVrs28371701
p7172
aVrs28371702
p7173
aVrs1058164
p7174
aVrs28371710
p7175
aVrs28371718
p7176
aVrs76015180
p7177
aVrs16947
p7178
aVrs28371726
p7179
aVrs1985842
p7180
aVrs28371730
p7181
aVrs4987144
p7182
aVrs1135840
p7183
asg28
VPA165971599
p7184
sg30
VNC_000022.10:g.[42131884_42131884insT;42522613C>G;42523003G>A;42523209C>T;42523409T>G;42523539A>G;42523943G>A;42524132C>T;42524218G>T;42525077C>T;42525132C>G;42525952A>C;42526049G>C;42526484C>A;42527485_42527488delCACA;42527533G>A;42528028T>C;42528096C>T;42528341C>T]
p7185
sg32
V1
p7186
sa(dp7187
g10
V*46
p7188
sg12
(lp7189
Vrs76210340
p7190
aVrs59099247
p7191
aVrs28735595
p7192
aVrs28624811
p7193
aVrs28371696
p7194
aVrs28371699
p7195
aVrs28371701
p7196
aVrs28371702
p7197
aVrs1058164
p7198
aVrs28371710
p7199
aVrs28371718
p7200
aVrs76015180
p7201
aVrs16947
p7202
aVrs267608291
p7203
aVrs28371726
p7204
aVrs1985842
p7205
aVrs267608292
p7206
aVrs28371730
p7207
aVrs4987144
p7208
aVrs1135840
p7209
asg28
VPA165971600
p7210
sg30
VNC_000022.10:g.[42522613C>G;42523003G>A;42523209C>T;42523302C>T;42523409T>G;42523539A>G;42523763C>Y;42523943G>A;42524132C>T;42524218G>T;42525077C>T;42525132C>G;42525952A>C;42526049G>C;42526484C>A;42526717C>T;42527533G>A;42528028T>C;42528096C>T;42528341C>T]
p7211
sg32
V1
p7212
sa(dp7213
g10
V*47
p7214
sg12
(lp7215
Vrs28588594
p7216
aVrs28735595
p7217
aVrs1080989
p7218
aVrs267608313
p7219
aVrs1065852
p7220
aVrs1081003
p7221
aVrs1058164
p7222
aVrs1135840
p7223
asg28
VPA165971601
p7224
sg30
VNC_000022.10:g.[42522613C>G;42525132C>G;42525756G>A;42526694G>A;42526721G>A;42527793C>T;42528028T>C;42528224G>A]
p7225
sg32
V1
p7226
sa(dp7227
g10
V*48
p7228
sg12
(lp7229
Vrs267608309
p7230
asg28
VPA165971602
p7231
sg30
VNC_000022.10:g.[42525823G>A]
p7232
sg32
V1
p7233
sa(dp7234
g10
V*49
p7235
sg12
(lp7236
Vrs28588594
p7237
aVrs28735595
p7238
aVrs1080989
p7239
aVrs1065852
p7240
aVrs1081003
p7241
aVrs1135822
p7242
aVrs1058164
p7243
aVrs1135840
p7244
asg28
VPA165971603
p7245
sg30
VNC_000022.10:g.[42522613C>G;42525132C>G;42525182A>T;42525756G>A;42526694G>A;42527793C>T;42528028T>C;42528224G>A]
p7246
sg32
V1
p7247
sa(dp7248
g10
V*50
p7249
sg12
(lp7250
Vrs267608302
p7251
asg28
VPA165971604
p7252
sg30
VNC_000022.10:g.[42525073T>G]
p7253
sg32
V1
p7254
sa(dp7255
g10
V*51
p7256
sg12
(lp7257
Vrs1080985
p7258
aVrs28735595
p7259
aVrs28624811
p7260
aVrs28633410
p7261
aVrs1080995
p7262
aVrs1080996
p7263
aVrs74644586
p7264
aVrs76312385
p7265
aVrs75276289
p7266
aVrs28695233
p7267
aVrs1081000
p7268
aVrs1058164
p7269
aVrs16947
p7270
aVrs72549348
p7271
aVrs1135840
p7272
asg28
VPA165971605
p7273
sg30
VNC_000022.10:g.[42522613C>G;42523621T>G;42523943G>A;42525132C>G;42526549T>C;42526561T>G;42526562C>G;42526567A>G;42526571G>C;42526573G>T;42526580C>G;42527471C>T;42527533G>A;42528028T>C;42528382G>C]
p7274
sg32
V1
p7275
sa(dp7276
g10
V*52
p7277
sg12
(lp7278
Vrs28588594
p7279
aVrs28735595
p7280
aVrs1080989
p7281
aVrs1065852
p7282
aVrs1081003
p7283
aVrs1058164
p7284
aVrs149157808
p7285
aVrs1135840
p7286
aVrs28371738
p7287
asg28
VPA165971606
p7288
sg30
VNC_000022.10:g.[42522392G>A;42522613C>G;42522916C>T;42525132C>G;42525756G>A;42526694G>A;42527793C>T;42528028T>C;42528224G>A]
p7289
sg32
V1
p7290
sa(dp7291
g10
V*53
p7292
sg12
(lp7293
Vrs267608305
p7294
aVrs1135822
p7295
aVrs1135823
p7296
asg28
VPA165971607
p7297
sg30
VNC_000022.10:g.[42525176C>A;42525182A>T;42525195T>C]
p7298
sg32
V1
p7299
sa(dp7300
g10
V*54
p7301
sg12
(lp7302
Vrs1065852
p7303
aVrs1081003
p7304
aVrs1058164
p7305
aVrs267608297
p7306
aVrs1135840
p7307
asg28
VPA165971608
p7308
sg30
VNC_000022.10:g.[42522613C>G;42524237G>A;42525132C>G;42525756G>A;42526694G>A]
p7309
sg32
V1
p7310
sa(dp7311
g10
V*55
p7312
sg12
(lp7313
Vrs1058164
p7314
aVrs16947
p7315
aVrs4987144
p7316
aVchr22:42126956 (hg19)
p7317
aVrs1135840
p7318
asg28
VPA165971609
p7319
sg30
VNC_000022.10:g.[42126956T>G;42522613C>G;42523003G>A;42523943G>A;42525132C>G]
p7320
sg32
V1
p7321
sa(dp7322
g10
V*56A
p7323
sg12
(lp7324
Vrs1080985
p7325
aVrs28735595
p7326
aVrs28624811
p7327
aVrs28633410
p7328
aVrs1080995
p7329
aVrs1080996
p7330
aVrs74644586
p7331
aVrs76312385
p7332
aVrs75276289
p7333
aVrs28695233
p7334
aVrs1081000
p7335
aVrs1058164
p7336
aVrs16947
p7337
aVrs147960066
p7338
aVrs1985842
p7339
aVrs28371730
p7340
aVrs4987144
p7341
aVrs1135840
p7342
asg28
VPA165971610
p7343
sg30
VNC_000022.10:g.[42522613C>G;42523003G>A;42523209C>T;42523409T>G;42523592G>A;42523943G>A;42525132C>G;42526549T>C;42526561T>G;42526562C>G;42526567A>G;42526571G>C;42526573G>T;42526580C>G;42527471C>T;42527533G>A;42528028T>C;42528382G>C]
p7344
sg32
V1
p7345
sa(dp7346
g10
V*56B
p7347
sg12
(lp7348
Vrs28588594
p7349
aVrs28735595
p7350
aVrs1080989
p7351
aVrs1065852
p7352
aVrs28371699
p7353
aVrs28371702
p7354
aVrs1081003
p7355
aVrs1058164
p7356
aVrs2267447
p7357
aVrs147960066
p7358
aVrs1985842
p7359
aVrs2004511
p7360
aVrs1135840
p7361
asg28
VPA165971611
p7362
sg30
VNC_000022.10:g.[42522613C>G;42523211T>C;42523409T>G;42523592G>A;42524696T>C;42525132C>G;42525756G>A;42525952A>C;42526484C>A;42526694G>A;42527793C>T;42528028T>C;42528224G>A]
p7363
sg32
V1
p7364
sa(dp7365
g10
V*57
p7366
sg12
(lp7367
Vrs1065852
p7368
aVrs28371699
p7369
aVrs28371702
p7370
aVrs267608311
p7371
aVrs1081003
p7372
aVrs1058164
p7373
aVrs1985842
p7374
aVrs2004511
p7375
aVrs199767157
p7376
aVchr22:42126663 (hg19)
p7377
aVchr22:42126660 (hg19)
p7378
aVchr22:42126658 (hg19)
p7379
aVchr22:42126636 (hg19)
p7380
aVchr22:42126635 (hg19)
p7381
aVrs370146597
p7382
aVchr22:42126627 (hg19)
p7383
aVchr22:42126625 (hg19)
p7384
aVchr22:42126624 (hg19)
p7385
aVchr22:42126623 (hg19)
p7386
aVchr22:42126622 (hg19)
p7387
aVchr22:42126619 (hg19)
p7388
aVrs1135840
p7389
asg28
VPA165971612
p7390
sg30
VNC_000022.10:g.[42126619G>A;42126622A>G;42126623G>C;42126624C>T;42126625A>G;42126627A>C;42126633C>G;42126635T>G;42126636G>A;42126658A>G;42126660T>C;42126663G>C;42126667C>G;42522613C>G;42523211T>C;42523409T>G;42525132C>G;42525756G>A;42525908G>A;42525952A>C;42526484C>A;42526694G>A]
p7391
sg32
V1
p7392
sa(dp7393
g10
V*58
p7394
sg12
(lp7395
Vrs28588594
p7396
aVrs28735595
p7397
aVrs28624811
p7398
aVrs1080995
p7399
aVrs1080996
p7400
aVrs74644586
p7401
aVrs76312385
p7402
aVrs75276289
p7403
aVrs28695233
p7404
aVrs1081000
p7405
aVrs28371699
p7406
aVrs28371702
p7407
aVrs28371706
p7408
aVrs1058164
p7409
aVrs553846709
p7410
aVrs16947
p7411
aVrs1985842
p7412
aVrs28371730
p7413
aVrs4987144
p7414
aVrs1135840
p7415
asg28
VPA165971613
p7416
sg30
VNC_000022.10:g.[42522613C>G;42523003G>A;42523209C>T;42523409T>G;42523943G>A;42524929_42524937insGGGGCGAAA;42525132C>G;42525772G>A;42525952A>C;42526484C>A;42526549T>C;42526561T>G;42526562C>G;42526567A>G;42526571G>C;42526573G>T;42526580C>G;42527533G>A;42528028T>C;42528224G>A]
p7417
sg32
V1
p7418
sa(dp7419
g10
V*59
p7420
sg12
(lp7421
Vrs1058164
p7422
aVrs267608300
p7423
aVrs16947
p7424
aVrs79292917
p7425
aVrs1135840
p7426
asg28
VPA165971614
p7427
sg30
VNC_000022.10:g.[42522613C>G;42523854C>T;42523943G>A;42524502C>T;42525132C>G]
p7428
sg32
V1
p7429
sa(dp7430
g10
V*60
p7431
sg12
(lp7432
Vchr22:42128903 (hg19)
p7433
aVrs79738337
p7434
asg28
VPA165971615
p7435
sg30
VNC_000022.10:g.[42128903_42128904insTA;42524490G>A]
p7436
sg32
V1
p7437
sa(dp7438
g10
V*61
p7439
sg12
(lp7440
VCYP2D6 EU530607.1
p7441
asg28
VPA165971616
p7442
sg30
VEU530607.1
p7443
sg32
V1
p7444
sa(dp7445
g10
V*62
p7446
sg12
(lp7447
Vrs730882171
p7448
asg28
VPA165971617
p7449
sg30
VNC_000022.10:g.[42522749G>A]
p7450
sg32
V1
p7451
sa(dp7452
g10
V*63
p7453
sg12
(lp7454
VCYP2D6 EU530608.1
p7455
asg28
VPA165971618
p7456
sg30
VEU530608.1
p7457
sg32
V1
p7458
sa(dp7459
g10
V*64
p7460
sg12
(lp7461
Vrs28588594
p7462
aVrs28735595
p7463
aVrs1080989
p7464
aVrs1065852
p7465
aVrs28371699
p7466
aVrs28371702
p7467
aVrs28371706
p7468
aVrs1058164
p7469
aVrs2267447
p7470
aVrs1985842
p7471
aVrs2004511
p7472
aVrs1135840
p7473
aVrs28371738
p7474
asg28
VPA165971619
p7475
sg30
VNC_000022.10:g.[42522392G>A;42522613C>G;42523211T>C;42523409T>G;42524696T>C;42525132C>G;42525772G>A;42525952A>C;42526484C>A;42526694G>A;42527793C>T;42528028T>C;42528224G>A]
p7476
sg32
V1
p7477
sa(dp7478
g10
V*65
p7479
sg12
(lp7480
Vrs1065852
p7481
aVrs28371699
p7482
aVrs28371702
p7483
aVrs1058164
p7484
aVrs16947
p7485
aVrs1985842
p7486
aVrs28371730
p7487
aVrs4987144
p7488
aVrs1135840
p7489
aVrs12169962
p7490
asg28
VPA165971620
p7491
sg30
VNC_000022.10:g.[42522312C>T;42522613C>G;42523003G>A;42523209C>T;42523409T>G;42523943G>A;42525132C>G;42525952A>C;42526484C>A;42526694G>A]
p7492
sg32
V1
p7493
sa(dp7494
g10
V*69
p7495
sg12
(lp7496
Vrs28588594
p7497
aVrs28735595
p7498
aVrs1080989
p7499
aVrs1065852
p7500
aVrs28371699
p7501
aVrs28371701
p7502
aVrs28371702
p7503
aVrs267608289
p7504
aVrs1058164
p7505
aVrs16947
p7506
aVrs28371725
p7507
aVrs1985842
p7508
aVrs28371730
p7509
aVrs4987144
p7510
aVrs1135840
p7511
aVrs28371738
p7512
aVrs12169962
p7513
asg28
VPA165971621
p7514
sg30
VNC_000022.10:g.[42522312C>T;42522392G>A;42522613C>G;42523003G>A;42523209C>T;42523409T>G;42523805C>T;42523943G>A;42525132C>G;42525733T>C;42525952A>C;42526049G>C;42526484C>A;42526694G>A;42527793C>T;42528028T>C;42528224G>A]
p7515
sg32
V1
p7516
sa(dp7517
g10
V*70
p7518
sg12
(lp7519
Vrs1080993
p7520
aVrs28371699
p7521
aVrs28371702
p7522
aVrs374616348
p7523
aVrs61736512
p7524
aVrs1058164
p7525
aVrs59421388
p7526
aVrs1985842
p7527
aVrs1135840
p7528
asg28
VPA165971622
p7529
sg30
VNC_000022.10:g.[42522613C>G;42523409T>G;42523610C>T;42525132C>G;42525134C>T;42525185C>T;42525952A>C;42526484C>A;42526969C>T]
p7530
sg32
V1
p7531
sa(dp7532
g10
V*71
p7533
sg12
(lp7534
Vrs1080985
p7535
aVrs118203758
p7536
aVrs267608306
p7537
asg28
VPA165971623
p7538
sg30
VNC_000022.10:g.[42525299A>G;42526669C>T;42528382G>C]
p7539
sg32
V1
p7540
sa(dp7541
g10
V*72
p7542
sg12
(lp7543
Vrs28588594
p7544
aVrs28735595
p7545
aVrs1080989
p7546
aVrs1065852
p7547
aVrs28371699
p7548
aVrs28371702
p7549
aVrs1081003
p7550
aVrs1058164
p7551
aVrs2267447
p7552
aVrs75386357
p7553
aVrs1985842
p7554
aVrs2004511
p7555
aVrs1135840
p7556
aVrs28371738
p7557
asg28
VPA165971624
p7558
sg30
VNC_000022.10:g.[42522392G>A;42522613C>G;42523211T>C;42523409T>G;42523475C>T;42524696T>C;42525132C>G;42525756G>A;42525952A>C;42526484C>A;42526694G>A;42527793C>T;42528028T>C;42528224G>A]
p7559
sg32
V1
p7560
sa(dp7561
g10
V*73
p7562
sg12
(lp7563
Vrs28624811
p7564
aVrs1080995
p7565
aVrs1080996
p7566
aVrs74644586
p7567
aVrs76312385
p7568
aVrs75276289
p7569
aVrs28695233
p7570
aVrs1081000
p7571
aVrs28371699
p7572
aVrs28371701
p7573
aVrs28371702
p7574
aVrs267608308
p7575
aVrs1058164
p7576
aVrs16947
p7577
aVrs1985842
p7578
aVrs28371730
p7579
aVrs4987144
p7580
aVrs1135840
p7581
aVrs372465406
p7582
asg28
VPA165971625
p7583
sg30
VNC_000022.10:g.[42522258_42522258insA;42522613C>G;42523003G>A;42523209C>T;42523409T>G;42523943G>A;42525132C>G;42525782C>T;42525952A>C;42526049G>C;42526484C>A;42526549T>C;42526561T>G;42526562C>G;42526567A>G;42526571G>C;42526573G>T;42526580C>G;42527533G>A]
p7584
sg32
V1
p7585
sa(dp7586
g10
V*74
p7587
sg12
(lp7588
Vrs28371703
p7589
aVrs267608322
p7590
asg28
VPA165971626
p7591
sg30
VNC_000022.10:g.[42523184C>A;42525821G>T]
p7592
sg32
V1
p7593
sa(dp7594
g10
V*75
p7595
sg12
(lp7596
Vrs532668079
p7597
asg28
VPA165971627
p7598
sg30
VNC_000022.10:g.[42522748C>T]
p7599
sg32
V1
p7600
sa(dp7601
g10
V*1xN
p7602
sg12
(lp7603
sg28
VPA165988479
p7604
sg30
VNC_000022.10:g.[=]
p7605
sg32
VN
p7606
sa(dp7607
g10
V*2xN
p7608
sg12
(lp7609
Vrs1058164
p7610
aVrs16947
p7611
aVrs1135840
p7612
asg28
VPA165988480
p7613
sg30
VNC_000022.10:g.[42522613C>G;42523943G>A;42525132C>G]
p7614
sg32
VN
p7615
sa(dp7616
g10
V*13
p7617
sg12
(lp7618
VCYP2D6 EU098008.1; GQ162807.1; HM641839.1; HM641840.1; GQ162808.1; EU098009.1; EU093102.1; JN618990.1; HQ670229.1; GQ162806.1
p7619
asg28
VPA165988481
p7620
sg30
VEU098008.1; GQ162807.1; HM641839.1; HM641840.1; GQ162808.1; EU098009.1; EU093102.1; JN618990.1; HQ670229.1; GQ162806.1
p7621
sg32
V1
p7622
sa(dp7623
g10
V*14
p7624
sg12
(lp7625
Vrs5030865
p7626
aVrs16947
p7627
aVrs1135840
p7628
asg28
VPA165988482
p7629
sg30
VNC_000022.10:g.[42522613C>G;42523943G>A;42525035C>T]
p7630
sg32
V1
p7631
sa(dp7632
g10
V*21
p7633
sg12
(lp7634
Vrs1080995
p7635
aVrs1080996
p7636
aVrs74644586
p7637
aVrs76312385
p7638
aVrs75276289
p7639
aVrs28695233
p7640
aVrs1081000
p7641
aVrs1058164
p7642
aVchr22:42128217 (hg19)
p7643
aVrs16947
p7644
aVrs1135840
p7645
asg28
VPA165988484
p7646
sg30
VNC_000022.10:g.[42128217_42128217insG;42522613C>G;42523943G>A;42525132C>G;42526549T>C;42526561T>G;42526562C>G;42526567A>G;42526571G>C;42526573G>T;42526580C>G]
p7647
sg32
V1
p7648
sa(dp7649
g10
V*35
p7650
sg12
(lp7651
Vrs769258
p7652
aVrs1058164
p7653
aVrs16947
p7654
aVrs1135840
p7655
asg28
VPA165988487
p7656
sg30
VNC_000022.10:g.[42522613C>G;42523943G>A;42525132C>G;42526763C>T]
p7657
sg32
V1
p7658
sa(dp7659
g10
V*36
p7660
sg12
(lp7661
Vrs28588594
p7662
aVrs28735595
p7663
aVrs1080989
p7664
aVrs1065852
p7665
aVrs28371699
p7666
aVrs28371702
p7667
aVrs1081003
p7668
aVrs1058164
p7669
aVrs2267447
p7670
aVrs1985842
p7671
aVrs2004511
p7672
aVrs199767157
p7673
aVchr22:42126663 (hg19)
p7674
aVchr22:42126660 (hg19)
p7675
aVchr22:42126658 (hg19)
p7676
aVchr22:42126636 (hg19)
p7677
aVchr22:42126635 (hg19)
p7678
aVrs370146597
p7679
aVchr22:42126627 (hg19)
p7680
aVchr22:42126625 (hg19)
p7681
aVchr22:42126624 (hg19)
p7682
aVchr22:42126623 (hg19)
p7683
aVchr22:42126622 (hg19)
p7684
aVchr22:42126619 (hg19)
p7685
aVrs1135840
p7686
asg28
VPA165988488
p7687
sg30
VNC_000022.10:g.[42126619G>A;42126622A>G;42126623G>C;42126624C>T;42126625A>G;42126627A>C;42126633C>G;42126635T>G;42126636G>A;42126658A>G;42126660T>C;42126663G>C;42126667C>G;42522613C>G;42523211T>C;42523409T>G;42524696T>C;42525132C>G;42525756G>A;42525952A>C;42526484C>A;42526694G>A;42527793C>T;42528028T>C;42528224G>A]
p7688
sg32
V1
p7689
sa(dp7690
g10
V*45
p7691
sg12
(lp7692
Vrs28371699
p7693
aVrs28371701
p7694
aVrs28371702
p7695
aVrs1058164
p7696
aVrs28371710
p7697
aVrs28371718
p7698
aVrs76015180
p7699
aVrs16947
p7700
aVrs28371726
p7701
aVrs1985842
p7702
aVrs28371730
p7703
aVrs4987144
p7704
aVrs1135840
p7705
asg28
VPA165988489
p7706
sg30
VNC_000022.10:g.[42522613C>G;42523003G>A;42523209C>T;42523409T>G;42523539A>G;42523943G>A;42524132C>T;42524218G>T;42525077C>T;42525132C>G;42525952A>C;42526049G>C;42526484C>A]
p7707
sg32
V1
p7708
sa(dp7709
g10
V*45xN
p7710
sg12
(lp7711
Vrs28371699
p7712
aVrs28371701
p7713
aVrs28371702
p7714
aVrs1058164
p7715
aVrs28371710
p7716
aVrs28371718
p7717
aVrs76015180
p7718
aVrs16947
p7719
aVrs28371726
p7720
aVrs1985842
p7721
aVrs28371730
p7722
aVrs4987144
p7723
aVrs1135840
p7724
asg28
VPA165988490
p7725
sg30
VNC_000022.10:g.[42522613C>G;42523003G>A;42523209C>T;42523409T>G;42523539A>G;42523943G>A;42524132C>T;42524218G>T;42525077C>T;42525132C>G;42525952A>C;42526049G>C;42526484C>A]
p7726
sg32
VN
p7727
sa(dp7728
g10
V*56
p7729
sg12
(lp7730
Vrs1058164
p7731
aVrs147960066
p7732
aVrs1985842
p7733
aVrs1135840
p7734
asg28
VPA165988494
p7735
sg30
VNC_000022.10:g.[42522613C>G;42523409T>G;42523592G>A;42525132C>G]
p7736
sg32
V1
p7737
sa(dp7738
g10
V*39
p7739
sg12
(lp7740
Vrs1058164
p7741
aVrs1135840
p7742
asg28
VPA166001447
p7743
sg30
VNC_000022.10:g.[42522613C>G;42525132C>G]
p7744
sg32
V1
p7745
sa(dp7746
g10
V*41x2
p7747
sg12
(lp7748
Vrs28735595
p7749
aVrs28624811
p7750
aVrs28633410
p7751
aVrs1080995
p7752
aVrs1080996
p7753
aVrs74644586
p7754
aVrs76312385
p7755
aVrs75276289
p7756
aVrs28695233
p7757
aVrs1081000
p7758
aVrs1058164
p7759
aVrs16947
p7760
aVrs28371725
p7761
aVrs1135840
p7762
asg28
VPA166128209
p7763
sg30
VNC_000022.10:g.[42522613C>G;42523805C>T;42523943G>A;42525132C>G;42526549T>C;42526561T>G;42526562C>G;42526567A>G;42526571G>C;42526573G>T;42526580C>G;42527471C>T;42527533G>A;42528028T>C]
p7764
sg32
V2
p7765
sa(dp7766
g10
V*107
p7767
sg12
(lp7768
Vrs61736512
p7769
asg28
VPA166129550
p7770
sg30
VNC_000022.10:g.[42525134C>T]
p7771
sg32
V1
p7772
sa(dp7773
g10
V*108
p7774
sg12
(lp7775
Vrs61736517
p7776
aVrs202102799
p7777
asg28
VPA166129551
p7778
sg30
VNC_000022.10:g.[42523558T>C;42523567T>C]
p7779
sg32
V1
p7780
sa(dp7781
g10
V*109
p7782
sg12
(lp7783
Vrs1080990
p7784
aVrs5030656
p7785
aVrs59421388
p7786
asg28
VPA166129552
p7787
sg30
VNC_000022.10:g.[42523610C>T;42524176_42524178delCTT;42527753C>G]
p7788
sg32
V1
p7789
sa(dp7790
g10
V*4P
p7791
sg12
(lp7792
Vrs28588594
p7793
aVrs28735595
p7794
aVrs1080989
p7795
aVrs1065852
p7796
aVrs28371699
p7797
aVrs28371701
p7798
aVrs28371702
p7799
aVrs28371703
p7800
aVrs28371704
p7801
aVrs28371705
p7802
aVrs1058164
p7803
aVrs3892097
p7804
aVrs2267447
p7805
aVrs369762769
p7806
aVrs1985842
p7807
aVrs28371729
p7808
aVrs2004511
p7809
aVrs28371738
p7810
asg28
VPA166123308
p7811
sg30
VNC_000022.10:g.[42128215G>A;42522392G>A;42523211T>C;42523358G>T;42523409T>G;42524696T>C;42524947C>T;42525132C>G;42525798G>C;42525811T>C;42525821G>T;42525952A>C;42526049G>C;42526484C>A;42526694G>A;42527793C>T;42528028T>C;42528224G>A]
p7812
sg32
V1
p7813
sa(dp7814
g10
V*9x2
p7815
sg12
(lp7816
Vrs5030656
p7817
asg28
VPA166123309
p7818
sg30
VNC_000022.10:g.[42524176_42524178delCTT]
p7819
sg32
V2
p7820
sa(dp7821
g10
V*81
p7822
sg12
(lp7823
Vrs367543000
p7824
aVrs77913725
p7825
aVrs1135828
p7826
asg28
VPA166123321
p7827
sg30
VNC_000022.10:g.[42524183A>T;42524187C>T;42524214G>A]
p7828
sg32
V1
p7829
sa(dp7830
g10
V*82
p7831
sg12
(lp7832
Vrs28371703
p7833
aVrs28371704
p7834
aVrs28371705
p7835
aVrs76187628
p7836
aVrs74802369
p7837
aVrs28371706
p7838
aVrs78459009
p7839
aVrs1135821
p7840
asg28
VPA166123322
p7841
sg30
VNC_000022.10:g.[42525759A>G;42525767T>C;42525772G>T;42525773T>A;42525781A>G;42525798G>C;42525811T>C;42525821G>T]
p7842
sg32
V1
p7843
sa(dp7844
g10
V*83
p7845
sg12
(lp7846
Vrs28371702
p7847
aVrs199767157
p7848
aVchr22:42126663 (hg19)
p7849
aVchr22:42126660 (hg19)
p7850
aVchr22:42126658 (hg19)
p7851
aVchr22:42126636 (hg19)
p7852
aVchr22:42126635 (hg19)
p7853
aVrs370146597
p7854
aVchr22:42126627 (hg19)
p7855
aVchr22:42126625 (hg19)
p7856
aVchr22:42126624 (hg19)
p7857
aVchr22:42126623 (hg19)
p7858
aVchr22:42126622 (hg19)
p7859
aVchr22:42126619 (hg19)
p7860
aVrs1135840
p7861
asg28
VPA166123323
p7862
sg30
VNC_000022.10:g.[42126619G>A;42126622A>G;42126623G>C;42126624C>T;42126625A>G;42126627A>C;42126633C>G;42126635T>G;42126636G>A;42126658A>G;42126660T>C;42126663G>C;42126667C>G;42522613C>G;42525952A>C]
p7863
sg32
V1
p7864
sa(dp7865
g10
V*84
p7866
sg12
(lp7867
Vrs58188898
p7868
aVrs28735595
p7869
aVrs28624811
p7870
aVrs28633410
p7871
aVrs148382141
p7872
aVrs1080995
p7873
aVrs1080996
p7874
aVrs74644586
p7875
aVrs76312385
p7876
aVrs75276289
p7877
aVrs28695233
p7878
aVrs1081000
p7879
aVrs28371699
p7880
aVrs28371701
p7881
aVrs28371702
p7882
aVrs1058164
p7883
aVrs148769737
p7884
aVrs16947
p7885
aVrs1985842
p7886
aVrs267608292
p7887
aVrs28371730
p7888
aVrs4987144
p7889
aVrs1135840
p7890
aVrs12169962
p7891
asg28
VPA166123324
p7892
sg30
VNC_000022.10:g.[42522312C>T;42522613C>G;42523003G>A;42523209C>T;42523302C>T;42523409T>G;42523943G>A;42524219G>T;42525132C>G;42525952A>C;42526049G>C;42526484C>A;42526549T>C;42526561T>G;42526562C>G;42526567A>G;42526571G>C;42526573G>T;42526580C>G;42526776C>T;42527471C>T;42527533G>A;42528028T>C;42528538G>A]
p7893
sg32
V1
p7894
sa(dp7895
g10
V*85
p7896
sg12
(lp7897
Vrs58188898
p7898
aVrs59099247
p7899
aVrs28735595
p7900
aVrs28624811
p7901
aVrs151226748
p7902
aVrs28371699
p7903
aVrs575159870
p7904
aVrs28371701
p7905
aVrs28371702
p7906
aVrs67497403
p7907
aVrs1058164
p7908
aVrs188062577
p7909
aVrs16947
p7910
aVrs1985842
p7911
aVrs28371730
p7912
aVrs4987144
p7913
aVchr22:42126634 (hg19)
p7914
aVrs1135840
p7915
asg28
VPA166123325
p7916
sg30
VNC_000022.10:g.[42126634A>C;42522613C>G;42523003G>A;42523209C>T;42523409T>G;42523943G>A;42524485C>T;42525132C>G;42525280G>A;42525952A>C;42526049G>C;42526188C>T;42526484C>A;42526692T>C;42527533G>A;42528028T>C;42528096C>T;42528538G>A]
p7917
sg32
V1
p7918
sa(dp7919
g10
V*86
p7920
sg12
(lp7921
Vrs77913725
p7922
aVrs1135828
p7923
asg28
VPA166123326
p7924
sg30
VNC_000022.10:g.[42524183A>T;42524187C>T]
p7925
sg32
V1
p7926
sa(dp7927
g10
V*87
p7928
sg12
(lp7929
Vrs773790593
p7930
aVrs1065852
p7931
aVrs28371699
p7932
aVrs28371702
p7933
aVrs1081003
p7934
aVrs1058164
p7935
aVrs1135840
p7936
asg28
VPA166123327
p7937
sg30
VNC_000022.10:g.[42522613C>G;42525132C>G;42525756G>A;42525952A>C;42526484C>A;42526694G>A;42526780G>A]
p7938
sg32
V1
p7939
sa(dp7940
g10
V*88
p7941
sg12
(lp7942
Vrs1080995
p7943
aVrs1080996
p7944
aVrs74644586
p7945
aVrs76312385
p7946
aVrs75276289
p7947
aVrs28695233
p7948
aVrs1081000
p7949
aVrs28371701
p7950
aVrs28371702
p7951
aVrs76187628
p7952
aVrs1058164
p7953
aVrs1985842
p7954
aVrs28371730
p7955
aVrs4987144
p7956
aVrs1135840
p7957
asg28
VPA166123328
p7958
sg30
VNC_000022.10:g.[42522613C>G;42523003G>A;42523209C>T;42523409T>G;42525132C>G;42525781A>G;42525952A>C;42526049G>C;42526549T>C;42526561T>G;42526562C>G;42526567A>G;42526571G>C;42526573G>T;42526580C>G]
p7959
sg32
V1
p7960
sa(dp7961
g10
V*89
p7962
sg12
(lp7963
Vrs375135093
p7964
asg28
VPA166123329
p7965
sg30
VNC_000022.10:g.[42525115A>G]
p7966
sg32
V1
p7967
sa(dp7968
g10
V*90
p7969
sg12
(lp7970
Vrs569229126
p7971
asg28
VPA166123330
p7972
sg30
VNC_000022.10:g.[42525100T>C]
p7973
sg32
V1
p7974
sa(dp7975
g10
V*91
p7976
sg12
(lp7977
Vchr22:42129056 (hg19)
p7978
aVrs16947
p7979
aVrs28371725
p7980
asg28
VPA166123331
p7981
sg30
VNC_000022.10:g.[42129056C>G;42523805C>T;42523943G>A]
p7982
sg32
V1
p7983
sa(dp7984
g10
V*92
p7985
sg12
(lp7986
Vchr22:42128796 (hg19)
p7987
asg28
VPA166123332
p7988
sg30
VNC_000022.10:g.[42128796_42128796delG]
p7989
sg32
V1
p7990
sa(dp7991
g10
V*93
p7992
sg12
(lp7993
Vrs376326826
p7994
asg28
VPA166123333
p7995
sg30
VNC_000022.10:g.[42128272T>G]
p7996
sg32
V1
p7997
sa(dp7998
g10
V*94A
p7999
sg12
(lp8000
Vrs1065852
p8001
aVrs28371699
p8002
aVrs28371702
p8003
aVrs1081003
p8004
aVrs1058164
p8005
aVrs748712690
p8006
aVrs1135840
p8007
asg28
VPA166123334
p8008
sg30
VNC_000022.10:g.[42522613C>G;42523612T>C;42525132C>G;42525756G>A;42525952A>C;42526484C>A;42526694G>A]
p8009
sg32
V1
p8010
sa(dp8011
g10
V*94B
p8012
sg12
(lp8013
Vrs1065852
p8014
aVrs28371702
p8015
aVrs1081003
p8016
aVrs1058164
p8017
aVrs748712690
p8018
aVrs1985842
p8019
aVrs1135840
p8020
asg28
VPA166123335
p8021
sg30
VNC_000022.10:g.[42522613C>G;42523409T>G;42523612T>C;42525132C>G;42525756G>A;42525952A>C;42526694G>A]
p8022
sg32
V1
p8023
sa(dp8024
g10
V*95
p8025
sg12
(lp8026
Vrs1065852
p8027
aVrs28371702
p8028
aVrs1081003
p8029
aVrs1058164
p8030
aVrs77312092
p8031
aVrs1985842
p8032
aVrs1135840
p8033
asg28
VPA166123336
p8034
sg30
VNC_000022.10:g.[42522613C>G;42523409T>G;42523459C>T;42525132C>G;42525756G>A;42525952A>C;42526694G>A]
p8035
sg32
V1
p8036
sa(dp8037
g10
V*96
p8038
sg12
(lp8039
Vrs763964554
p8040
asg28
VPA166123337
p8041
sg30
VNC_000022.10:g.[42522898G>A]
p8042
sg32
V1
p8043
sa(dp8044
g10
V*97
p8045
sg12
(lp8046
Vchr22:42126697 (hg19)
p8047
asg28
VPA166123338
p8048
sg30
VNC_000022.10:g.[42126697G>T]
p8049
sg32
V1
p8050
sa(dp8051
g10
V*98
p8052
sg12
(lp8053
Vrs1080995
p8054
aVrs1080996
p8055
aVrs74644586
p8056
aVrs76312385
p8057
aVrs75276289
p8058
aVrs28695233
p8059
aVrs1081000
p8060
aVrs28371701
p8061
aVrs28371702
p8062
aVrs1058164
p8063
aVrs16947
p8064
aVrs1985842
p8065
aVrs28371730
p8066
aVrs4987144
p8067
aVchr22:42126681 (hg19)
p8068
aVrs1135840
p8069
asg28
VPA166123339
p8070
sg30
VNC_000022.10:g.[42126681G>C;42522613C>G;42523003G>A;42523209C>T;42523409T>G;42523943G>A;42525132C>G;42525952A>C;42526049G>C;42526549T>C;42526561T>G;42526562C>G;42526567A>G;42526571G>C;42526573G>T;42526580C>G]
p8071
sg32
V1
p8072
sa(dp8073
g10
V*100
p8074
sg12
(lp8075
Vrs28588594
p8076
aVrs28735595
p8077
aVrs267608271
p8078
aVrs1080989
p8079
aVrs1065852
p8080
aVrs28371699
p8081
aVrs28371702
p8082
aVrs1081003
p8083
aVrs1058164
p8084
aVrs2267447
p8085
aVrs267608279
p8086
aVrs1985842
p8087
aVrs2004511
p8088
aVrs1135840
p8089
aVrs28371738
p8090
asg28
VPA166123340
p8091
sg30
VNC_000022.10:g.[42522392G>A;42522613C>G;42523211T>C;42523409T>G;42523965_42523965delG;42524696T>C;42525132C>G;42525756G>A;42525952A>C;42526484C>A;42526694G>A;42527793C>T;42527902G>A;42528028T>C;42528224G>A]
p8092
sg32
V1
p8093
sa(dp8094
g10
V*101
p8095
sg12
(lp8096
Vrs28588594
p8097
aVrs28735595
p8098
aVrs1080989
p8099
aVrs1065852
p8100
aVrs28371699
p8101
aVrs28371702
p8102
aVrs1081003
p8103
aVrs1058164
p8104
aVrs2267447
p8105
aVrs730882170
p8106
aVrs1985842
p8107
aVrs2004511
p8108
aVrs1135840
p8109
aVrs28371738
p8110
asg28
VPA166123341
p8111
sg30
VNC_000022.10:g.[42522392G>A;42522613C>G;42523211T>C;42523409T>G;42523848_42523866delCACATCCGGATGTAGGATC;42524696T>C;42525132C>G;42525756G>A;42525952A>C;42526484C>A;42526694G>A;42527793C>T;42528028T>C;42528224G>A]
p8112
sg32
V1
p8113
sa(dp8114
g10
V*102
p8115
sg12
(lp8116
Vrs1080995
p8117
aVrs1080996
p8118
aVrs74644586
p8119
aVrs76312385
p8120
aVrs75276289
p8121
aVrs28695233
p8122
aVrs1081000
p8123
aVrs28371699
p8124
aVrs267608309
p8125
aVrs1058164
p8126
aVrs16947
p8127
aVrs1985842
p8128
aVrs4987144
p8129
aVrs1135840
p8130
aVrs12169962
p8131
asg28
VPA166123342
p8132
sg30
VNC_000022.10:g.[42522312C>T;42522613C>G;42523003G>A;42523409T>G;42523943G>A;42525132C>G;42525823G>A;42526484C>A;42526549T>C;42526561T>G;42526562C>G;42526567A>G;42526571G>C;42526573G>T;42526580C>G]
p8133
sg32
V1
p8134
sa(dp8135
g10
V*103
p8136
sg12
(lp8137
Vrs1080995
p8138
aVrs1080996
p8139
aVrs74644586
p8140
aVrs76312385
p8141
aVrs75276289
p8142
aVrs28695233
p8143
aVrs1081000
p8144
aVrs28371699
p8145
aVrs267608309
p8146
aVrs1058164
p8147
aVrs1135824
p8148
aVrs16947
p8149
aVrs1985842
p8150
aVrs4987144
p8151
aVrs1135840
p8152
aVrs12169962
p8153
asg28
VPA166123343
p8154
sg30
VNC_000022.10:g.[42522312C>T;42522613C>G;42523003G>A;42523409T>G;42523943G>A;42525044T>C;42525132C>G;42525823G>A;42526484C>A;42526549T>C;42526561T>G;42526562C>G;42526567A>G;42526571G>C;42526573G>T;42526580C>G]
p8155
sg32
V1
p8156
sa(dp8157
g10
V*104
p8158
sg12
(lp8159
Vrs1080995
p8160
aVrs1080996
p8161
aVrs74644586
p8162
aVrs76312385
p8163
aVrs75276289
p8164
aVrs28695233
p8165
aVrs1081000
p8166
aVrs28371699
p8167
aVrs28371702
p8168
aVrs1058164
p8169
aVchr22:42129071 (hg19)
p8170
aVrs16947
p8171
aVrs1985842
p8172
aVrs4987144
p8173
aVrs1135840
p8174
aVrs12169962
p8175
asg28
VPA166123344
p8176
sg30
VNC_000022.10:g.[42129071T>A;42522312C>T;42522613C>G;42523003G>A;42523409T>G;42523943G>A;42525132C>G;42525952A>C;42526484C>A;42526549T>C;42526561T>G;42526562C>G;42526567A>G;42526571G>C;42526573G>T;42526580C>G]
p8177
sg32
V1
p8178
sa(dp8179
g10
V*105
p8180
sg12
(lp8181
Vrs1080995
p8182
aVrs1080996
p8183
aVrs74644586
p8184
aVrs76312385
p8185
aVrs75276289
p8186
aVrs28695233
p8187
aVrs1081000
p8188
aVrs28371699
p8189
aVrs28371701
p8190
aVrs28371702
p8191
aVrs1058164
p8192
aVrs16947
p8193
aVchr22:42127523 (hg19)
p8194
aVrs1985842
p8195
aVrs4987144
p8196
aVrs1135840
p8197
aVrs12169962
p8198
asg28
VPA166123345
p8199
sg30
VNC_000022.10:g.[42127523A>G;42522312C>T;42522613C>G;42523003G>A;42523409T>G;42523943G>A;42525132C>G;42525952A>C;42526049G>C;42526484C>A;42526549T>C;42526561T>G;42526562C>G;42526567A>G;42526571G>C;42526573G>T;42526580C>G]
p8200
sg32
V1
p8201
sa(dp8202
g10
V*4xN
p8203
sg12
(lp8204
Vrs1065852
p8205
aVrs28371703
p8206
aVrs28371704
p8207
aVrs28371705
p8208
aVrs1058164
p8209
aVrs3892097
p8210
aVrs1135840
p8211
asg28
VPA166123455
p8212
sg30
VNC_000022.10:g.[42522613C>G;42524947C>T;42525132C>G;42525798G>C;42525811T>C;42525821G>T;42526694G>A]
p8213
sg32
VN
p8214
sa(dp8215
g10
V*10x2
p8216
sg12
(lp8217
Vrs1065852
p8218
aVrs1058164
p8219
aVrs1135840
p8220
asg28
VPA166123456
p8221
sg30
VNC_000022.10:g.[42522613C>G;42525132C>G;42526694G>A]
p8222
sg32
V2
p8223
sa(dp8224
g10
V*17x2
p8225
sg12
(lp8226
Vrs28371706
p8227
aVrs1058164
p8228
aVrs16947
p8229
aVrs1135840
p8230
asg28
VPA166123457
p8231
sg30
VNC_000022.10:g.[42522613C>G;42523943G>A;42525132C>G;42525772G>A]
p8232
sg32
V2
p8233
sa(dp8234
g10
V*3xN
p8235
sg12
(lp8236
Vrs35742686
p8237
asg28
VPA166128733
p8238
sg30
VNC_000022.10:g.[42524244_42524244delT]
p8239
sg32
VN
p8240
sa(dp8241
g10
V*6xN
p8242
sg12
(lp8243
Vrs5030655
p8244
asg28
VPA166128734
p8245
sg30
VNC_000022.10:g.[42525086_42525086delA]
p8246
sg32
VN
p8247
sa(dp8248
g10
V*29x2
p8249
sg12
(lp8250
Vrs61736512
p8251
aVrs1058164
p8252
aVrs16947
p8253
aVrs59421388
p8254
aVrs1135840
p8255
asg28
VPA166128735
p8256
sg30
VNC_000022.10:g.[42522613C>G;42523610C>T;42523943G>A;42525132C>G;42525134C>T]
p8257
sg32
V2
p8258
sa(dp8259
g10
V*68
p8260
sg12
(lp8261
VCYP2D6 JF307779.1
p8262
asg28
VPA166128736
p8263
sg30
VJF307779.1
p8264
sg32
V1
p8265
sa(dp8266
g10
V*94
p8267
sg12
(lp8268
Vrs1065852
p8269
aVrs28371702
p8270
aVrs1081003
p8271
aVrs1058164
p8272
aVrs748712690
p8273
aVrs1135840
p8274
asg28
VPA166128737
p8275
sg30
VNC_000022.10:g.[42522613C>G;42523612T>C;42525132C>G;42525756G>A;42525952A>C;42526694G>A]
p8276
sg32
V1
p8277
sasg270
VCYP2D6
p8278
sg28
VPA128
p8279
sa(dp8280
g2
(lp8281
sg7
(lp8282
sg270
VPPARA
p8283
sg28
VPA280
p8284
sa.