(lp0
(dp1
S'alias'
p2
(dp3
S'genomic'
p4
(lp5
VNC_000001.10:g.97547947T>A
p6
aVNC_000001.11:g.97082391T>A
p7
aVNG_008807.2:g.843669A>T
p8
asS'protein'
p9
(lp10
VNP_000101.2:p.Asp949Val
p11
aVXP_005270618.1:p.Asp912Val
p12
aVXP_005270619.1:p.Asp877Val
p13
aVXP_005270619.2:p.Asp877Val
p14
asS'nucleotide'
p15
(lp16
sS'coding'
p17
(lp18
VNM_000110.3:c.2846A>T
p19
aVXM_005270561.1:c.2735A>T
p20
aVXM_005270562.1:c.2630A>T
p21
aVXM_005270562.3:c.2630A>T
p22
asS'rsid'
p23
(lp24
Vrs199469564
p25
aVrs386467430
p26
aVrs67376799
p27
assS'hg19pos'
p28
I97547947
sS'gene'
p29
(dp30
S'symbol'
p31
VDPYD
p32
sS'id'
p33
VPA145
p34
ssS'call'
p35
(dp36
S'alt'
p37
(lp38
ccopy_reg
_reconstructor
p39
(cvcf.model
_Substitution
p40
c__builtin__
object
p41
Ntp42
Rp43
(dp44
S'type'
p45
S'SNV'
p46
sS'sequence'
p47
S'A'
p48
sbasS'num'
p49
S'0/1'
p50
sS'ref'
p51
S'T'
p52
ssg23
S'rs67376798'
p53
sa(dp54
g2
(dp55
g4
(lp56
VNC_000001.10:g.97770920C>T
p57
aVNC_000001.11:g.97305364C>T
p58
aVNG_008807.2:g.620696G>A
p59
asg9
(lp60
VNP_000101.2:p.Val732Ile
p61
aVXP_005270618.1:p.Val695Ile
p62
aVXP_005270619.1:p.Val660Ile
p63
aVXP_005270619.2:p.Val660Ile
p64
aVXP_005270620.1:p.Val732Ile
p65
aVXP_006710460.1:p.Val732Ile
p66
asg15
(lp67
VNR_046590.1:n.129-825C>T
p68
asg17
(lp69
VNM_000110.3:c.2194G>A
p70
aVXM_005270561.1:c.2083G>A
p71
aVXM_005270562.1:c.1978G>A
p72
aVXM_005270562.3:c.1978G>A
p73
aVXM_005270563.1:c.2194G>A
p74
aVXM_006710397.2:c.2194G>A
p75
asg23
(lp76
Vrs12720467
p77
aVrs12720468
p78
aVrs199469554
p79
assg28
I97770920
sg29
(dp80
g31
VDPYD
p81
sg33
VPA145
p82
ssg35
(dp83
g37
(lp84
g39
(g40
g41
Ntp85
Rp86
(dp87
g45
g46
sg47
g48
sbag39
(g40
g41
Ntp88
Rp89
(dp90
g45
g46
sg47
S'G'
p91
sbasg49
S'0/1'
p92
sg51
S'C'
p93
ssg23
S'rs1801160'
p94
sa(dp95
g2
(dp96
g4
(lp97
VNC_000001.10:g.97915614C>T
p98
aVNC_000001.11:g.97450058C>T
p99
aVNG_008807.2:g.476002G>A
p100
asg9
(lp101
sg15
(lp102
sg17
(lp103
VNM_000110.3:c.1905+1G>A
p104
aVXM_005270561.1:c.1794+1G>A
p105
aVXM_005270562.1:c.1689+1G>A
p106
aVXM_005270562.3:c.1689+1G>A
p107
aVXM_005270563.1:c.1905+1G>A
p108
aVXM_006710397.2:c.1905+1G>A
p109
asg23
(lp110
Vrs199469548
p111
aVrs386589337
p112
assg28
I97915614
sg29
(dp113
g31
VDPYD
p114
sg33
VPA145
p115
ssg35
(dp116
g37
(lp117
g39
(g40
g41
Ntp118
Rp119
(dp120
g45
g46
sg47
g48
sbag39
(g40
g41
Ntp121
Rp122
(dp123
g45
g46
sg47
g91
sbasg49
S'0/1'
p124
sg51
g93
ssg23
S'rs3918290'
p125
sa(dp126
g2
(dp127
g4
(lp128
VNC_000001.10:g.97915624A>G
p129
aVNC_000001.11:g.97450068A>G
p130
aVNG_008807.2:g.475992T>C
p131
asg9
(lp132
VNP_000101.2:p.Phe632=
p133
aVXP_005270618.1:p.Phe595=
p134
aVXP_005270619.1:p.Phe560=
p135
aVXP_005270619.2:p.Phe560=
p136
aVXP_005270620.1:p.Phe632=
p137
aVXP_006710460.1:p.Phe632=
p138
asg15
(lp139
sg17
(lp140
VNM_000110.3:c.1896T>C
p141
aVXM_005270561.1:c.1785T>C
p142
aVXM_005270562.1:c.1680T>C
p143
aVXM_005270562.3:c.1680T>C
p144
aVXM_005270563.1:c.1896T>C
p145
aVXM_006710397.2:c.1896T>C
p146
asg23
(lp147
Vrs117467766
p148
aVrs52815410
p149
aVrs58485702
p150
assg28
I97915624
sg29
(dp151
g31
VDPYD
p152
sg33
VPA145
p153
ssg35
(dp154
g37
(lp155
g39
(g40
g41
Ntp156
Rp157
(dp158
g45
g46
sg47
g91
sbasg49
S'0/1'
p159
sg51
g48
ssg23
S'rs17376848'
p160
sa(dp161
g2
(dp162
g4
(lp163
VNC_000001.10:g.97981343A>C
p164
aVNC_000001.11:g.97515787A>C
p165
aVNG_008807.2:g.410273T>G
p166
asg9
(lp167
VNP_000101.2:p.Ile560Ser
p168
aVXP_005270618.1:p.Ile523Ser
p169
aVXP_005270620.1:p.Ile560Ser
p170
aVXP_005270621.1:p.Ile560Ser
p171
aVXP_006710460.1:p.Ile560Ser
p172
asg15
(lp173
sg17
(lp174
VNM_000110.3:c.1679T>G
p175
aVXM_005270561.1:c.1568T>G
p176
aVXM_005270562.1:c.1524+33773T>G
p177
aVXM_005270562.3:c.1524+33773T>G
p178
aVXM_005270563.1:c.1679T>G
p179
aVXM_005270564.1:c.1679T>G
p180
aVXM_006710397.2:c.1679T>G
p181
asg23
(lp182
Vrs199469542
p183
assg28
I97981343
sg29
(dp184
g31
VDPYD
p185
sg33
VPA145
p186
ssg35
(dp187
g37
(lp188
g39
(g40
g41
Ntp189
Rp190
(dp191
g45
g46
sg47
g93
sbag39
(g40
g41
Ntp192
Rp193
(dp194
g45
g46
sg47
g52
sbasg49
S'0/1'
p195
sg51
g48
ssg23
S'rs55886062'
p196
sa(dp197
g2
(dp198
g4
(lp199
VNC_000001.10:g.97981421C>T
p200
aVNC_000001.11:g.97515865C>T
p201
aVNG_008807.2:g.410195G>A
p202
asg9
(lp203
VNP_000101.2:p.Ser534Asn
p204
aVXP_005270618.1:p.Ser497Asn
p205
aVXP_005270620.1:p.Ser534Asn
p206
aVXP_005270621.1:p.Ser534Asn
p207
aVXP_006710460.1:p.Ser534Asn
p208
asg15
(lp209
sg17
(lp210
VNM_000110.3:c.1601G>A
p211
aVXM_005270561.1:c.1490G>A
p212
aVXM_005270562.1:c.1524+33695G>A
p213
aVXM_005270562.3:c.1524+33695G>A
p214
aVXM_005270563.1:c.1601G>A
p215
aVXM_005270564.1:c.1601G>A
p216
aVXM_006710397.2:c.1601G>A
p217
asg23
(lp218
Vrs199469539
p219
aVrs52824375
p220
aVrs59516208
p221
assg28
I97981421
sg29
(dp222
g31
VDPYD
p223
sg33
VPA145
p224
ssg35
(dp225
g37
(lp226
g39
(g40
g41
Ntp227
Rp228
(dp229
g45
g46
sg47
g48
sbag39
(g40
g41
Ntp230
Rp231
(dp232
g45
g46
sg47
g91
sbasg49
S'0/1'
p233
sg51
g93
ssg23
S'rs1801158'
p234
sa(dp235
g2
(dp236
g4
(lp237
VNC_000001.10:g.98039419C>T
p238
aVNC_000001.11:g.97573863C>T
p239
aVNG_008807.2:g.352197G>A
p240
asg9
(lp241
VNP_000101.2:p.Glu412=
p242
aVXP_005270618.1:p.Glu375=
p243
aVXP_005270619.1:p.Glu412=
p244
aVXP_005270619.2:p.Glu412=
p245
aVXP_005270620.1:p.Glu412=
p246
aVXP_005270621.1:p.Glu412=
p247
aVXP_006710460.1:p.Glu412=
p248
asg15
(lp249
sg17
(lp250
VNM_000110.3:c.1236G>A
p251
aVXM_005270561.1:c.1125G>A
p252
aVXM_005270562.1:c.1236G>A
p253
aVXM_005270562.3:c.1236G>A
p254
aVXM_005270563.1:c.1236G>A
p255
aVXM_005270564.1:c.1236G>A
p256
aVXM_006710397.2:c.1236G>A
p257
asg23
(lp258
Vrs199469533
p259
aVrs61730901
p260
assg28
I98039419
sg29
(dp261
g31
VDPYD
p262
sg33
VPA145
p263
ssg35
(dp264
g37
(lp265
g39
(g40
g41
Ntp266
Rp267
(dp268
g45
g46
sg47
g52
sbasg49
S'0/1'
p269
sg51
g93
ssg23
S'rs56038477'
p270
sa(dp271
g2
(dp272
g4
(lp273
VNC_000002.11:g.136608646G>A
p274
aVNC_000002.12:g.135851076G>A
p275
aVNG_008958.1:g.30366C>T
p276
aVNG_008104.2:g.9094C>T
p277
asg9
(lp278
sg15
(lp279
sg17
(lp280
VNM_005915.5:c.1917+326C>T
p281
asg23
(lp282
ssg28
I136608646
sg29
(dp283
g31
S'MCM6'
p284
sg33
S'4175'
p285
ssg35
(dp286
g37
(lp287
g39
(g40
g41
Ntp288
Rp289
(dp290
g45
g46
sg47
g93
sbag39
(g40
g41
Ntp291
Rp292
(dp293
g45
g46
sg47
g52
sbasg49
S'0/1'
p294
sg51
g91
ssg23
S'rs4988235'
p295
sa(dp296
g2
(dp297
g4
(lp298
VNC_000002.11:g.234578428C>T
p299
aVNC_000002.12:g.233669782C>T
p300
aVNG_002601.2:g.85039C>T
p301
asg9
(lp302
sg15
(lp303
sg17
(lp304
VNM_019075.2:c.855+32405C>T
p305
aVNM_019076.4:c.855+51220C>T
p306
asg23
(lp307
ssg28
I234578428
sg29
(dp308
g31
VUGT1A10
p309
sg33
VPA37174
p310
ssg35
(dp311
g37
(lp312
g39
(g40
g41
Ntp313
Rp314
(dp315
g45
g46
sg47
g52
sbasg49
S'0/1'
p316
sg51
g93
ssg23
S'rs17868320'
p317
sa(dp318
g2
(dp319
g4
(lp320
VNC_000002.11:g.234580305T>A
p321
aVNC_000002.12:g.233671659T>A
p322
aVNG_002601.2:g.86916T>A
p323
asg9
(lp324
sg15
(lp325
VXR_241241.1:n.-190T>A
p326
asg17
(lp327
VNM_019075.2:c.855+34282T>A
p328
aVNM_019076.4:c.855+53097T>A
p329
aVNM_021027.2:c.-276T>A
p330
asg23
(lp331
Vrs57814275
p332
aVrs58682763
p333
assg28
I234580305
sg29
(dp334
g31
VUGT1A10
p335
sg33
VPA37174
p336
ssg35
(dp337
g37
(lp338
g39
(g40
g41
Ntp339
Rp340
(dp341
g45
g46
sg47
g48
sbasg49
S'0/1'
p342
sg51
g52
ssg23
S'rs6714486'
p343
sa(dp344
g2
(dp345
g4
(lp346
VNC_000002.11:g.234580678T>C
p347
aVNC_000002.12:g.233672032T>C
p348
aVNG_002601.2:g.87289T>C
p349
asg9
(lp350
VNP_066307.1:p.Met33Thr
p351
asg15
(lp352
VXR_241241.1:n.184T>C
p353
asg17
(lp354
VNM_019075.2:c.855+34655T>C
p355
aVNM_019076.4:c.855+53470T>C
p356
aVNM_021027.2:c.98T>C
p357
asg23
(lp358
ssg28
I234580678
sg29
(dp359
g31
VUGT1A10
p360
sg33
VPA37174
p361
ssg35
(dp362
g37
(lp363
g39
(g40
g41
Ntp364
Rp365
(dp366
g45
g46
sg47
g93
sbasg49
S'0/1'
p367
sg51
g52
ssg23
S'rs72551330'
p368
sa(dp369
g2
(dp370
g4
(lp371
VNC_000003.11:g.30886817C>T
p372
aVNC_000003.12:g.30845325C>T
p373
asg9
(lp374
sg15
(lp375
sg17
(lp376
VNM_207359.2:c.652-859G>A
p377
asg23
(lp378
Vrs58981610
p379
aVrs59580335
p380
assg28
I30886817
sg29
(dp381
g31
VGADL1
p382
sg33
VPA134944477
p383
ssg35
(dp384
g37
(lp385
g39
(g40
g41
Ntp386
Rp387
(dp388
g45
g46
sg47
g52
sbasg49
S'0/1'
p389
sg51
g93
ssg23
S'rs17026688'
p390
sa(dp391
g2
(dp392
g4
(lp393
VNC_000003.11:g.165491280C>T
p394
aVNC_000003.12:g.165773492C>T
p395
aVNG_009031.1:g.68974G>A
p396
asg9
(lp397
VNP_000046.1:p.Ala567Thr
p398
aVXP_005247742.1:p.Ala608Thr
p399
asg15
(lp400
sg17
(lp401
VNM_000055.2:c.1699G>A
p402
aVXM_005247685.1:c.1822G>A
p403
asg23
(lp404
Vrs17713328
p405
aVrs17846898
p406
aVrs3773869
p407
aVrs52816414
p408
aVrs60242395
p409
assg28
I165491280
sg29
(dp410
g31
VBCHE
p411
sg33
VPA25294
p412
ssg35
(dp413
g37
(lp414
g39
(g40
g41
Ntp415
Rp416
(dp417
g45
g46
sg47
g48
sbag39
(g40
g41
Ntp418
Rp419
(dp420
g45
g46
sg47
g91
sbasg49
S'0/1'
p421
sg51
g93
ssg23
S'rs1803274'
p422
sa(dp423
g2
(dp424
g4
(lp425
VNC_000003.11:g.165504043T>A
p426
aVNC_000003.12:g.165786255T>A
p427
aVNG_009031.1:g.56211A>T
p428
asg9
(lp429
VNP_000046.1:p.Glu525Val
p430
aVXP_005247742.1:p.Glu566Val
p431
asg15
(lp432
sg17
(lp433
VNM_000055.2:c.1574A>T
p434
aVXM_005247685.1:c.1697A>T
p435
asg23
(lp436
ssg28
I165504043
sg29
(dp437
g31
S'BCHE'
p438
sg33
S'590'
p439
ssg35
(dp440
g37
(lp441
g39
(g40
g41
Ntp442
Rp443
(dp444
g45
g46
sg47
g48
sbasg49
S'0/1'
p445
sg51
g52
ssg23
S'rs121918556'
p446
sa(dp447
g2
(dp448
g4
(lp449
VNC_000003.11:g.165547569C>A
p450
aVNC_000003.12:g.165829781C>A
p451
aVNG_009031.1:g.12685G>T
p452
asg9
(lp453
VNP_000046.1:p.Gly418Val
p454
aVXP_005247742.1:p.Gly459Val
p455
asg15
(lp456
sg17
(lp457
VNM_000055.2:c.1253G>T
p458
aVXM_005247685.1:c.1376G>T
p459
asg23
(lp460
ssg28
I165547569
sg29
(dp461
g31
VBCHE
p462
sg33
VPA25294
p463
ssg35
(dp464
g37
(lp465
g39
(g40
g41
Ntp466
Rp467
(dp468
g45
g46
sg47
g48
sbag39
(g40
g41
Ntp469
Rp470
(dp471
g45
g46
sg47
g91
sbag39
(g40
g41
Ntp472
Rp473
(dp474
g45
g46
sg47
g52
sbasg49
S'0/1'
p475
sg51
g93
ssg23
S'rs28933390'
p476
sa(dp477
g2
(dp478
g4
(lp479
VNC_000003.11:g.165548010G>A
p480
aVNC_000003.12:g.165830222G>A
p481
aVNG_009031.1:g.12244C>T
p482
asg9
(lp483
VNP_000046.1:p.Thr271Met
p484
aVXP_005247742.1:p.Thr312Met
p485
asg15
(lp486
sg17
(lp487
VNM_000055.2:c.812C>T
p488
aVXM_005247685.1:c.935C>T
p489
asg23
(lp490
ssg28
I165548010
sg29
(dp491
g31
VBCHE
p492
sg33
VPA25294
p493
ssg35
(dp494
g37
(lp495
g39
(g40
g41
Ntp496
Rp497
(dp498
g45
g46
sg47
g93
sbag39
(g40
g41
Ntp499
Rp500
(dp501
g45
g46
sg47
g52
sbasg49
S'0/1'
p502
sg51
g91
ssg23
S'rs28933389'
p503
sa(dp504
g2
(dp505
g4
(lp506
VNC_000003.11:g.165548187G>A
p507
aVNC_000003.12:g.165830399G>A
p508
aVNG_009031.1:g.12067C>T
p509
asg9
(lp510
VNP_000046.1:p.Ala212Val
p511
aVXP_005247742.1:p.Ala253Val
p512
asg15
(lp513
sg17
(lp514
VNM_000055.2:c.635C>T
p515
aVXM_005247685.1:c.758C>T
p516
asg23
(lp517
ssg28
I165548187
sg29
(dp518
g31
S'BCHE'
p519
sg33
S'590'
p520
ssg35
(dp521
g37
(lp522
g39
(g40
g41
Ntp523
Rp524
(dp525
g45
g46
sg47
g48
sbasg49
S'0/1'
p526
sg51
g91
ssg23
S'rs114706984'
p527
sa(dp528
g2
(dp529
g4
(lp530
VNC_000003.12:g.165830599A>C
p531
aVNC_000003.12:g.165830599A>T
p532
aVNC_000003.11:g.165548387A>C
p533
aVNC_000003.11:g.165548387A>T
p534
aVNG_009031.1:g.11867T>A
p535
aVNG_009031.1:g.11867T>G
p536
asg9
(lp537
VNP_000046.1:p.Gly145=
p538
aVXP_005247742.1:p.Gly186=
p539
asg15
(lp540
sg17
(lp541
VNM_000055.2:c.435T>A
p542
aVNM_000055.2:c.435T>G
p543
aVXM_005247685.1:c.558T>A
p544
aVXM_005247685.1:c.558T>G
p545
asg23
(lp546
ssg28
I165548387
sg29
(dp547
g31
S'BCHE'
p548
sg33
S'590'
p549
ssg35
(dp550
g37
(lp551
g39
(g40
g41
Ntp552
Rp553
(dp554
g45
g46
sg47
g91
sbasg49
S'0/1'
p555
sg51
g52
ssg23
S'rs71534242'
p556
sa(dp557
g2
(dp558
g4
(lp559
VNC_000003.11:g.165548529T>C
p560
aVNC_000003.12:g.165830741T>C
p561
aVNG_009031.1:g.11725A>G
p562
asg9
(lp563
VNP_000046.1:p.Asp98Gly
p564
aVXP_005247742.1:p.Asp139Gly
p565
asg15
(lp566
sg17
(lp567
VNM_000055.2:c.293A>G
p568
aVXM_005247685.1:c.416A>G
p569
asg23
(lp570
Vrs386545549
p571
aVrs52796585
p572
aVrs56541123
p573
assg28
I165548529
sg29
(dp574
g31
VBCHE
p575
sg33
VPA25294
p576
ssg35
(dp577
g37
(lp578
g39
(g40
g41
Ntp579
Rp580
(dp581
g45
g46
sg47
g48
sbag39
(g40
g41
Ntp582
Rp583
(dp584
g45
g46
sg47
g91
sbasg49
S'0/1'
p585
sg51
g52
ssg23
S'rs1799807'
p586
sa(dp587
g2
(dp588
g4
(lp589
VNC_000004.11:g.69961339G>A
p590
aVNC_000004.12:g.69095621G>A
p591
asg9
(lp592
sg15
(lp593
sg17
(lp594
VNM_001074.2:c.-900G>A
p595
aVXM_005265702.1:c.-26-2919G>A
p596
aVXM_005265702.2:c.-26-2919G>A
p597
aVXM_011532229.1:c.-900G>A
p598
aVXM_011532230.1:c.-900G>A
p599
aVXM_011532231.1:c.-26-2919G>A
p600
asg23
(lp601
ssg28
I69961339
sg29
(dp602
g31
VUGT2B7
p603
sg33
VPA361
p604
ssg35
(dp605
g37
(lp606
g39
(g40
g41
Ntp607
Rp608
(dp609
g45
g46
sg47
g48
sbasg49
S'0/1'
p610
sg51
g91
ssg23
S'rs7438135'
p611
sa(dp612
g2
(dp613
g4
(lp614
VNC_000004.11:g.89052323G>T
p615
aVNC_000004.12:g.88131171G>T
p616
aVNG_032067.2:g.105152C>A
p617
asg9
(lp618
VNP_001244315.1:p.Gln141Lys
p619
aVNP_004818.2:p.Gln141Lys
p620
aVXP_005263411.1:p.Gln141Lys
p621
aVXP_005263412.1:p.Gln141Lys
p622
aVXP_005263413.1:p.Gln141Lys
p623
aVXP_011530722.1:p.Gln141Lys
p624
asg15
(lp625
sg17
(lp626
VNM_001257386.1:c.421C>A
p627
aVNM_004827.2:c.421C>A
p628
aVXM_005263354.1:c.421C>A
p629
aVXM_005263354.2:c.421C>A
p630
aVXM_005263355.1:c.421C>A
p631
aVXM_005263355.2:c.421C>A
p632
aVXM_005263356.1:c.421C>A
p633
aVXM_005263356.2:c.421C>A
p634
aVXM_011532420.1:c.421C>A
p635
asg23
(lp636
Vrs12721641
p637
aVrs28365035
p638
aVrs3736117
p639
aVrs52809243
p640
aVrs58973676
p641
assg28
I89052323
sg29
(dp642
g31
VABCG2
p643
sg33
VPA390
p644
ssg35
(dp645
g37
(lp646
g39
(g40
g41
Ntp647
Rp648
(dp649
g45
g46
sg47
g48
sbag39
(g40
g41
Ntp650
Rp651
(dp652
g45
g46
sg47
g93
sbasg49
S'0/1'
p653
sg51
g91
ssg23
S'rs2231142'
p654
sa(dp655
g2
(dp656
g4
(lp657
VNC_000005.10:g.609978C>T
p658
aVNC_000005.9:g.610093C>T
p659
aVNT_187550.1:g.16919G>A
p660
asg9
(lp661
sg15
(lp662
VNR_103444.1:n.366+1469G>A
p663
aVXR_925672.1:n.4781C>T
p664
aVXR_925673.1:n.4681C>T
p665
aVXR_925674.1:n.4533C>T
p666
aVXR_951681.1:n.4781C>T
p667
aVXR_951682.1:n.4681C>T
p668
aVXR_951683.1:n.4533C>T
p669
asg17
(lp670
sg23
(lp671
ssg28
I610093
sg29
(dp672
g31
VCEP72
p673
sg33
VPA142672125
p674
ssg35
(dp675
g37
(lp676
g39
(g40
g41
Ntp677
Rp678
(dp679
g45
g46
sg47
g52
sbasg49
S'0/1'
p680
sg51
g93
ssg23
S'rs924607'
p681
sa(dp682
g2
(dp683
g4
(lp684
VNC_000006.11:g.18130918T>C
p685
aVNC_000006.12:g.18130687T>C
p686
aVNG_012137.2:g.29457A>G
p687
asg9
(lp688
VNP_000358.1:p.Tyr240Cys
p689
aVXP_011513141.1:p.Tyr225Cys
p690
aVXP_011513142.1:p.Tyr217Cys
p691
asg15
(lp692
sg17
(lp693
VNM_000367.3:c.719A>G
p694
aVXM_011514839.1:c.674A>G
p695
aVXM_011514840.1:c.650A>G
p696
asg23
(lp697
Vrs16880254
p698
aVrs1801205
p699
aVrs29001646
p700
aVrs52798150
p701
aVrs61510596
p702
assg28
I18130918
sg29
(dp703
g31
VTPMT
p704
sg33
VPA356
p705
ssg35
(dp706
g37
(lp707
g39
(g40
g41
Ntp708
Rp709
(dp710
g45
g46
sg47
g48
sbag39
(g40
g41
Ntp711
Rp712
(dp713
g45
g46
sg47
g91
sbasg49
S'0/1'
p714
sg51
g52
ssg23
S'rs1142345'
p715
sa(dp716
g2
(dp717
g4
(lp718
VNC_000006.11:g.18139228C>T
p719
aVNC_000006.12:g.18138997C>T
p720
aVNG_012137.2:g.21147G>A
p721
asg9
(lp722
VNP_000358.1:p.Ala154Thr
p723
aVXP_011513141.1:p.Ala154Thr
p724
aVXP_011513142.1:p.Ala131Thr
p725
asg15
(lp726
sg17
(lp727
VNM_000367.3:c.460G>A
p728
aVXM_011514839.1:c.460G>A
p729
aVXM_011514840.1:c.391G>A
p730
asg23
(lp731
Vrs11568060
p732
aVrs16880273
p733
aVrs386545583
p734
aVrs57650974
p735
assg28
I18139228
sg29
(dp736
g31
VTPMT
p737
sg33
VPA356
p738
ssg35
(dp739
g37
(lp740
g39
(g40
g41
Ntp741
Rp742
(dp743
g45
g46
sg47
g48
sbag39
(g40
g41
Ntp744
Rp745
(dp746
g45
g46
sg47
g91
sbasg49
S'0/1'
p747
sg51
g93
ssg23
S'rs1800460'
p748
sa(dp749
g2
(dp750
g4
(lp751
VNC_000006.11:g.18143955C>G
p752
aVNC_000006.12:g.18143724C>G
p753
aVNG_012137.2:g.16420G>C
p754
asg9
(lp755
VNP_000358.1:p.Ala80Pro
p756
aVXP_011513141.1:p.Ala80Pro
p757
aVXP_011513142.1:p.Ala57Pro
p758
asg15
(lp759
sg17
(lp760
VNM_000367.3:c.238G>C
p761
aVXM_011514839.1:c.238G>C
p762
aVXM_011514840.1:c.169G>C
p763
asg23
(lp764
ssg28
I18143955
sg29
(dp765
g31
VTPMT
p766
sg33
VPA356
p767
ssg35
(dp768
g37
(lp769
g39
(g40
g41
Ntp770
Rp771
(dp772
g45
g46
sg47
g91
sbasg49
S'0/1'
p773
sg51
g93
ssg23
S'rs1800462'
p774
sa(dp775
g2
(dp776
g4
(lp777
VNC_000006.11:g.31448976C=
p778
aVNC_000006.11:g.31448976C>A
p779
aVNC_000006.12:g.31481199C=
p780
aVNC_000006.12:g.31481199C>A
p781
aVNT_113891.2:g.2958634A=
p782
aVNT_113891.2:g.2958634A>C
p783
aVNT_113891.3:g.2958528A=
p784
aVNT_113891.3:g.2958528A>C
p785
aVNT_167244.1:g.2763686C=
p786
aVNT_167244.1:g.2763686C>A
p787
aVNT_167244.2:g.2813770C=
p788
aVNT_167244.2:g.2813770C>A
p789
aVNT_167245.1:g.2734310C=
p790
aVNT_167245.1:g.2734310C>A
p791
aVNT_167245.2:g.2728725C=
p792
aVNT_167245.2:g.2728725C>A
p793
aVNT_167247.1:g.2828760C=
p794
aVNT_167247.1:g.2828760C>A
p795
aVNT_167247.2:g.2823175C=
p796
aVNT_167247.2:g.2823175C>A
p797
aVNT_167248.1:g.2742682C=
p798
aVNT_167248.1:g.2742682C>A
p799
aVNT_167248.2:g.2737086C=
p800
aVNT_167248.2:g.2737086C>A
p801
aVNT_167249.1:g.2779748C=
p802
aVNT_167249.1:g.2779748C>A
p803
aVNT_167249.2:g.2780450C=
p804
aVNT_167249.2:g.2780450C>A
p805
asg9
(lp806
sg15
(lp807
VXR_926693.1:n.701G=
p808
aVXR_926693.1:n.701G>T
p809
aVXR_953042.1:n.531G=
p810
aVXR_953042.1:n.531G>T
p811
asg17
(lp812
sg23
(lp813
Vrs116662199
p814
aVrs116841198
p815
aVrs58471066
p816
aVrs7757186
p817
assg28
I31448976
sg29
(dp818
g31
VCYCSP5
p819
sg33
VPA142672032
p820
ssg35
(dp821
g37
(lp822
g39
(g40
g41
Ntp823
Rp824
(dp825
g45
g46
sg47
g48
sbasg49
S'0/1'
p826
sg51
g93
ssg23
S'rs3099844'
p827
sa(dp828
g2
(dp829
g4
(lp830
VNC_000006.11:g.154360797A>G
p831
aVNC_000006.12:g.154039662A>G
p832
aVNG_021208.1:g.34162A>G
p833
asg9
(lp834
VNP_000905.3:p.Asn40Asp
p835
aVNP_001008503.2:p.Asn40Asp
p836
aVNP_001008504.2:p.Asn40Asp
p837
aVNP_001008505.2:p.Asn40Asp
p838
aVNP_001138751.1:p.Asn133Asp
p839
aVNP_001138754.1:p.Asn40Asp
p840
aVNP_001138755.1:p.Asn40Asp
p841
aVNP_001138756.1:p.Asn40Asp
p842
aVNP_001138757.1:p.Asn40Asp
p843
aVNP_001138758.1:p.Asn40Asp
p844
aVNP_001272451.1:p.Asn40Asp
p845
aVNP_001272452.1:p.Asn40Asp
p846
aVNP_001272453.1:p.Asn133Asp
p847
aVXP_005267059.1:p.Asn102Asp
p848
aVXP_006715560.1:p.Asn102Asp
p849
aVXP_011534151.1:p.Asn133Asp
p850
asg15
(lp851
VNR_104348.1:n.252A>G
p852
aVNR_104349.1:n.252A>G
p853
aVNR_104350.1:n.252A>G
p854
aVNR_104351.1:n.252A>G
p855
aVXR_245534.1:n.304A>G
p856
aVXR_245535.1:n.304A>G
p857
aVXR_245536.1:n.304A>G
p858
aVXR_245537.1:n.304A>G
p859
asg17
(lp860
VNM_000914.4:c.118A>G
p861
aVNM_001008503.2:c.118A>G
p862
aVNM_001008504.3:c.118A>G
p863
aVNM_001008505.2:c.118A>G
p864
aVNM_001145279.3:c.397A>G
p865
aVNM_001145280.3:c.-11+28644A>G
p866
aVNM_001145281.2:c.47+29103A>G
p867
aVNM_001145282.2:c.118A>G
p868
aVNM_001145283.2:c.118A>G
p869
aVNM_001145284.3:c.118A>G
p870
aVNM_001145285.2:c.118A>G
p871
aVNM_001145286.2:c.118A>G
p872
aVNM_001285522.1:c.118A>G
p873
aVNM_001285523.1:c.118A>G
p874
aVNM_001285524.1:c.397A>G
p875
aVXM_005267002.1:c.304A>G
p876
aVXM_006715497.2:c.304A>G
p877
aVXM_011535849.1:c.397A>G
p878
asg23
(lp879
Vrs17181017
p880
aVrs52818856
p881
aVrs61596185
p882
assg28
I154360797
sg29
(dp883
g31
VOPRM1
p884
sg33
VPA31945
p885
ssg35
(dp886
g37
(lp887
g39
(g40
g41
Ntp888
Rp889
(dp890
g45
g46
sg47
g91
sbasg49
S'0/1'
p891
sg51
g48
ssg23
S'rs1799971'
p892
sa(dp893
g2
(dp894
g4
(lp895
VNC_000006.11:g.160543148C>T
p896
aVNC_000006.12:g.160122116C>T
p897
asg9
(lp898
VNP_003048.1:p.Arg61Cys
p899
aVNP_694857.1:p.Arg61Cys
p900
aVXP_005267159.1:p.Arg61Cys
p901
aVXP_005267160.1:p.Arg61Cys
p902
aVXP_006715615.1:p.Arg61Cys
p903
asg15
(lp904
sg17
(lp905
VNM_003057.2:c.181C>T
p906
aVNM_153187.1:c.181C>T
p907
aVXM_005267102.1:c.181C>T
p908
aVXM_005267102.3:c.181C>T
p909
aVXM_005267103.1:c.181C>T
p910
aVXM_005267105.1:c.-485C>T
p911
aVXM_005267105.3:c.-485C>T
p912
aVXM_006715552.1:c.181C>T
p913
aVXM_011536074.1:c.-895C>T
p914
asg23
(lp915
Vrs56982873
p916
assg28
I160543148
sg29
(dp917
g31
VSLC22A1
p918
sg33
VPA329
p919
ssg35
(dp920
g37
(lp921
g39
(g40
g41
Ntp922
Rp923
(dp924
g45
g46
sg47
g52
sbasg49
S'0/1'
p925
sg51
g93
ssg23
S'rs12208357'
p926
sa(dp927
g2
(dp928
g4
(lp929
VNC_000006.11:g.160543229T>C
p930
aVNC_000006.12:g.160122197T>C
p931
asg9
(lp932
VNP_003048.1:p.Cys88Arg
p933
aVNP_694857.1:p.Cys88Arg
p934
aVXP_005267159.1:p.Cys88Arg
p935
aVXP_005267160.1:p.Cys88Arg
p936
aVXP_006715615.1:p.Cys88Arg
p937
asg15
(lp938
sg17
(lp939
VNM_003057.2:c.262T>C
p940
aVNM_153187.1:c.262T>C
p941
aVXM_005267102.1:c.262T>C
p942
aVXM_005267102.3:c.262T>C
p943
aVXM_005267103.1:c.262T>C
p944
aVXM_005267105.1:c.-404T>C
p945
aVXM_005267105.3:c.-404T>C
p946
aVXM_006715552.1:c.262T>C
p947
aVXM_011536074.1:c.-814T>C
p948
asg23
(lp949
ssg28
I160543229
sg29
(dp950
g31
VSLC22A1
p951
sg33
VPA329
p952
ssg35
(dp953
g37
(lp954
g39
(g40
g41
Ntp955
Rp956
(dp957
g45
g46
sg47
g48
sbag39
(g40
g41
Ntp958
Rp959
(dp960
g45
g46
sg47
g93
sbasg49
S'0/1'
p961
sg51
g52
ssg23
S'rs55918055'
p962
sa(dp963
g2
(dp964
g4
(lp965
VNC_000006.11:g.160560824G>A
p966
aVNC_000006.12:g.160139792G>A
p967
asg9
(lp968
VNP_003048.1:p.Gly401Ser
p969
aVNP_694857.1:p.Gly401Ser
p970
aVXP_005267159.1:p.Gly401Ser
p971
aVXP_005267160.1:p.Gly401Ser
p972
aVXP_005267161.1:p.Gly209Ser
p973
aVXP_005267162.1:p.Gly209Ser
p974
aVXP_006715615.1:p.Gly401Ser
p975
aVXP_011534376.1:p.Gly209Ser
p976
asg15
(lp977
sg17
(lp978
VNM_003057.2:c.1201G>A
p979
aVNM_153187.1:c.1201G>A
p980
aVXM_005267102.1:c.1201G>A
p981
aVXM_005267102.3:c.1201G>A
p982
aVXM_005267103.1:c.1201G>A
p983
aVXM_005267104.1:c.625G>A
p984
aVXM_005267104.3:c.625G>A
p985
aVXM_005267105.1:c.625G>A
p986
aVXM_005267105.3:c.625G>A
p987
aVXM_006715552.1:c.1201G>A
p988
aVXM_011536074.1:c.625G>A
p989
asg23
(lp990
Vrs45512393
p991
assg28
I160560824
sg29
(dp992
g31
VSLC22A1
p993
sg33
VPA329
p994
ssg35
(dp995
g37
(lp996
g39
(g40
g41
Ntp997
Rp998
(dp999
g45
g46
sg47
g48
sbasg49
S'0/1'
p1000
sg51
g91
ssg23
S'rs34130495'
p1001
sa(dp1002
g2
(dp1003
g4
(lp1004
VNC_000006.11:g.160560883_160560885delGAT
p1005
aVNC_000006.12:g.160139851_160139853delGAT
p1006
asg9
(lp1007
VNP_003048.1:p.Met420del
p1008
aVNP_694857.1:p.Met420del
p1009
aVXP_005267159.1:p.Met420del
p1010
aVXP_005267160.1:p.Met420del
p1011
aVXP_005267161.1:p.Met228del
p1012
aVXP_005267162.1:p.Met228del
p1013
aVXP_006715615.1:p.Met420del
p1014
aVXP_011534376.1:p.Met228del
p1015
asg15
(lp1016
sg17
(lp1017
VNM_003057.2:c.1260_1262delGAT
p1018
aVNM_153187.1:c.1260_1262delGAT
p1019
aVXM_005267102.1:c.1260_1262delGAT
p1020
aVXM_005267102.3:c.1260_1262delGAT
p1021
aVXM_005267103.1:c.1260_1262delGAT
p1022
aVXM_005267104.1:c.684_686delGAT
p1023
aVXM_005267104.3:c.684_686delGAT
p1024
aVXM_005267105.1:c.684_686delGAT
p1025
aVXM_005267105.3:c.684_686delGAT
p1026
aVXM_006715552.1:c.1260_1262delGAT
p1027
aVXM_011536074.1:c.684_686delGAT
p1028
asg23
(lp1029
ssg28
I160560882
sg29
(dp1030
g31
VSLC22A1
p1031
sg33
VPA329
p1032
ssg35
(dp1033
g37
(lp1034
g39
(g40
g41
Ntp1035
Rp1036
(dp1037
g45
g46
sg47
g52
sbasg49
S'0/1'
p1038
sg51
S'TGAT'
p1039
ssg23
S'rs72552763'
p1040
sa(dp1041
g2
(dp1042
g4
(lp1043
VNC_000006.11:g.160575837G>A
p1044
aVNC_000006.12:g.160154805G>A
p1045
asg9
(lp1046
VNP_003048.1:p.Gly465Arg
p1047
aVXP_005267159.1:p.Gly465Arg
p1048
aVXP_005267160.1:p.Gly465Arg
p1049
aVXP_005267161.1:p.Gly273Arg
p1050
aVXP_005267162.1:p.Gly273Arg
p1051
aVXP_011534376.1:p.Gly273Arg
p1052
asg15
(lp1053
sg17
(lp1054
VNM_003057.2:c.1393G>A
p1055
aVNM_153187.1:c.1386-1170G>A
p1056
aVXM_005267102.1:c.1393G>A
p1057
aVXM_005267102.3:c.1393G>A
p1058
aVXM_005267103.1:c.1393G>A
p1059
aVXM_005267104.1:c.817G>A
p1060
aVXM_005267104.3:c.817G>A
p1061
aVXM_005267105.1:c.817G>A
p1062
aVXM_005267105.3:c.817G>A
p1063
aVXM_006715552.1:c.1386-3711G>A
p1064
aVXM_011536074.1:c.817G>A
p1065
asg23
(lp1066
Vrs45476695
p1067
aVrs57829971
p1068
assg28
I160575837
sg29
(dp1069
g31
VSLC22A1
p1070
sg33
VPA329
p1071
ssg35
(dp1072
g37
(lp1073
g39
(g40
g41
Ntp1074
Rp1075
(dp1076
g45
g46
sg47
g48
sbag39
(g40
g41
Ntp1077
Rp1078
(dp1079
g45
g46
sg47
g93
sbasg49
S'0/1'
p1080
sg51
g91
ssg23
S'rs34059508'
p1081
sa(dp1082
g2
(dp1083
g4
(lp1084
VNC_000007.13:g.75615006C>T
p1085
aVNC_000007.14:g.75985688C>T
p1086
aVNG_008930.1:g.75587C>T
p1087
aVNW_003871064.1:g.3514924C>T
p1088
asg9
(lp1089
VNP_000932.3:p.Ala503Val
p1090
aVXP_005250516.1:p.Ala503Val
p1091
aVXP_005250517.1:p.Ala402Val
p1092
aVXP_005250518.1:p.Ala311Val
p1093
aVXP_005277657.1:p.Ala503Val
p1094
aVXP_005277658.1:p.Ala402Val
p1095
aVXP_005277659.1:p.Ala311Val
p1096
asg15
(lp1097
sg17
(lp1098
VNM_000941.2:c.1508C>T
p1099
aVXM_005250459.1:c.1508C>T
p1100
aVXM_005250460.1:c.1205C>T
p1101
aVXM_005250461.1:c.932C>T
p1102
aVXM_005277600.1:c.1508C>T
p1103
aVXM_005277601.1:c.1205C>T
p1104
aVXM_005277602.1:c.932C>T
p1105
asg23
(lp1106
Vrs17840495
p1107
aVrs17846082
p1108
aVrs17859083
p1109
aVrs3198400
p1110
aVrs57699079
p1111
assg28
I75615006
sg29
(dp1112
g31
VPOR
p1113
sg33
VPA33532
p1114
ssg35
(dp1115
g37
(lp1116
g39
(g40
g41
Ntp1117
Rp1118
(dp1119
g45
g46
sg47
g52
sbasg49
S'0/1'
p1120
sg51
g93
ssg23
S'rs1057868'
p1121
sa(dp1122
g2
(dp1123
g4
(lp1124
VNC_000007.13:g.87138645A>G
p1125
aVNC_000007.14:g.87509329A>G
p1126
aVNG_011513.1:g.208920T>C
p1127
asg9
(lp1128
VNP_000918.2:p.Ile1145=
p1129
asg15
(lp1130
sg17
(lp1131
VNM_000927.4:c.3435T>C
p1132
asg23
(lp1133
Vrs10239679
p1134
aVrs11568726
p1135
aVrs117328163
p1136
aVrs17210003
p1137
aVrs2229108
p1138
aVrs386513066
p1139
aVrs60023214
p1140
aVrs9690664
p1141
assg28
I87138645
sg29
(dp1142
g31
VABCB1
p1143
sg33
VPA267
p1144
ssg35
(dp1145
g37
(lp1146
g39
(g40
g41
Ntp1147
Rp1148
(dp1149
g45
g46
sg47
g93
sbag39
(g40
g41
Ntp1150
Rp1151
(dp1152
g45
g46
sg47
g52
sbasg49
S'0/1'
p1153
sg51
g48
ssg23
S'rs1045642'
p1154
sa(dp1155
g2
(dp1156
g4
(lp1157
VNC_000007.13:g.87160618A>C
p1158
aVNC_000007.13:g.87160618A>T
p1159
aVNC_000007.14:g.87531302A>C
p1160
aVNC_000007.14:g.87531302A>T
p1161
aVNG_011513.1:g.186947T>A
p1162
aVNG_011513.1:g.186947T>G
p1163
asg9
(lp1164
VNP_000918.2:p.Ser893Ala
p1165
aVNP_000918.2:p.Ser893Thr
p1166
asg15
(lp1167
sg17
(lp1168
VNM_000927.4:c.2677T>A
p1169
aVNM_000927.4:c.2677T>G
p1170
asg23
(lp1171
Vrs10228331
p1172
aVrs2229106
p1173
aVrs386553610
p1174
aVrs57135550
p1175
aVrs9641018
p1176
assg28
I87160618
sg29
(dp1177
g31
VABCB1
p1178
sg33
VPA267
p1179
ssg35
(dp1180
g37
(lp1181
g39
(g40
g41
Ntp1182
Rp1183
(dp1184
g45
g46
sg47
g91
sbag39
(g40
g41
Ntp1185
Rp1186
(dp1187
g45
g46
sg47
g52
sbasg49
S'0/1'
p1188
sg51
g48
ssg23
S'rs2032582'
p1189
sa(dp1190
g2
(dp1191
g4
(lp1192
VNC_000007.13:g.87179601A>G
p1193
aVNC_000007.14:g.87550285A>G
p1194
aVNG_011513.1:g.167964T>C
p1195
asg9
(lp1196
VNP_000918.2:p.Gly412=
p1197
asg15
(lp1198
sg17
(lp1199
VNM_000927.4:c.1236T>C
p1200
asg23
(lp1201
Vrs116989428
p1202
aVrs17276907
p1203
aVrs2032587
p1204
aVrs2229105
p1205
aVrs28365046
p1206
aVrs386518005
p1207
aVrs58257317
p1208
assg28
I87179601
sg29
(dp1209
g31
VABCB1
p1210
sg33
VPA267
p1211
ssg35
(dp1212
g37
(lp1213
g39
(g40
g41
Ntp1214
Rp1215
(dp1216
g45
g46
sg47
g93
sbag39
(g40
g41
Ntp1217
Rp1218
(dp1219
g45
g46
sg47
g52
sbasg49
S'0/1'
p1220
sg51
g48
ssg23
S'rs1128503'
p1221
sa(dp1222
g2
(dp1223
g4
(lp1224
VNC_000007.13:g.99250236G>T
p1225
aVNC_000007.14:g.99652613G>T
p1226
aVNG_007938.1:g.32386C>A
p1227
asg9
(lp1228
VNP_000768.1:p.Thr398Asn
p1229
aVNP_001278758.1:p.Thr285Asn
p1230
aVNP_001278759.1:p.Thr388Asn
p1231
aVXP_005250226.1:p.Thr388Asn
p1232
aVXP_005250227.1:p.Thr285Asn
p1233
aVXP_005250228.1:p.Thr285Asn
p1234
aVXP_005250229.1:p.Thr285Asn
p1235
aVXP_005250230.1:p.Thr218Asn
p1236
aVXP_011514145.1:p.Thr285Asn
p1237
aVXP_011514146.1:p.Thr285Asn
p1238
aVXP_011514147.1:p.Thr218Asn
p1239
aVXP_011514148.1:p.Thr218Asn
p1240
aVXP_011514149.1:p.Thr218Asn
p1241
asg15
(lp1242
VNR_033807.2:n.2927C>A
p1243
aVNR_033808.1:n.1795C>A
p1244
aVNR_033809.1:n.1555C>A
p1245
aVXR_927402.1:n.1466+28433G>T
p1246
asg17
(lp1247
VNM_000777.4:c.1193C>A
p1248
aVNM_001291829.1:c.854C>A
p1249
aVNM_001291830.1:c.1163C>A
p1250
aVXM_005250169.1:c.1163C>A
p1251
aVXM_005250170.1:c.854C>A
p1252
aVXM_005250171.1:c.854C>A
p1253
aVXM_005250172.1:c.854C>A
p1254
aVXM_005250173.1:c.653C>A
p1255
aVXM_005250198.1:c.806-24591G>T
p1256
aVXM_011515843.1:c.854C>A
p1257
aVXM_011515844.1:c.854C>A
p1258
aVXM_011515845.1:c.653C>A
p1259
aVXM_011515846.1:c.653C>A
p1260
aVXM_011515847.1:c.653C>A
p1261
aVXM_011515909.1:c.806-16482G>T
p1262
asg23
(lp1263
Vrs60662672
p1264
assg28
I99250236
sg29
(dp1265
g31
VCYP3A5
p1266
sg33
VPA131
p1267
ssg35
(dp1268
g37
(lp1269
g39
(g40
g41
Ntp1270
Rp1271
(dp1272
g45
g46
sg47
g48
sbag39
(g40
g41
Ntp1273
Rp1274
(dp1275
g45
g46
sg47
g93
sbasg49
S'0/1'
p1276
sg51
g91
ssg23
S'rs28365083'
p1277
sa(dp1278
g2
(dp1279
g4
(lp1280
VNC_000007.13:g.99250393_99250394insA
p1281
aVNC_000007.14:g.99652770_99652771insA
p1282
aVNG_007938.1:g.32228_32229insT
p1283
asg9
(lp1284
VNP_000768.1:p.Thr346Tyrfs
p1285
aVNP_001278758.1:p.Thr233Tyrfs
p1286
aVNP_001278759.1:p.Thr336Tyrfs
p1287
aVXP_005250226.1:p.Thr336Tyrfs
p1288
aVXP_005250227.1:p.Thr233Tyrfs
p1289
aVXP_005250228.1:p.Thr233Tyrfs
p1290
aVXP_005250229.1:p.Thr233Tyrfs
p1291
aVXP_005250230.1:p.Thr166Tyrfs
p1292
aVXP_011514145.1:p.Thr233Tyrfs
p1293
aVXP_011514146.1:p.Thr233Tyrfs
p1294
aVXP_011514147.1:p.Thr166Tyrfs
p1295
aVXP_011514148.1:p.Thr166Tyrfs
p1296
aVXP_011514149.1:p.Thr166Tyrfs
p1297
asg15
(lp1298
VNR_033807.2:n.2769_2770insT
p1299
aVNR_033808.1:n.1637_1638insT
p1300
aVNR_033809.1:n.1397_1398insT
p1301
aVXR_927402.1:n.1466+28590_1466+28591insA
p1302
asg17
(lp1303
VNM_000777.4:c.1035_1036insT
p1304
aVNM_001291829.1:c.696_697insT
p1305
aVNM_001291830.1:c.1005_1006insT
p1306
aVXM_005250169.1:c.1005_1006insT
p1307
aVXM_005250170.1:c.696_697insT
p1308
aVXM_005250171.1:c.696_697insT
p1309
aVXM_005250172.1:c.696_697insT
p1310
aVXM_005250173.1:c.495_496insT
p1311
aVXM_005250198.1:c.806-24434_806-24433insA
p1312
aVXM_011515843.1:c.696_697insT
p1313
aVXM_011515844.1:c.696_697insT
p1314
aVXM_011515845.1:c.495_496insT
p1315
aVXM_011515846.1:c.495_496insT
p1316
aVXM_011515847.1:c.495_496insT
p1317
aVXM_011515909.1:c.806-16325_806-16324insA
p1318
asg23
(lp1319
Vrs146933882
p1320
aVrs371634789
p1321
aVrs57622522
p1322
assg28
I99250393
sg29
(dp1323
g31
VCYP3A5
p1324
sg33
VPA131
p1325
ssg35
(dp1326
g37
(lp1327
g39
(g40
g41
Ntp1328
Rp1329
(dp1330
g45
S'MNV'
p1331
sg47
S'TT'
p1332
sbasg49
S'0/1'
p1333
sg51
g52
ssg23
S'rs41303343'
p1334
sa(dp1335
g2
(dp1336
g4
(lp1337
VNC_000007.13:g.99258139C>T
p1338
aVNC_000007.14:g.99660516C>T
p1339
aVNG_007938.1:g.24483G>A
p1340
asg9
(lp1341
VNP_000768.1:p.Ala337Thr
p1342
aVNP_001278758.1:p.Ala224Thr
p1343
aVNP_001278759.1:p.Ala327Thr
p1344
aVXP_005250226.1:p.Ala327Thr
p1345
aVXP_005250227.1:p.Ala224Thr
p1346
aVXP_005250228.1:p.Ala224Thr
p1347
aVXP_005250229.1:p.Ala224Thr
p1348
aVXP_005250230.1:p.Ala157Thr
p1349
aVXP_006715922.1:p.Ala337Thr
p1350
aVXP_011514145.1:p.Ala224Thr
p1351
aVXP_011514146.1:p.Ala224Thr
p1352
aVXP_011514147.1:p.Ala157Thr
p1353
aVXP_011514148.1:p.Ala157Thr
p1354
aVXP_011514149.1:p.Ala157Thr
p1355
asg15
(lp1356
VNR_033807.2:n.2743G>A
p1357
aVNR_033808.1:n.1611G>A
p1358
aVNR_033809.1:n.1371G>A
p1359
aVNR_033810.1:n.2696G>A
p1360
aVNR_033811.1:n.1360G>A
p1361
aVNR_033812.1:n.1252G>A
p1362
aVXR_927402.1:n.1466+36336C>T
p1363
asg17
(lp1364
VNM_000777.4:c.1009G>A
p1365
aVNM_001291829.1:c.670G>A
p1366
aVNM_001291830.1:c.979G>A
p1367
aVXM_005250169.1:c.979G>A
p1368
aVXM_005250170.1:c.670G>A
p1369
aVXM_005250171.1:c.670G>A
p1370
aVXM_005250172.1:c.670G>A
p1371
aVXM_005250173.1:c.469G>A
p1372
aVXM_005250198.1:c.806-16688C>T
p1373
aVXM_006715859.2:c.1009G>A
p1374
aVXM_011515843.1:c.670G>A
p1375
aVXM_011515844.1:c.670G>A
p1376
aVXM_011515845.1:c.469G>A
p1377
aVXM_011515846.1:c.469G>A
p1378
aVXM_011515847.1:c.469G>A
p1379
aVXM_011515909.1:c.806-8579C>T
p1380
asg23
(lp1381
ssg28
I99258139
sg29
(dp1382
g31
VCYP3A5
p1383
sg33
VPA131
p1384
ssg35
(dp1385
g37
(lp1386
g39
(g40
g41
Ntp1387
Rp1388
(dp1389
g45
g46
sg47
g48
sbag39
(g40
g41
Ntp1390
Rp1391
(dp1392
g45
g46
sg47
g91
sbasg49
S'0/1'
p1393
sg51
g93
ssg23
S'rs28383479'
p1394
sa(dp1395
g2
(dp1396
g4
(lp1397
VNC_000007.13:g.99262835C>T
p1398
aVNC_000007.14:g.99665212C>T
p1399
aVNG_007938.1:g.19787G>A
p1400
asg9
(lp1401
VNP_000768.1:p.Lys208=
p1402
aVNP_001278758.1:p.Lys95=
p1403
aVNP_001278759.1:p.Lys198=
p1404
aVXP_005250226.1:p.Lys198=
p1405
aVXP_005250227.1:p.Lys95=
p1406
aVXP_005250228.1:p.Lys95=
p1407
aVXP_005250229.1:p.Lys95=
p1408
aVXP_005250230.1:p.Lys28=
p1409
aVXP_006715922.1:p.Lys208=
p1410
aVXP_011514145.1:p.Lys95=
p1411
aVXP_011514146.1:p.Lys95=
p1412
aVXP_011514147.1:p.Lys28=
p1413
aVXP_011514148.1:p.Lys28=
p1414
aVXP_011514149.1:p.Lys28=
p1415
asg15
(lp1416
VNR_033807.2:n.1273G>A
p1417
aVNR_033808.1:n.1226G>A
p1418
aVNR_033809.1:n.986G>A
p1419
aVNR_033810.1:n.1226G>A
p1420
aVNR_033811.1:n.975G>A
p1421
aVNR_033812.1:n.867G>A
p1422
aVXR_927402.1:n.1466+41032C>T
p1423
asg17
(lp1424
VNM_000777.4:c.624G>A
p1425
aVNM_001291829.1:c.285G>A
p1426
aVNM_001291830.1:c.594G>A
p1427
aVXM_005250169.1:c.594G>A
p1428
aVXM_005250170.1:c.285G>A
p1429
aVXM_005250171.1:c.285G>A
p1430
aVXM_005250172.1:c.285G>A
p1431
aVXM_005250173.1:c.84G>A
p1432
aVXM_005250198.1:c.806-11992C>T
p1433
aVXM_006715859.2:c.624G>A
p1434
aVXM_011515843.1:c.285G>A
p1435
aVXM_011515844.1:c.285G>A
p1436
aVXM_011515845.1:c.84G>A
p1437
aVXM_011515846.1:c.84G>A
p1438
aVXM_011515847.1:c.84G>A
p1439
aVXM_011515909.1:c.806-3883C>T
p1440
asg23
(lp1441
Vrs58867275
p1442
assg28
I99262835
sg29
(dp1443
g31
VCYP3A5
p1444
sg33
VPA131
p1445
ssg35
(dp1446
g37
(lp1447
g39
(g40
g41
Ntp1448
Rp1449
(dp1450
g45
g46
sg47
g52
sbasg49
S'0/1'
p1451
sg51
g93
ssg23
S'rs10264272'
p1452
sa(dp1453
g2
(dp1454
g4
(lp1455
VNC_000007.13:g.99270539C>T
p1456
aVNC_000007.14:g.99672916T>C
p1457
aVNG_007938.1:g.12083G=
p1458
aVNG_007938.1:g.12083G>A
p1459
asg9
(lp1460
sg15
(lp1461
VNR_033807.2:n.717-1A>G
p1462
aVNR_033807.2:n.717-1G>A
p1463
aVNR_033808.1:n.689-1G>A
p1464
aVNR_033809.1:n.581-237G>A
p1465
aVNR_033810.1:n.689-1G>A
p1466
aVNR_033811.1:n.321-1G>A
p1467
aVNR_033812.1:n.321-1G>A
p1468
aVXR_927383.1:n.344-237A>G
p1469
aVXR_927402.1:n.1466+48736T>C
p1470
asg17
(lp1471
VNM_000777.4:c.219-237A>G
p1472
aVNM_000777.4:c.219-237G>A
p1473
aVNM_001190484.2:c.219-237A>G
p1474
aVNM_001190484.2:c.219-237G>A
p1475
aVNM_001291829.1:c.-253-1A>G
p1476
aVNM_001291829.1:c.-253-1G>A
p1477
aVNM_001291830.1:c.189-237A>G
p1478
aVNM_001291830.1:c.189-237G>A
p1479
aVXM_005250169.1:c.189-237G>A
p1480
aVXM_005250170.1:c.-357-1G>A
p1481
aVXM_005250171.1:c.-253-1G>A
p1482
aVXM_005250172.1:c.-254G>A
p1483
aVXM_005250173.1:c.-331-237G>A
p1484
aVXM_005250198.1:c.806-4288C>T
p1485
aVXM_006715859.2:c.219-237A>G
p1486
aVXM_011515843.1:c.-254A>G
p1487
aVXM_011515844.1:c.-229-237A>G
p1488
aVXM_011515845.1:c.-463-1A>G
p1489
aVXM_011515846.1:c.-331-237A>G
p1490
aVXM_011515847.1:c.-571-1A>G
p1491
asg23
(lp1492
Vrs10361242
p1493
aVrs11266830
p1494
aVrs386613022
p1495
aVrs58244770
p1496
assg28
I99270539
sg29
(dp1497
g31
VCYP3A
p1498
sg33
VPA27114
p1499
ssg35
(dp1500
g37
(lp1501
g39
(g40
g41
Ntp1502
Rp1503
(dp1504
g45
g46
sg47
g48
sbag39
(g40
g41
Ntp1505
Rp1506
(dp1507
g45
g46
sg47
g91
sbasg49
S'0/1'
p1508
sg51
g93
ssg23
S'rs776746'
p1509
sa(dp1510
g2
(dp1511
g4
(lp1512
VNC_000007.13:g.99273815G>A
p1513
aVNC_000007.14:g.99676192G>A
p1514
aVNG_007938.1:g.8807C>T
p1515
asg9
(lp1516
VNP_000768.1:p.His30Tyr
p1517
aVNP_001177413.1:p.His30Tyr
p1518
aVNP_001278759.1:p.His20Tyr
p1519
aVXP_005250226.1:p.His20Tyr
p1520
aVXP_006715922.1:p.His30Tyr
p1521
asg15
(lp1522
VNR_033807.2:n.586C>T
p1523
aVNR_033808.1:n.558C>T
p1524
aVNR_033809.1:n.450C>T
p1525
aVNR_033810.1:n.558C>T
p1526
aVNR_033811.1:n.190C>T
p1527
aVNR_033812.1:n.190C>T
p1528
aVXR_927383.1:n.213C>T
p1529
aVXR_927402.1:n.1467-47283G>A
p1530
asg17
(lp1531
VNM_000777.4:c.88C>T
p1532
aVNM_001190484.2:c.88C>T
p1533
aVNM_001291829.1:c.-384C>T
p1534
aVNM_001291830.1:c.58C>T
p1535
aVXM_005250169.1:c.58C>T
p1536
aVXM_005250170.1:c.-488C>T
p1537
aVXM_005250171.1:c.-384C>T
p1538
aVXM_005250172.1:c.-402C>T
p1539
aVXM_005250173.1:c.-462C>T
p1540
aVXM_005250198.1:c.806-1012G>A
p1541
aVXM_006715859.2:c.88C>T
p1542
aVXM_011515843.1:c.-402C>T
p1543
aVXM_011515844.1:c.-360C>T
p1544
aVXM_011515845.1:c.-594C>T
p1545
aVXM_011515846.1:c.-462C>T
p1546
aVXM_011515847.1:c.-702C>T
p1547
asg23
(lp1548
Vrs59353336
p1549
assg28
I99273815
sg29
(dp1550
g31
VCYP3A5
p1551
sg33
VPA131
p1552
ssg35
(dp1553
g37
(lp1554
g39
(g40
g41
Ntp1555
Rp1556
(dp1557
g45
g46
sg47
g93
sbag39
(g40
g41
Ntp1558
Rp1559
(dp1560
g45
g46
sg47
g52
sbasg49
S'0/1'
p1561
sg51
g91
ssg23
S'rs28383468'
p1562
sa(dp1563
g2
(dp1564
g4
(lp1565
VNC_000007.13:g.99273821G>A
p1566
aVNC_000007.14:g.99676198G>A
p1567
aVNG_007938.1:g.8801C>T
p1568
asg9
(lp1569
VNP_000768.1:p.Arg28Cys
p1570
aVNP_001177413.1:p.Arg28Cys
p1571
aVNP_001278759.1:p.Arg18Cys
p1572
aVXP_005250226.1:p.Arg18Cys
p1573
aVXP_006715922.1:p.Arg28Cys
p1574
asg15
(lp1575
VNR_033807.2:n.580C>T
p1576
aVNR_033808.1:n.552C>T
p1577
aVNR_033809.1:n.444C>T
p1578
aVNR_033810.1:n.552C>T
p1579
aVNR_033811.1:n.184C>T
p1580
aVNR_033812.1:n.184C>T
p1581
aVXR_927383.1:n.207C>T
p1582
aVXR_927402.1:n.1467-47277G>A
p1583
asg17
(lp1584
VNM_000777.4:c.82C>T
p1585
aVNM_001190484.2:c.82C>T
p1586
aVNM_001291829.1:c.-390C>T
p1587
aVNM_001291830.1:c.52C>T
p1588
aVXM_005250169.1:c.52C>T
p1589
aVXM_005250170.1:c.-494C>T
p1590
aVXM_005250171.1:c.-390C>T
p1591
aVXM_005250172.1:c.-408C>T
p1592
aVXM_005250173.1:c.-468C>T
p1593
aVXM_005250198.1:c.806-1006G>A
p1594
aVXM_006715859.2:c.82C>T
p1595
aVXM_011515843.1:c.-408C>T
p1596
aVXM_011515844.1:c.-366C>T
p1597
aVXM_011515845.1:c.-600C>T
p1598
aVXM_011515846.1:c.-468C>T
p1599
aVXM_011515847.1:c.-708C>T
p1600
asg23
(lp1601
ssg28
I99273821
sg29
(dp1602
g31
VCYP3A5
p1603
sg33
VPA131
p1604
ssg35
(dp1605
g37
(lp1606
g39
(g40
g41
Ntp1607
Rp1608
(dp1609
g45
g46
sg47
g48
sbasg49
S'0/1'
p1610
sg51
g91
ssg23
S'rs55817950'
p1611
sa(dp1612
g2
(dp1613
g4
(lp1614
VNC_000007.13:g.99332978A>T
p1615
aVNC_000007.14:g.99735355A>T
p1616
aVNG_007983.1:g.4844T>A
p1617
asg9
(lp1618
sg15
(lp1619
VXR_927402.1:n.1788-1337A>T
p1620
asg17
(lp1621
VNM_000765.4:c.-262T>A
p1622
aVNM_001256497.2:c.-262T>A
p1623
aVXM_005250168.1:c.-262T>A
p1624
asg23
(lp1625
ssg28
I99332978
sg29
(dp1626
g31
S'ZSCAN25'
p1627
sg33
S'221785'
p1628
ssg35
(dp1629
g37
(lp1630
g39
(g40
g41
Ntp1631
Rp1632
(dp1633
g45
g46
sg47
g52
sbasg49
S'0/1'
p1634
sg51
g48
ssg23
S'rs11568826'
p1635
sa(dp1636
g2
(dp1637
g4
(lp1638
VNC_000007.13:g.99358524A>G
p1639
aVNC_000007.14:g.99760901A>G
p1640
aVNG_008421.1:g.28285T>C
p1641
asg9
(lp1642
VNP_001189784.1:p.Met444Thr
p1643
aVNP_059488.2:p.Met445Thr
p1644
aVXP_011514143.1:p.Met476Thr
p1645
aVXP_011514144.1:p.Met475Thr
p1646
asg15
(lp1647
sg17
(lp1648
VNM_001202855.2:c.1331T>C
p1649
aVNM_017460.5:c.1334T>C
p1650
aVXM_011515841.1:c.1427T>C
p1651
aVXM_011515842.1:c.1424T>C
p1652
asg23
(lp1653
Vrs386597005
p1654
aVrs60835115
p1655
assg28
I99358524
sg29
(dp1656
g31
VCYP3A
p1657
sg33
VPA27114
p1658
ssg35
(dp1659
g37
(lp1660
g39
(g40
g41
Ntp1661
Rp1662
(dp1663
g45
g46
sg47
g93
sbag39
(g40
g41
Ntp1664
Rp1665
(dp1666
g45
g46
sg47
g52
sbasg49
S'0/1'
p1667
sg51
g48
ssg23
S'rs4986910'
p1668
sa(dp1669
g2
(dp1670
g4
(lp1671
VNC_000007.13:g.99359670G>A
p1672
aVNC_000007.14:g.99762047G>A
p1673
aVNG_008421.1:g.27139C>T
p1674
asg9
(lp1675
VNP_001189784.1:p.Pro415Leu
p1676
aVNP_059488.2:p.Pro416Leu
p1677
aVXP_011514143.1:p.Pro416Leu
p1678
aVXP_011514144.1:p.Pro415Leu
p1679
asg15
(lp1680
sg17
(lp1681
VNM_001202855.2:c.1244C>T
p1682
aVNM_017460.5:c.1247C>T
p1683
aVXM_011515841.1:c.1247C>T
p1684
aVXM_011515842.1:c.1244C>T
p1685
asg23
(lp1686
Vrs386597004
p1687
assg28
I99359670
sg29
(dp1688
g31
VCYP3A
p1689
sg33
VPA27114
p1690
ssg35
(dp1691
g37
(lp1692
g39
(g40
g41
Ntp1693
Rp1694
(dp1695
g45
g46
sg47
g93
sbag39
(g40
g41
Ntp1696
Rp1697
(dp1698
g45
g46
sg47
g52
sbasg49
S'0/1'
p1699
sg51
g91
ssg23
S'rs4986909'
p1700
sa(dp1701
g2
(dp1702
g4
(lp1703
VNC_000007.13:g.99359800G>A
p1704
aVNC_000007.14:g.99762177G>A
p1705
aVNG_008421.1:g.27009C>T
p1706
asg9
(lp1707
VNP_001189784.1:p.Leu372Phe
p1708
aVNP_059488.2:p.Leu373Phe
p1709
aVXP_011514143.1:p.Leu373Phe
p1710
aVXP_011514144.1:p.Leu372Phe
p1711
asg15
(lp1712
sg17
(lp1713
VNM_001202855.2:c.1114C>T
p1714
aVNM_017460.5:c.1117C>T
p1715
aVXM_011515841.1:c.1117C>T
p1716
aVXM_011515842.1:c.1114C>T
p1717
asg23
(lp1718
Vrs45614732
p1719
assg28
I99359800
sg29
(dp1720
g31
VCYP3A4
p1721
sg33
VPA130
p1722
ssg35
(dp1723
g37
(lp1724
g39
(g40
g41
Ntp1725
Rp1726
(dp1727
g45
g46
sg47
g93
sbag39
(g40
g41
Ntp1728
Rp1729
(dp1730
g45
g46
sg47
g52
sbasg49
S'0/1'
p1731
sg51
g91
ssg23
S'rs12721629'
p1732
sa(dp1733
g2
(dp1734
g4
(lp1735
VNC_000007.13:g.99359829G>A
p1736
aVNC_000007.14:g.99762206G>A
p1737
aVNG_008421.1:g.26980C>T
p1738
asg9
(lp1739
VNP_001189784.1:p.Thr362Met
p1740
aVNP_059488.2:p.Thr363Met
p1741
aVXP_011514143.1:p.Thr363Met
p1742
aVXP_011514144.1:p.Thr362Met
p1743
asg15
(lp1744
sg17
(lp1745
VNM_001202855.2:c.1085C>T
p1746
aVNM_017460.5:c.1088C>T
p1747
aVXM_011515841.1:c.1088C>T
p1748
aVXM_011515842.1:c.1085C>T
p1749
asg23
(lp1750
Vrs67784356
p1751
assg28
I99359829
sg29
(dp1752
g31
VCYP3A4
p1753
sg33
VPA130
p1754
ssg35
(dp1755
g37
(lp1756
g39
(g40
g41
Ntp1757
Rp1758
(dp1759
g45
g46
sg47
g48
sbag39
(g40
g41
Ntp1760
Rp1761
(dp1762
g45
g46
sg47
g52
sbasg49
S'0/1'
p1763
sg51
g91
ssg23
S'rs67784355'
p1764
sa(dp1765
g2
(dp1766
g4
(lp1767
VNC_000007.13:g.99361626A>G
p1768
aVNC_000007.14:g.99764003A>G
p1769
aVNG_008421.1:g.25183T>C
p1770
asg9
(lp1771
VNP_001189784.1:p.Leu292Pro
p1772
aVNP_059488.2:p.Leu293Pro
p1773
aVXP_011514143.1:p.Leu293Pro
p1774
aVXP_011514144.1:p.Leu292Pro
p1775
asg15
(lp1776
sg17
(lp1777
VNM_001202855.2:c.875T>C
p1778
aVNM_017460.5:c.878T>C
p1779
aVXM_011515841.1:c.878T>C
p1780
aVXM_011515842.1:c.875T>C
p1781
asg23
(lp1782
Vrs386574775
p1783
aVrs60608883
p1784
assg28
I99361626
sg29
(dp1785
g31
VCYP3A4
p1786
sg33
VPA130
p1787
ssg35
(dp1788
g37
(lp1789
g39
(g40
g41
Ntp1790
Rp1791
(dp1792
g45
g46
sg47
g93
sbag39
(g40
g41
Ntp1793
Rp1794
(dp1795
g45
g46
sg47
g52
sbasg49
S'0/1'
p1796
sg51
g48
ssg23
S'rs28371759'
p1797
sa(dp1798
g2
(dp1799
g4
(lp1800
VNC_000007.14:g.99766440G>A
p1801
aVNC_000007.13:g.99364063G>A
p1802
aVNG_008421.1:g.22746C>T
p1803
asg9
(lp1804
VNP_059488.2:p.Arg268Ter
p1805
aVNP_001189784.1:p.Arg267Ter
p1806
aVXP_011514143.1:p.Arg268Ter
p1807
aVXP_011514144.1:p.Arg267Ter
p1808
asg15
(lp1809
sg17
(lp1810
VNM_001202855.2:c.799C>T
p1811
aVNM_017460.5:c.802C>T
p1812
aVXM_011515841.1:c.802C>T
p1813
aVXM_011515842.1:c.799C>T
p1814
asg23
(lp1815
ssg28
I99364063
sg29
(dp1816
g31
S'CYP3A4'
p1817
sg33
S'1576'
p1818
ssg35
(dp1819
g37
(lp1820
g39
(g40
g41
Ntp1821
Rp1822
(dp1823
g45
g46
sg47
g48
sbag39
(g40
g41
Ntp1824
Rp1825
(dp1826
g45
g46
sg47
g52
sbasg49
S'0/1'
p1827
sg51
g91
ssg23
S'rs138105638'
p1828
sa(dp1829
g2
(dp1830
g4
(lp1831
VNC_000007.13:g.99365983A>G
p1832
aVNC_000007.14:g.99768360A>G
p1833
aVNG_008421.1:g.20826T>C
p1834
asg9
(lp1835
VNP_001189784.1:p.Ser222Pro
p1836
aVNP_059488.2:p.Ser222Pro
p1837
aVXP_011514143.1:p.Ser222Pro
p1838
aVXP_011514144.1:p.Ser222Pro
p1839
asg15
(lp1840
sg17
(lp1841
VNM_001202855.2:c.664T>C
p1842
aVNM_017460.5:c.664T>C
p1843
aVXM_011515841.1:c.664T>C
p1844
aVXM_011515842.1:c.664T>C
p1845
asg23
(lp1846
ssg28
I99365983
sg29
(dp1847
g31
VCYP3A4
p1848
sg33
VPA130
p1849
ssg35
(dp1850
g37
(lp1851
g39
(g40
g41
Ntp1852
Rp1853
(dp1854
g45
g46
sg47
g91
sbasg49
S'0/1'
p1855
sg51
g48
ssg23
S'rs55785340'
p1856
sa(dp1857
g2
(dp1858
g4
(lp1859
VNC_000007.13:g.99366081A>G
p1860
aVNC_000007.14:g.99768458A>G
p1861
aVNG_008421.1:g.20728T>C
p1862
asg9
(lp1863
VNP_001189784.1:p.Phe189Ser
p1864
aVNP_059488.2:p.Phe189Ser
p1865
aVXP_011514143.1:p.Phe189Ser
p1866
aVXP_011514144.1:p.Phe189Ser
p1867
asg15
(lp1868
sg17
(lp1869
VNM_001202855.2:c.566T>C
p1870
aVNM_017460.5:c.566T>C
p1871
aVXM_011515841.1:c.566T>C
p1872
aVXM_011515842.1:c.566T>C
p1873
asg23
(lp1874
ssg28
I99366081
sg29
(dp1875
g31
VCYP3A
p1876
sg33
VPA27114
p1877
ssg35
(dp1878
g37
(lp1879
g39
(g40
g41
Ntp1880
Rp1881
(dp1882
g45
g46
sg47
g93
sbag39
(g40
g41
Ntp1883
Rp1884
(dp1885
g45
g46
sg47
g52
sbasg49
S'0/1'
p1886
sg51
g48
ssg23
S'rs4987161'
p1887
sa(dp1888
g2
(dp1889
g4
(lp1890
VNC_000007.13:g.99366093G>C
p1891
aVNC_000007.14:g.99768470G>C
p1892
aVNG_008421.1:g.20716C>G
p1893
asg9
(lp1894
VNP_001189784.1:p.Thr185Ser
p1895
aVNP_059488.2:p.Thr185Ser
p1896
aVXP_011514143.1:p.Thr185Ser
p1897
aVXP_011514144.1:p.Thr185Ser
p1898
asg15
(lp1899
sg17
(lp1900
VNM_001202855.2:c.554C>G
p1901
aVNM_017460.5:c.554C>G
p1902
aVXM_011515841.1:c.554C>G
p1903
aVXM_011515842.1:c.554C>G
p1904
asg23
(lp1905
Vrs28371754
p1906
aVrs56915287
p1907
assg28
I99366093
sg29
(dp1908
g31
VCYP3A
p1909
sg33
VPA27114
p1910
ssg35
(dp1911
g37
(lp1912
g39
(g40
g41
Ntp1913
Rp1914
(dp1915
g45
g46
sg47
g93
sbasg49
S'0/1'
p1916
sg51
g91
ssg23
S'rs12721627'
p1917
sa(dp1918
g2
(dp1919
g4
(lp1920
VNC_000007.13:g.99366316G>A
p1921
aVNC_000007.14:g.99768693G>A
p1922
aVNG_008421.1:g.20493C>T
p1923
asg9
(lp1924
sg15
(lp1925
sg17
(lp1926
VNM_001202855.2:c.522-191C>T
p1927
aVNM_017460.5:c.522-191C>T
p1928
aVXM_011515841.1:c.522-191C>T
p1929
aVXM_011515842.1:c.522-191C>T
p1930
asg23
(lp1931
Vrs45581939
p1932
aVrs62471940
p1933
assg28
I99366316
sg29
(dp1934
g31
VCYP3A
p1935
sg33
VPA27114
p1936
ssg35
(dp1937
g37
(lp1938
g39
(g40
g41
Ntp1939
Rp1940
(dp1941
g45
g46
sg47
g93
sbag39
(g40
g41
Ntp1942
Rp1943
(dp1944
g45
g46
sg47
g52
sbasg49
S'0/1'
p1945
sg51
g91
ssg23
S'rs35599367'
p1946
sa(dp1947
g2
(dp1948
g4
(lp1949
VNC_000007.13:g.99367788C>T
p1950
aVNC_000007.14:g.99770165C>T
p1951
aVNG_008421.1:g.19021G>A
p1952
asg9
(lp1953
VNP_001189784.1:p.Arg130Gln
p1954
aVNP_059488.2:p.Arg130Gln
p1955
aVXP_011514143.1:p.Arg130Gln
p1956
aVXP_011514144.1:p.Arg130Gln
p1957
asg15
(lp1958
sg17
(lp1959
VNM_001202855.2:c.389G>A
p1960
aVNM_017460.5:c.389G>A
p1961
aVXM_011515841.1:c.389G>A
p1962
aVXM_011515842.1:c.389G>A
p1963
asg23
(lp1964
ssg28
I99367788
sg29
(dp1965
g31
VCYP3A4
p1966
sg33
VPA130
p1967
ssg35
(dp1968
g37
(lp1969
g39
(g40
g41
Ntp1970
Rp1971
(dp1972
g45
g46
sg47
g52
sbasg49
S'0/1'
p1973
sg51
g93
ssg23
S'rs72552799'
p1974
sa(dp1975
g2
(dp1976
g4
(lp1977
VNC_000007.13:g.99382096C>T
p1978
aVNC_000007.14:g.99784473C>T
p1979
aVNG_008421.1:g.4713G>A
p1980
asg9
(lp1981
sg15
(lp1982
sg17
(lp1983
VNM_001202855.2:c.-392G>A
p1984
aVNM_017460.5:c.-392G>A
p1985
aVXM_011515841.1:c.-392G>A
p1986
aVXM_011515842.1:c.-392G>A
p1987
asg23
(lp1988
Vrs3176920
p1989
aVrs36231114
p1990
aVrs59393892
p1991
assg28
I99382096
sg29
(dp1992
g31
VCYP3A
p1993
sg33
VPA27114
p1994
ssg35
(dp1995
g37
(lp1996
g39
(g40
g41
Ntp1997
Rp1998
(dp1999
g45
g46
sg47
g48
sbag39
(g40
g41
Ntp2000
Rp2001
(dp2002
g45
g46
sg47
g91
sbasg49
S'0/1'
p2003
sg51
g93
ssg23
S'rs2740574'
p2004
sa(dp2005
g2
(dp2006
g4
(lp2007
VNC_000010.10:g.96521657C>T
p2008
aVNC_000010.11:g.94761900C>T
p2009
aVNG_008384.2:g.4195C>T
p2010
asg9
(lp2011
sg15
(lp2012
sg17
(lp2013
VNM_000769.2:c.-806C>T
p2014
asg23
(lp2015
Vrs117093607
p2016
aVrs17442305
p2017
aVrs17879736
p2018
assg28
I96521657
sg29
(dp2019
g31
VCYP2C19
p2020
sg33
VPA124
p2021
ssg35
(dp2022
g37
(lp2023
g39
(g40
g41
Ntp2024
Rp2025
(dp2026
g45
g46
sg47
g48
sbag39
(g40
g41
Ntp2027
Rp2028
(dp2029
g45
g46
sg47
g52
sbasg49
S'0/1'
p2030
sg51
g93
ssg23
S'rs12248560'
p2031
sa(dp2032
g2
(dp2033
g4
(lp2034
VNC_000010.10:g.96522463A>G
p2035
aVNC_000010.11:g.94762706A>G
p2036
aVNG_008384.2:g.5001A>G
p2037
asg9
(lp2038
VNP_000760.1:p.Met1Val
p2039
asg15
(lp2040
sg17
(lp2041
VNM_000769.1:c.1A>G
p2042
aVNM_000769.2:c.1A>G
p2043
asg23
(lp2044
ssg28
I96522463
sg29
(dp2045
g31
VCYP2C19
p2046
sg33
VPA124
p2047
ssg35
(dp2048
g37
(lp2049
g39
(g40
g41
Ntp2050
Rp2051
(dp2052
g45
g46
sg47
g91
sbag39
(g40
g41
Ntp2053
Rp2054
(dp2055
g45
g46
sg47
g52
sbasg49
S'0/1'
p2056
sg51
g48
ssg23
S'rs28399504'
p2057
sa(dp2058
g2
(dp2059
g4
(lp2060
VNC_000010.10:g.96535173T>C
p2061
aVNC_000010.11:g.94775416T>C
p2062
aVNG_008384.2:g.17711T>C
p2063
asg9
(lp2064
VNP_000760.1:p.Trp120Arg
p2065
asg15
(lp2066
sg17
(lp2067
VNM_000769.1:c.358T>C
p2068
aVNM_000769.2:c.358T>C
p2069
asg23
(lp2070
ssg28
I96535173
sg29
(dp2071
g31
VCYP2C19
p2072
sg33
VPA124
p2073
ssg35
(dp2074
g37
(lp2075
g39
(g40
g41
Ntp2076
Rp2077
(dp2078
g45
g46
sg47
g93
sbasg49
S'0/1'
p2079
sg51
g52
ssg23
S'rs41291556'
p2080
sa(dp2081
g2
(dp2082
g4
(lp2083
VNC_000010.10:g.96535210G>A
p2084
aVNC_000010.11:g.94775453G>A
p2085
aVNG_008384.2:g.17748G>A
p2086
asg9
(lp2087
VNP_000760.1:p.Arg132Gln
p2088
asg15
(lp2089
sg17
(lp2090
VNM_000769.1:c.395G>A
p2091
aVNM_000769.2:c.395G>A
p2092
asg23
(lp2093
ssg28
I96535210
sg29
(dp2094
g31
VCYP2C19
p2095
sg33
VPA124
p2096
ssg35
(dp2097
g37
(lp2098
g39
(g40
g41
Ntp2099
Rp2100
(dp2101
g45
g46
sg47
g48
sbasg49
S'0/1'
p2102
sg51
g91
ssg23
S'rs72552267'
p2103
sa(dp2104
g2
(dp2105
g4
(lp2106
VNC_000010.10:g.96535246G>A
p2107
aVNC_000010.10:g.96535246G>C
p2108
aVNC_000010.11:g.94775489G>A
p2109
aVNC_000010.11:g.94775489G>C
p2110
aVNG_008384.2:g.17784G>A
p2111
aVNG_008384.2:g.17784G>C
p2112
asg9
(lp2113
VNP_000760.1:p.Arg144His
p2114
aVNP_000760.1:p.Arg144Pro
p2115
asg15
(lp2116
sg17
(lp2117
VNM_000769.1:c.431G>A
p2118
aVNM_000769.1:c.431G>C
p2119
aVNM_000769.2:c.431G>A
p2120
aVNM_000769.2:c.431G>C
p2121
asg23
(lp2122
Vrs59525653
p2123
assg28
I96535246
sg29
(dp2124
g31
VCYP2C19
p2125
sg33
VPA124
p2126
ssg35
(dp2127
g37
(lp2128
g39
(g40
g41
Ntp2129
Rp2130
(dp2131
g45
g46
sg47
g48
sbasg49
S'0/1'
p2132
sg51
g91
ssg23
S'rs17884712'
p2133
sa(dp2134
g2
(dp2135
g4
(lp2136
VNC_000010.10:g.96540410G>A
p2137
aVNC_000010.11:g.94780653G>A
p2138
aVNG_008384.2:g.22948G>A
p2139
asg9
(lp2140
VNP_000760.1:p.Trp212Ter
p2141
asg15
(lp2142
sg17
(lp2143
VNM_000769.2:c.636G>A
p2144
asg23
(lp2145
Vrs52827375
p2146
aVrs57081121
p2147
assg28
I96540410
sg29
(dp2148
g31
VCYP2C19
p2149
sg33
VPA124
p2150
ssg35
(dp2151
g37
(lp2152
g39
(g40
g41
Ntp2153
Rp2154
(dp2155
g45
g46
sg47
g48
sbasg49
S'0/1'
p2156
sg51
g91
ssg23
S'rs4986893'
p2157
sa(dp2158
g2
(dp2159
g4
(lp2160
VNC_000010.10:g.96541615C>T
p2161
aVNC_000010.11:g.94781858C>T
p2162
aVNG_008384.2:g.24153C>T
p2163
asg9
(lp2164
VNP_000760.1:p.Pro227Leu
p2165
asg15
(lp2166
sg17
(lp2167
VNM_000769.1:c.680C>T
p2168
aVNM_000769.2:c.680C>T
p2169
asg23
(lp2170
ssg28
I96541615
sg29
(dp2171
g31
VCYP2C19
p2172
sg33
VPA124
p2173
ssg35
(dp2174
g37
(lp2175
g39
(g40
g41
Ntp2176
Rp2177
(dp2178
g45
g46
sg47
g52
sbasg49
S'0/1'
p2179
sg51
g93
ssg23
S'rs6413438'
p2180
sa(dp2181
g2
(dp2182
g4
(lp2183
VNC_000010.10:g.96541616G>A
p2184
aVNC_000010.11:g.94781859G>A
p2185
aVNG_008384.2:g.24154G>A
p2186
asg9
(lp2187
VNP_000760.1:p.Pro227=
p2188
asg15
(lp2189
sg17
(lp2190
VNM_000769.1:c.681G>A
p2191
aVNM_000769.2:c.681G>A
p2192
asg23
(lp2193
Vrs116940633
p2194
aVrs17879456
p2195
aVrs60361278
p2196
assg28
I96541616
sg29
(dp2197
g31
VCYP2C19
p2198
sg33
VPA124
p2199
ssg35
(dp2200
g37
(lp2201
g39
(g40
g41
Ntp2202
Rp2203
(dp2204
g45
g46
sg47
g48
sbag39
(g40
g41
Ntp2205
Rp2206
(dp2207
g45
g46
sg47
g93
sbasg49
S'0/1'
p2208
sg51
g91
ssg23
S'rs4244285'
p2209
sa(dp2210
g2
(dp2211
g4
(lp2212
VNC_000010.10:g.96541756T>A
p2213
aVNC_000010.10:g.96541756T>C
p2214
aVNC_000010.11:g.94781999T>A
p2215
aVNC_000010.11:g.94781999T>C
p2216
aVNG_008384.2:g.24294T>A
p2217
aVNG_008384.2:g.24294T>C
p2218
asg9
(lp2219
sg15
(lp2220
sg17
(lp2221
VNM_000769.1:c.819+2T>A
p2222
aVNM_000769.1:c.819+2T>C
p2223
aVNM_000769.2:c.819+2T>A
p2224
aVNM_000769.2:c.819+2T>C
p2225
asg23
(lp2226
ssg28
I96541756
sg29
(dp2227
g31
VCYP2C19
p2228
sg33
VPA124
p2229
ssg35
(dp2230
g37
(lp2231
g39
(g40
g41
Ntp2232
Rp2233
(dp2234
g45
g46
sg47
g48
sbag39
(g40
g41
Ntp2235
Rp2236
(dp2237
g45
g46
sg47
g93
sbasg49
S'0/1'
p2238
sg51
g52
ssg23
S'rs72558186'
p2239
sa(dp2240
g2
(dp2241
g4
(lp2242
VNC_000010.10:g.96612495C>T
p2243
aVNC_000010.11:g.94852738C>T
p2244
aVNG_008384.2:g.95033C>T
p2245
asg9
(lp2246
VNP_000760.1:p.Arg433Trp
p2247
asg15
(lp2248
sg17
(lp2249
VNM_000769.1:c.1297C>T
p2250
aVNM_000769.2:c.1297C>T
p2251
asg23
(lp2252
ssg28
I96612495
sg29
(dp2253
g31
VCYP2C19
p2254
sg33
VPA124
p2255
ssg35
(dp2256
g37
(lp2257
g39
(g40
g41
Ntp2258
Rp2259
(dp2260
g45
g46
sg47
g52
sbasg49
S'0/1'
p2261
sg51
g93
ssg23
S'rs56337013'
p2262
sa(dp2263
g2
(dp2264
g4
(lp2265
VNC_000010.10:g.96702047C=
p2266
aVNC_000010.10:g.96702047C>T
p2267
aVNC_000010.11:g.94942290C=
p2268
aVNC_000010.11:g.94942290C>T
p2269
aVNG_008385.1:g.8633C=
p2270
aVNG_008385.1:g.8633C>T
p2271
asg9
(lp2272
VNP_000762.2:p.Arg144=
p2273
aVNP_000762.2:p.Arg144Cys
p2274
aVXP_005269632.1:p.Arg144=
p2275
aVXP_005269632.1:p.Arg144Cys
p2276
asg15
(lp2277
sg17
(lp2278
VNM_000771.3:c.430C=
p2279
aVNM_000771.3:c.430C>T
p2280
aVXM_005269575.1:c.430C=
p2281
aVXM_005269575.1:c.430C>T
p2282
asg23
(lp2283
Vrs17110268
p2284
aVrs28371674
p2285
aVrs33968134
p2286
aVrs60690363
p2287
assg28
I96702047
sg29
(dp2288
g31
VCYP2C9
p2289
sg33
VPA126
p2290
ssg35
(dp2291
g37
(lp2292
g39
(g40
g41
Ntp2293
Rp2294
(dp2295
g45
g46
sg47
g52
sbasg49
S'0/1'
p2296
sg51
g93
ssg23
S'rs1799853'
p2297
sa(dp2298
g2
(dp2299
g4
(lp2300
VNC_000010.10:g.96535246G>A
p2301
aVNC_000010.10:g.96535246G>C
p2302
aVNC_000010.11:g.94775489G>A
p2303
aVNC_000010.11:g.94775489G>C
p2304
aVNG_008384.2:g.17784G>A
p2305
aVNG_008384.2:g.17784G>C
p2306
asg9
(lp2307
VNP_000760.1:p.Arg144His
p2308
aVNP_000760.1:p.Arg144Pro
p2309
asg15
(lp2310
sg17
(lp2311
VNM_000769.1:c.431G>A
p2312
aVNM_000769.1:c.431G>C
p2313
aVNM_000769.2:c.431G>A
p2314
aVNM_000769.2:c.431G>C
p2315
asg23
(lp2316
Vrs59525653
p2317
assg28
I96702048
sg29
(dp2318
g31
VCYP2C19
p2319
sg33
VPA124
p2320
ssg35
(dp2321
g37
(lp2322
g39
(g40
g41
Ntp2323
Rp2324
(dp2325
g45
g46
sg47
g48
sbasg49
S'0/1'
p2326
sg51
g91
ssg23
S'rs17884712'
p2327
sa(dp2328
g2
(dp2329
g4
(lp2330
VNC_000010.10:g.96740981C>T
p2331
aVNC_000010.11:g.94981224C>T
p2332
aVNG_008385.1:g.47567C>T
p2333
asg9
(lp2334
VNP_000762.2:p.Arg335Trp
p2335
aVXP_005269632.1:p.Arg335Trp
p2336
asg15
(lp2337
sg17
(lp2338
VNM_000771.3:c.1003C>T
p2339
aVXM_005269575.1:c.1003C>T
p2340
asg23
(lp2341
Vrs60219528
p2342
assg28
I96740981
sg29
(dp2343
g31
VCYP2C9
p2344
sg33
VPA126
p2345
ssg35
(dp2346
g37
(lp2347
g39
(g40
g41
Ntp2348
Rp2349
(dp2350
g45
g46
sg47
g52
sbasg49
S'0/1'
p2351
sg51
g93
ssg23
S'rs28371685'
p2352
sa(dp2353
g2
(dp2354
g4
(lp2355
VNC_000010.10:g.96741053A=
p2356
aVNC_000010.10:g.96741053A>C
p2357
aVNC_000010.11:g.94981296A=
p2358
aVNC_000010.11:g.94981296A>C
p2359
aVNG_008385.1:g.47639A=
p2360
aVNG_008385.1:g.47639A>C
p2361
asg9
(lp2362
VNP_000762.2:p.Ile359=
p2363
aVNP_000762.2:p.Ile359Leu
p2364
aVXP_005269632.1:p.Ile359=
p2365
aVXP_005269632.1:p.Ile359Leu
p2366
asg15
(lp2367
sg17
(lp2368
VNM_000771.3:c.1075A=
p2369
aVNM_000771.3:c.1075A>C
p2370
aVXM_005269575.1:c.1075A=
p2371
aVXM_005269575.1:c.1075A>C
p2372
asg23
(lp2373
Vrs17847042
p2374
aVrs3198471
p2375
aVrs61212474
p2376
assg28
I96741053
sg29
(dp2377
g31
VCYP2C9
p2378
sg33
VPA126
p2379
ssg35
(dp2380
g37
(lp2381
g39
(g40
g41
Ntp2382
Rp2383
(dp2384
g45
g46
sg47
g93
sbasg49
S'0/1'
p2385
sg51
g48
ssg23
S'rs1057910'
p2386
sa(dp2387
g2
(dp2388
g4
(lp2389
VNC_000010.10:g.96741054T>C
p2390
aVNC_000010.11:g.94981297T>C
p2391
aVNG_008385.1:g.47640T>C
p2392
asg9
(lp2393
VNP_000762.2:p.Ile359Thr
p2394
aVXP_005269632.1:p.Ile359Thr
p2395
asg15
(lp2396
sg17
(lp2397
VNM_000771.3:c.1076T>C
p2398
aVXM_005269575.1:c.1076T>C
p2399
asg23
(lp2400
ssg28
I96741054
sg29
(dp2401
g31
VCYP2C9
p2402
sg33
VPA126
p2403
ssg35
(dp2404
g37
(lp2405
g39
(g40
g41
Ntp2406
Rp2407
(dp2408
g45
g46
sg47
g48
sbag39
(g40
g41
Ntp2409
Rp2410
(dp2411
g45
g46
sg47
g93
sbasg49
S'0/1'
p2412
sg51
g52
ssg23
S'rs56165452'
p2413
sa(dp2414
g2
(dp2415
g4
(lp2416
VNC_000010.10:g.96741058C>G
p2417
aVNC_000010.11:g.94981301C>G
p2418
aVNG_008385.1:g.47644C>G
p2419
asg9
(lp2420
VNP_000762.2:p.Asp360Glu
p2421
aVXP_005269632.1:p.Asp360Glu
p2422
asg15
(lp2423
sg17
(lp2424
VNM_000771.3:c.1080C>G
p2425
aVXM_005269575.1:c.1080C>G
p2426
asg23
(lp2427
Vrs57527516
p2428
assg28
I96741058
sg29
(dp2429
g31
VCYP2C9
p2430
sg33
VPA126
p2431
ssg35
(dp2432
g37
(lp2433
g39
(g40
g41
Ntp2434
Rp2435
(dp2436
g45
g46
sg47
g48
sbag39
(g40
g41
Ntp2437
Rp2438
(dp2439
g45
g46
sg47
g91
sbasg49
S'0/1'
p2440
sg51
g93
ssg23
S'rs28371686'
p2441
sa(dp2442
g2
(dp2443
g4
(lp2444
VNC_000010.10:g.96827030C>T
p2445
aVNC_000010.11:g.95067273C>T
p2446
aVNG_007972.1:g.7225G>A
p2447
asg9
(lp2448
VNP_000761.3:p.Arg139Lys
p2449
aVNP_001185782.1:p.Arg69Lys
p2450
aVNP_001185783.1:p.Arg37Lys
p2451
aVNP_001185784.1:p.Arg69Lys
p2452
asg15
(lp2453
VXR_246073.1:n.512G>A
p2454
aVXR_945610.1:n.512G>A
p2455
asg17
(lp2456
VNM_000770.3:c.416G>A
p2457
aVNM_001198853.1:c.206G>A
p2458
aVNM_001198854.1:c.110G>A
p2459
aVNM_001198855.1:c.206G>A
p2460
asg23
(lp2461
Vrs60090616
p2462
assg28
I96827030
sg29
(dp2463
g31
VCYP2C8
p2464
sg33
VPA125
p2465
ssg35
(dp2466
g37
(lp2467
g39
(g40
g41
Ntp2468
Rp2469
(dp2470
g45
g46
sg47
g48
sbag39
(g40
g41
Ntp2471
Rp2472
(dp2473
g45
g46
sg47
g91
sbasg49
S'0/1'
p2474
sg51
g93
ssg23
S'rs11572080'
p2475
sa(dp2476
g2
(dp2477
g4
(lp2478
VNC_000010.10:g.101542578C>T
p2479
aVNC_000010.11:g.99782821C>T
p2480
aVNG_011798.1:g.5116C>T
p2481
asg9
(lp2482
sg15
(lp2483
VXR_945604.1:n.166C>T
p2484
aVXR_945605.1:n.168C>T
p2485
asg17
(lp2486
VNM_000392.4:c.-24C>T
p2487
aVXM_005269536.1:c.-24C>T
p2488
aVXM_006717631.2:c.-24C>T
p2489
aVXM_011539291.1:c.-24C>T
p2490
asg23
(lp2491
Vrs17216163
p2492
aVrs386485129
p2493
aVrs58371376
p2494
assg28
I101542578
sg29
(dp2495
g31
VABCC2
p2496
sg33
VPA116
p2497
ssg35
(dp2498
g37
(lp2499
g39
(g40
g41
Ntp2500
Rp2501
(dp2502
g45
g46
sg47
g48
sbag39
(g40
g41
Ntp2503
Rp2504
(dp2505
g45
g46
sg47
g91
sbasg49
S'0/1'
p2506
sg51
g93
ssg23
S'rs717620'
p2507
sa(dp2508
g2
(dp2509
g4
(lp2510
VNC_000012.11:g.21331549T>C
p2511
aVNC_000012.12:g.21178615T>C
p2512
aVNG_011745.1:g.52422T>C
p2513
asg9
(lp2514
VNP_006437.3:p.Val174Ala
p2515
asg15
(lp2516
sg17
(lp2517
VNM_006446.4:c.521T>C
p2518
asg23
(lp2519
Vrs52816141
p2520
aVrs60037639
p2521
assg28
I21331549
sg29
(dp2522
g31
VSLCO1B1
p2523
sg33
VPA134865839
p2524
ssg35
(dp2525
g37
(lp2526
g39
(g40
g41
Ntp2527
Rp2528
(dp2529
g45
g46
sg47
g93
sbasg49
S'0/1'
p2530
sg51
g52
ssg23
S'rs4149056'
p2531
sa(dp2532
g2
(dp2533
g4
(lp2534
VNC_000013.10:g.48619855C>T
p2535
aVNC_000013.11:g.48045719C>T
p2536
asg9
(lp2537
VNP_060753.1:p.Arg139Cys
p2538
asg15
(lp2539
sg17
(lp2540
VNM_018283.2:c.415C>T
p2541
asg23
(lp2542
ssg28
I48619855
sg29
(dp2543
g31
VNUDT15
p2544
sg33
VPA134963132
p2545
ssg35
(dp2546
g37
(lp2547
g39
(g40
g41
Ntp2548
Rp2549
(dp2550
g45
g46
sg47
g52
sbasg49
S'0/1'
p2551
sg51
g93
ssg23
S'rs116855232'
p2552
sa(dp2553
g2
(dp2554
g4
(lp2555
VNC_000015.10:g.74745879G>A
p2556
aVNC_000015.9:g.75038220G>A
p2557
aVNG_008431.1:g.28338G>A
p2558
asg9
(lp2559
sg15
(lp2560
sg17
(lp2561
sg23
(lp2562
ssg28
I75038220
sg29
(dp2563
g31
VCYP1A2
p2564
sg33
VPA27093
p2565
ssg35
(dp2566
g37
(lp2567
g39
(g40
g41
Ntp2568
Rp2569
(dp2570
g45
g46
sg47
g48
sbasg49
S'0/1'
p2571
sg51
g91
ssg23
S'rs2069514'
p2572
sa(dp2573
g2
(dp2574
g4
(lp2575
VNC_000015.10:g.74749000T>G
p2576
aVNC_000015.9:g.75041341T>G
p2577
aVNG_008431.1:g.31459T>G
p2578
asg9
(lp2579
sg15
(lp2580
sg17
(lp2581
VNM_000761.3:c.-10+103T>G
p2582
aVNM_000761.4:c.-10+103T>G
p2583
asg23
(lp2584
Vrs17861148
p2585
aVrs57601484
p2586
aVrs61709032
p2587
assg28
I75041341
sg29
(dp2588
g31
VCYP1A2
p2589
sg33
VPA27093
p2590
ssg35
(dp2591
g37
(lp2592
g39
(g40
g41
Ntp2593
Rp2594
(dp2595
g45
g46
sg47
g91
sbasg49
S'0/1'
p2596
sg51
g52
ssg23
S'rs2069526'
p2597
sa(dp2598
g2
(dp2599
g4
(lp2600
VNC_000015.10:g.74749010C>T
p2601
aVNC_000015.9:g.75041351C>T
p2602
aVNG_008431.1:g.31469C>T
p2603
asg9
(lp2604
sg15
(lp2605
sg17
(lp2606
VNM_000761.3:c.-10+113C>T
p2607
aVNM_000761.4:c.-10+113C>T
p2608
asg23
(lp2609
Vrs59459319
p2610
assg28
I75041351
sg29
(dp2611
g31
VCYP1A2
p2612
sg33
VPA27093
p2613
ssg35
(dp2614
g37
(lp2615
g39
(g40
g41
Ntp2616
Rp2617
(dp2618
g45
g46
sg47
g52
sbasg49
S'0/1'
p2619
sg51
g93
ssg23
S'rs12720461'
p2620
sa(dp2621
g2
(dp2622
g4
(lp2623
VNC_000015.10:g.74749576C>A
p2624
aVNC_000015.9:g.75041917C>A
p2625
aVNG_008431.1:g.32035C>A
p2626
asg9
(lp2627
sg15
(lp2628
sg17
(lp2629
VNM_000761.3:c.-9-154C>A
p2630
aVNM_000761.4:c.-9-154C>A
p2631
asg23
(lp2632
Vrs17861151
p2633
aVrs57172993
p2634
assg28
I75041917
sg29
(dp2635
g31
VCYP1A2
p2636
sg33
VPA27093
p2637
ssg35
(dp2638
g37
(lp2639
g39
(g40
g41
Ntp2640
Rp2641
(dp2642
g45
g46
sg47
g48
sbasg49
S'0/1'
p2643
sg51
g93
ssg23
S'rs762551'
p2644
sa(dp2645
g2
(dp2646
g4
(lp2647
VNC_000015.10:g.74749863C>G
p2648
aVNC_000015.9:g.75042204C>G
p2649
aVNG_008431.1:g.32322C>G
p2650
asg9
(lp2651
VNP_000752.2:p.Pro42Arg
p2652
asg15
(lp2653
sg17
(lp2654
VNM_000761.3:c.125C>G
p2655
aVNM_000761.4:c.125C>G
p2656
asg23
(lp2657
ssg28
I75042204
sg29
(dp2658
g31
VCYP1A2
p2659
sg33
VPA27093
p2660
ssg35
(dp2661
g37
(lp2662
g39
(g40
g41
Ntp2663
Rp2664
(dp2665
g45
g46
sg47
g91
sbasg49
S'0/1'
p2666
sg51
g93
ssg23
S'rs72547511'
p2667
sa(dp2668
g2
(dp2669
g4
(lp2670
VNC_000015.10:g.74750296C>A
p2671
aVNC_000015.10:g.74750296C>T
p2672
aVNC_000015.9:g.75042637C>A
p2673
aVNC_000015.9:g.75042637C>T
p2674
aVNG_008431.1:g.32755C>A
p2675
aVNG_008431.1:g.32755C>T
p2676
asg9
(lp2677
VNP_000752.2:p.Phe186=
p2678
aVNP_000752.2:p.Phe186Leu
p2679
asg15
(lp2680
sg17
(lp2681
VNM_000761.3:c.558C>A
p2682
aVNM_000761.3:c.558C>T
p2683
aVNM_000761.4:c.558C>A
p2684
aVNM_000761.4:c.558C>T
p2685
asg23
(lp2686
ssg28
I75042637
sg29
(dp2687
g31
VCYP1A2
p2688
sg33
VPA27093
p2689
ssg35
(dp2690
g37
(lp2691
g39
(g40
g41
Ntp2692
Rp2693
(dp2694
g45
g46
sg47
g48
sbag39
(g40
g41
Ntp2695
Rp2696
(dp2697
g45
g46
sg47
g52
sbasg49
S'0/1'
p2698
sg51
g93
ssg23
S'rs72547513'
p2699
sa(dp2700
g2
(dp2701
g4
(lp2702
VNC_000015.10:g.74751854G>A
p2703
aVNC_000015.9:g.75044195G>A
p2704
aVNG_008431.1:g.34313G>A
p2705
asg9
(lp2706
VNP_000752.2:p.Asp348Asn
p2707
asg15
(lp2708
sg17
(lp2709
VNM_000761.3:c.1042G>A
p2710
aVNM_000761.4:c.1042G>A
p2711
asg23
(lp2712
ssg28
I75044195
sg29
(dp2713
g31
VCYP1A2
p2714
sg33
VPA27093
p2715
ssg35
(dp2716
g37
(lp2717
g39
(g40
g41
Ntp2718
Rp2719
(dp2720
g45
g46
sg47
g48
sbasg49
S'0/1'
p2721
sg51
g91
ssg23
S'rs56276455'
p2722
sa(dp2723
g2
(dp2724
g4
(lp2725
VNC_000015.10:g.74752211G>A
p2726
aVNC_000015.10:g.74752211G>C
p2727
aVNC_000015.9:g.75044552G>A
p2728
aVNC_000015.9:g.75044552G>C
p2729
aVNG_008431.1:g.34670G>A
p2730
aVNG_008431.1:g.34670G>C
p2731
asg9
(lp2732
VNP_000752.2:p.Arg377Gln
p2733
aVNP_000752.2:p.Arg377Pro
p2734
asg15
(lp2735
sg17
(lp2736
VNM_000761.3:c.1130G>A
p2737
aVNM_000761.3:c.1130G>C
p2738
aVNM_000761.4:c.1130G>A
p2739
aVNM_000761.4:c.1130G>C
p2740
asg23
(lp2741
ssg28
I75044552
sg29
(dp2742
g31
VCYP1A2
p2743
sg33
VPA27093
p2744
ssg35
(dp2745
g37
(lp2746
g39
(g40
g41
Ntp2747
Rp2748
(dp2749
g45
g46
sg47
g93
sbag39
(g40
g41
Ntp2750
Rp2751
(dp2752
g45
g46
sg47
g52
sbasg49
S'0/1'
p2753
sg51
g91
ssg23
S'rs72547515'
p2754
sa(dp2755
g2
(dp2756
g4
(lp2757
VNC_000015.10:g.74752237A>G
p2758
aVNC_000015.10:g.74752237A>T
p2759
aVNC_000015.9:g.75044578A>G
p2760
aVNC_000015.9:g.75044578A>T
p2761
aVNG_008431.1:g.34696A>G
p2762
aVNG_008431.1:g.34696A>T
p2763
asg9
(lp2764
VNP_000752.2:p.Ile386Phe
p2765
aVNP_000752.2:p.Ile386Val
p2766
asg15
(lp2767
sg17
(lp2768
VNM_000761.3:c.1156A>G
p2769
aVNM_000761.3:c.1156A>T
p2770
aVNM_000761.4:c.1156A>G
p2771
aVNM_000761.4:c.1156A>T
p2772
asg23
(lp2773
ssg28
I75044578
sg29
(dp2774
g31
VCYP1A2
p2775
sg33
VPA27093
p2776
ssg35
(dp2777
g37
(lp2778
g39
(g40
g41
Ntp2779
Rp2780
(dp2781
g45
g46
sg47
g91
sbag39
(g40
g41
Ntp2782
Rp2783
(dp2784
g45
g46
sg47
g52
sbasg49
S'0/1'
p2785
sg51
g48
ssg23
S'rs72547516'
p2786
sa(dp2787
g2
(dp2788
g4
(lp2789
VNC_000015.10:g.74753271G>A
p2790
aVNC_000015.9:g.75045612G>A
p2791
aVNG_008431.1:g.35730G>A
p2792
asg9
(lp2793
sg15
(lp2794
sg17
(lp2795
VNM_000761.3:c.1253+1G>A
p2796
aVNM_000761.4:c.1253+1G>A
p2797
asg23
(lp2798
Vrs57702151
p2799
assg28
I75045612
sg29
(dp2800
g31
VCYP1A2
p2801
sg33
VPA27093
p2802
ssg35
(dp2803
g37
(lp2804
g39
(g40
g41
Ntp2805
Rp2806
(dp2807
g45
g46
sg47
g48
sbag39
(g40
g41
Ntp2808
Rp2809
(dp2810
g45
g46
sg47
g93
sbasg49
S'0/1'
p2811
sg51
g91
ssg23
S'rs56107638'
p2812
sa(dp2813
g2
(dp2814
g4
(lp2815
VNC_000015.10:g.74754828C>T
p2816
aVNC_000015.9:g.75047169C>T
p2817
aVNG_008431.1:g.37287C>T
p2818
asg9
(lp2819
VNP_000752.2:p.Arg431Trp
p2820
asg15
(lp2821
sg17
(lp2822
VNM_000761.3:c.1291C>T
p2823
aVNM_000761.4:c.1291C>T
p2824
asg23
(lp2825
ssg28
I75047169
sg29
(dp2826
g31
VCYP1A2
p2827
sg33
VPA27093
p2828
ssg35
(dp2829
g37
(lp2830
g39
(g40
g41
Ntp2831
Rp2832
(dp2833
g45
g46
sg47
g52
sbasg49
S'0/1'
p2834
sg51
g93
ssg23
S'rs28399424'
p2835
sa(dp2836
g2
(dp2837
g4
(lp2838
VNC_000015.10:g.74754904G>A
p2839
aVNC_000015.9:g.75047245G>A
p2840
aVNG_008431.1:g.37363G>A
p2841
asg9
(lp2842
VNP_000752.2:p.Arg456His
p2843
asg15
(lp2844
sg17
(lp2845
VNM_000761.3:c.1367G>A
p2846
aVNM_000761.4:c.1367G>A
p2847
asg23
(lp2848
ssg28
I75047245
sg29
(dp2849
g31
VCYP1A2
p2850
sg33
VPA27093
p2851
ssg35
(dp2852
g37
(lp2853
g39
(g40
g41
Ntp2854
Rp2855
(dp2856
g45
g46
sg47
g48
sbasg49
S'0/1'
p2857
sg51
g91
ssg23
S'rs72547517'
p2858
sa(dp2859
g2
(dp2860
g4
(lp2861
VNC_000015.10:g.89316763C>A
p2862
aVNC_000015.9:g.89859994C>A
p2863
aVNG_008218.1:g.23033G>T
p2864
aVNG_011736.1:g.77801C>A
p2865
asg9
(lp2866
VNP_001119603.1:p.Gln1236His
p2867
aVNP_002684.1:p.Gln1236His
p2868
asg15
(lp2869
VXR_243211.1:n.4144C>A
p2870
aVXR_243212.1:n.3964C>A
p2871
asg17
(lp2872
VNM_001113378.1:c.*304C>A
p2873
aVNM_001126131.1:c.3708G>T
p2874
aVNM_002693.2:c.3708G>T
p2875
aVNM_018193.2:c.*304C>A
p2876
aVXM_005254946.1:c.*304C>A
p2877
aVXM_005254947.1:c.*304C>A
p2878
aVXM_005254948.1:c.*304C>A
p2879
aVXM_005254949.1:c.*304C>A
p2880
aVXM_005254950.1:c.*304C>A
p2881
aVXM_005254951.1:c.*304C>A
p2882
aVXM_005254952.1:c.*304C>A
p2883
aVXM_005254953.1:c.*304C>A
p2884
aVXM_011521756.1:c.*304C>A
p2885
aVXM_011521757.1:c.*304C>A
p2886
aVXM_011521758.1:c.*304C>A
p2887
aVXM_011521759.1:c.*304C>A
p2888
aVXM_011521760.1:c.*304C>A
p2889
aVXM_011521761.1:c.*304C>A
p2890
aVXM_011521762.1:c.*304C>A
p2891
aVXM_011521763.1:c.*304C>A
p2892
aVXM_011521764.1:c.*304C>A
p2893
aVXM_011521765.1:c.*304C>A
p2894
aVXM_011521766.1:c.*304C>A
p2895
aVXM_011521767.1:c.*304C>A
p2896
aVXM_011521769.1:c.*304C>A
p2897
asg23
(lp2898
Vrs17804776
p2899
aVrs3176244
p2900
aVrs386579081
p2901
aVrs61472028
p2902
assg28
I89859994
sg29
(dp2903
g31
VFANCI
p2904
sg33
VPA162387928
p2905
ssg35
(dp2906
g37
(lp2907
g39
(g40
g41
Ntp2908
Rp2909
(dp2910
g45
g46
sg47
g91
sbag39
(g40
g41
Ntp2911
Rp2912
(dp2913
g45
g46
sg47
g52
sbasg49
S'0/1'
p2914
sg51
g93
ssg23
S'rs3087374'
p2915
sa(dp2916
g2
(dp2917
g4
(lp2918
VNC_000016.10:g.31093557G>A
p2919
aVNC_000016.9:g.31104878G>A
p2920
aVNG_011564.1:g.6399C>T
p2921
asg9
(lp2922
sg15
(lp2923
VXR_243303.1:n.823-236C>T
p2924
aVXR_950848.1:n.962-136C>T
p2925
asg17
(lp2926
VNM_001311311.1:c.174-136C>T
p2927
aVNM_024006.5:c.174-136C>T
p2928
aVNM_206824.2:c.173+1000C>T
p2929
aVXM_005255568.1:c.174-136C>T
p2930
aVXM_011545943.1:c.174-136C>T
p2931
aVXM_011545944.1:c.174-136C>T
p2932
aVXM_011545945.1:c.173+1000C>T
p2933
asg23
(lp2934
Vrs17641219
p2935
assg28
I31104878
sg29
(dp2936
g31
VPRSS53
p2937
sg33
VPA165450635
p2938
ssg35
(dp2939
g37
(lp2940
g39
(g40
g41
Ntp2941
Rp2942
(dp2943
g45
g46
sg47
g48
sbasg49
S'0/1'
p2944
sg51
g91
ssg23
S'rs9934438'
p2945
sa(dp2946
g2
(dp2947
g4
(lp2948
VNC_000016.10:g.31096368C=
p2949
aVNC_000016.10:g.31096368C>T
p2950
aVNC_000016.9:g.31107689C=
p2951
aVNC_000016.9:g.31107689C>T
p2952
aVNG_011564.1:g.3588G=
p2953
aVNG_011564.1:g.3588G>A
p2954
asg9
(lp2955
sg15
(lp2956
VXR_243303.1:n.-990G=
p2957
aVXR_243303.1:n.-990G>A
p2958
aVXR_950848.1:n.-31G=
p2959
aVXR_950848.1:n.-31G>A
p2960
asg17
(lp2961
VNM_001311311.1:c.-1639G=
p2962
aVNM_001311311.1:c.-1639G>A
p2963
aVNM_024006.5:c.-1639G=
p2964
aVNM_024006.5:c.-1639G>A
p2965
aVNM_206824.2:c.-1639G=
p2966
aVNM_206824.2:c.-1639G>A
p2967
aVXM_005255568.1:c.-1639G=
p2968
aVXM_005255568.1:c.-1639G>A
p2969
aVXM_011545943.1:c.-1639G=
p2970
aVXM_011545943.1:c.-1639G>A
p2971
aVXM_011545944.1:c.-1252G=
p2972
aVXM_011545944.1:c.-1252G>A
p2973
aVXM_011545945.1:c.-1252G=
p2974
aVXM_011545945.1:c.-1252G>A
p2975
asg23
(lp2976
Vrs117572127
p2977
aVrs17878363
p2978
aVrs60511154
p2979
assg28
I31107689
sg29
(dp2980
g31
VBCKDK
p2981
sg33
VPA134899581
p2982
ssg35
(dp2983
g37
(lp2984
g39
(g40
g41
Ntp2985
Rp2986
(dp2987
g45
g46
sg47
g48
sbag39
(g40
g41
Ntp2988
Rp2989
(dp2990
g45
g46
sg47
g91
sbag39
(g40
g41
Ntp2991
Rp2992
(dp2993
g45
g46
sg47
g52
sbasg49
S'0/1'
p2994
sg51
g93
ssg23
S'rs9923231'
p2995
sa(dp2996
g2
(dp2997
g4
(lp2998
VNC_000017.10:g.19463343G>A
p2999
aVNC_000017.11:g.19560030G>A
p3000
asg9
(lp3001
sg15
(lp3002
VXR_934310.1:n.1230C>T
p3003
asg17
(lp3004
VNM_018242.2:c.922-158G>A
p3005
aVXM_005256710.1:c.922-158G>A
p3006
aVXM_005256711.1:c.808-158G>A
p3007
aVXM_005256712.1:c.922-158G>A
p3008
aVXM_005256713.1:c.853-158G>A
p3009
aVXM_005256714.1:c.922-158G>A
p3010
asg23
(lp3011
Vrs386563823
p3012
aVrs56528368
p3013
aVrs57126832
p3014
assg28
I19463343
sg29
(dp3015
g31
VSLC47A1
p3016
sg33
VPA162403808
p3017
ssg35
(dp3018
g37
(lp3019
g39
(g40
g41
Ntp3020
Rp3021
(dp3022
g45
g46
sg47
g48
sbasg49
S'0/1'
p3023
sg51
g91
ssg23
S'rs2289669'
p3024
sa(dp3025
g2
(dp3026
g4
(lp3027
VNC_000019.10:g.39248147C>T
p3028
aVNC_000019.9:g.39738787C>T
p3029
aVNG_042193.1:g.1825G>A
p3030
asg9
(lp3031
sg15
(lp3032
VNR_074079.1:n.429-152G>A
p3033
asg17
(lp3034
VNM_001276254.2:c.151-152G>A
p3035
aVXM_011526757.1:c.-1595G>A
p3036
asg23
(lp3037
ssg28
I39738787
sg29
(dp3038
g31
VIFNL3
p3039
sg33
VPA134952671
p3040
ssg35
(dp3041
g37
(lp3042
g39
(g40
g41
Ntp3043
Rp3044
(dp3045
g45
g46
sg47
g52
sbasg49
S'0/1'
p3046
sg51
g93
ssg23
S'rs12979860'
p3047
sa(dp3048
g2
(dp3049
g4
(lp3050
VNC_000019.10:g.40991224T>C
p3051
aVNC_000019.9:g.41497129T>C
p3052
aVNG_007929.1:g.4926T>C
p3053
asg9
(lp3054
sg15
(lp3055
sg17
(lp3056
VNM_000767.4:c.-82T>C
p3057
aVXM_005258569.1:c.-82T>C
p3058
aVXM_005258569.3:c.-82T>C
p3059
aVXM_005258570.1:c.-82T>C
p3060
aVXM_006723050.2:c.-82T>C
p3061
aVXM_011526546.1:c.-82T>C
p3062
aVXM_011526547.1:c.-82T>C
p3063
aVXM_011526548.1:c.-82T>C
p3064
asg23
(lp3065
ssg28
I41497129
sg29
(dp3066
g31
VCYP2B6
p3067
sg33
VPA123
p3068
ssg35
(dp3069
g37
(lp3070
g39
(g40
g41
Ntp3071
Rp3072
(dp3073
g45
g46
sg47
g93
sbasg49
S'0/1'
p3074
sg51
g52
ssg23
S'rs34223104'
p3075
sa(dp3076
g2
(dp3077
g4
(lp3078
VNC_000019.10:g.41004377A>G
p3079
aVNC_000019.9:g.41510282A>G
p3080
aVNG_007929.1:g.18079A>G
p3081
asg9
(lp3082
VNP_000758.1:p.Lys139Glu
p3083
aVXP_005258626.1:p.Lys139Glu
p3084
aVXP_005258627.1:p.Lys139Glu
p3085
aVXP_005258628.1:p.Lys99Glu
p3086
aVXP_006723113.1:p.Lys139Glu
p3087
aVXP_011524848.1:p.Lys139Glu
p3088
aVXP_011524849.1:p.Lys139Glu
p3089
aVXP_011524850.1:p.Lys139Glu
p3090
aVXP_011524852.1:p.Lys99Glu
p3091
asg15
(lp3092
sg17
(lp3093
VNM_000767.4:c.415A>G
p3094
aVXM_005258569.1:c.415A>G
p3095
aVXM_005258569.3:c.415A>G
p3096
aVXM_005258570.1:c.415A>G
p3097
aVXM_005258571.1:c.295A>G
p3098
aVXM_006723050.2:c.415A>G
p3099
aVXM_011526546.1:c.415A>G
p3100
aVXM_011526547.1:c.415A>G
p3101
aVXM_011526548.1:c.415A>G
p3102
aVXM_011526549.1:c.-145A>G
p3103
aVXM_011526550.1:c.295A>G
p3104
asg23
(lp3105
Vrs56006122
p3106
assg28
I41510282
sg29
(dp3107
g31
VCYP2B6
p3108
sg33
VPA123
p3109
ssg35
(dp3110
g37
(lp3111
g39
(g40
g41
Ntp3112
Rp3113
(dp3114
g45
g46
sg47
g91
sbasg49
S'0/1'
p3115
sg51
g48
ssg23
S'rs12721655'
p3116
sa(dp3117
g2
(dp3118
g4
(lp3119
VNC_000019.10:g.41006936G>T
p3120
aVNC_000019.9:g.41512841G>T
p3121
aVNG_007929.1:g.20638G>T
p3122
asg9
(lp3123
VNP_000758.1:p.Gln172His
p3124
aVXP_005258626.1:p.Gln172His
p3125
aVXP_005258627.1:p.Gln172His
p3126
aVXP_006723113.1:p.Gln172His
p3127
aVXP_011524848.1:p.Gln172His
p3128
aVXP_011524849.1:p.Gln172His
p3129
asg15
(lp3130
sg17
(lp3131
VNM_000767.4:c.516G>T
p3132
aVXM_005258569.1:c.516G>T
p3133
aVXM_005258569.3:c.516G>T
p3134
aVXM_005258570.1:c.516G>T
p3135
aVXM_005258571.1:c.364+2490G>T
p3136
aVXM_006723050.2:c.516G>T
p3137
aVXM_011526546.1:c.516G>T
p3138
aVXM_011526547.1:c.516G>T
p3139
aVXM_011526548.1:c.484+2490G>T
p3140
aVXM_011526549.1:c.-75-1G>T
p3141
aVXM_011526550.1:c.364+2490G>T
p3142
asg23
(lp3143
Vrs56308434
p3144
aVrs57685583
p3145
assg28
I41512841
sg29
(dp3146
g31
VCYP2A7P1
p3147
sg33
VPA27103
p3148
ssg35
(dp3149
g37
(lp3150
g39
(g40
g41
Ntp3151
Rp3152
(dp3153
g45
g46
sg47
g48
sbag39
(g40
g41
Ntp3154
Rp3155
(dp3156
g45
g46
sg47
g52
sbasg49
S'0/1'
p3157
sg51
g91
ssg23
S'rs3745274'
p3158
sa(dp3159
g2
(dp3160
g4
(lp3161
VNC_000019.10:g.41007013T>C
p3162
aVNC_000019.9:g.41512918T>C
p3163
aVNG_007929.1:g.20715T>C
p3164
asg9
(lp3165
VNP_000758.1:p.Met198Thr
p3166
aVXP_005258626.1:p.Met198Thr
p3167
aVXP_005258627.1:p.Met198Thr
p3168
aVXP_006723113.1:p.Met198Thr
p3169
aVXP_011524848.1:p.Met198Thr
p3170
aVXP_011524849.1:p.Met198Thr
p3171
aVXP_011524851.1:p.Met1Thr
p3172
asg15
(lp3173
sg17
(lp3174
VNM_000767.4:c.593T>C
p3175
aVXM_005258569.1:c.593T>C
p3176
aVXM_005258569.3:c.593T>C
p3177
aVXM_005258570.1:c.593T>C
p3178
aVXM_005258571.1:c.364+2567T>C
p3179
aVXM_006723050.2:c.593T>C
p3180
aVXM_011526546.1:c.593T>C
p3181
aVXM_011526547.1:c.593T>C
p3182
aVXM_011526548.1:c.484+2567T>C
p3183
aVXM_011526549.1:c.2T>C
p3184
aVXM_011526550.1:c.364+2567T>C
p3185
asg23
(lp3186
ssg28
I41512918
sg29
(dp3187
g31
VCYP2B6
p3188
sg33
VPA123
p3189
ssg35
(dp3190
g37
(lp3191
g39
(g40
g41
Ntp3192
Rp3193
(dp3194
g45
g46
sg47
g93
sbasg49
S'0/1'
p3195
sg51
g52
ssg23
S'rs36079186'
p3196
sa(dp3197
g2
(dp3198
g4
(lp3199
VNC_000019.10:g.41012316T>C
p3200
aVNC_000019.9:g.41518221T>C
p3201
aVNG_007929.1:g.26018T>C
p3202
asg9
(lp3203
VNP_000758.1:p.Ile328Thr
p3204
aVXP_005258626.1:p.Ile328Thr
p3205
aVXP_005258627.1:p.Ile328Thr
p3206
aVXP_005258628.1:p.Ile128Thr
p3207
aVXP_006723113.1:p.Ile328Thr
p3208
aVXP_011524848.1:p.Ile328Thr
p3209
aVXP_011524849.1:p.Ile328Thr
p3210
aVXP_011524850.1:p.Ile168Thr
p3211
aVXP_011524851.1:p.Ile131Thr
p3212
aVXP_011524852.1:p.Ile128Thr
p3213
asg15
(lp3214
sg17
(lp3215
VNM_000767.4:c.983T>C
p3216
aVXM_005258569.1:c.983T>C
p3217
aVXM_005258569.3:c.983T>C
p3218
aVXM_005258570.1:c.983T>C
p3219
aVXM_005258571.1:c.383T>C
p3220
aVXM_006723050.2:c.983T>C
p3221
aVXM_011526546.1:c.983T>C
p3222
aVXM_011526547.1:c.983T>C
p3223
aVXM_011526548.1:c.503T>C
p3224
aVXM_011526549.1:c.392T>C
p3225
aVXM_011526550.1:c.383T>C
p3226
asg23
(lp3227
ssg28
I41518221
sg29
(dp3228
g31
VCYP2B6
p3229
sg33
VPA123
p3230
ssg35
(dp3231
g37
(lp3232
g39
(g40
g41
Ntp3233
Rp3234
(dp3235
g45
g46
sg47
g93
sbasg49
S'0/1'
p3236
sg51
g52
ssg23
S'rs28399499'
p3237
sa(dp3238
g2
(dp3239
g4
(lp3240
VNC_000019.10:g.41012465C>T
p3241
aVNC_000019.9:g.41518370C>T
p3242
aVNG_007929.1:g.26167C>T
p3243
asg9
(lp3244
VNP_000758.1:p.Arg378Ter
p3245
aVXP_005258626.1:p.Arg378Ter
p3246
aVXP_005258627.1:p.Arg378Ter
p3247
aVXP_005258628.1:p.Arg178Ter
p3248
aVXP_006723113.1:p.Arg378Ter
p3249
aVXP_011524848.1:p.Arg378Ter
p3250
aVXP_011524849.1:p.Arg378Ter
p3251
aVXP_011524850.1:p.Arg218Ter
p3252
aVXP_011524851.1:p.Arg181Ter
p3253
aVXP_011524852.1:p.Arg178Ter
p3254
asg15
(lp3255
sg17
(lp3256
VNM_000767.4:c.1132C>T
p3257
aVXM_005258569.1:c.1132C>T
p3258
aVXM_005258569.3:c.1132C>T
p3259
aVXM_005258570.1:c.1132C>T
p3260
aVXM_005258571.1:c.532C>T
p3261
aVXM_006723050.2:c.1132C>T
p3262
aVXM_011526546.1:c.1132C>T
p3263
aVXM_011526547.1:c.1132C>T
p3264
aVXM_011526548.1:c.652C>T
p3265
aVXM_011526549.1:c.541C>T
p3266
aVXM_011526550.1:c.532C>T
p3267
asg23
(lp3268
ssg28
I41518370
sg29
(dp3269
g31
VCYP2B6
p3270
sg33
VPA123
p3271
ssg35
(dp3272
g37
(lp3273
g39
(g40
g41
Ntp3274
Rp3275
(dp3276
g45
g46
sg47
g52
sbasg49
S'0/1'
p3277
sg51
g93
ssg23
S'rs34097093'
p3278
sa(dp3279
g2
(dp3280
g4
(lp3281
VNC_000019.10:g.41016810C>T
p3282
aVNC_000019.9:g.41522715C>T
p3283
aVNG_007929.1:g.30512C>T
p3284
asg9
(lp3285
VNP_000758.1:p.Arg487Cys
p3286
aVXP_005258628.1:p.Arg287Cys
p3287
aVXP_011524850.1:p.Arg327Cys
p3288
aVXP_011524851.1:p.Arg290Cys
p3289
aVXP_011524852.1:p.Arg287Cys
p3290
asg15
(lp3291
sg17
(lp3292
VNM_000767.4:c.1459C>T
p3293
aVXM_005258569.1:c.*48C>T
p3294
aVXM_005258569.3:c.*48C>T
p3295
aVXM_005258570.1:c.*214C>T
p3296
aVXM_005258571.1:c.859C>T
p3297
aVXM_006723050.2:c.*143C>T
p3298
aVXM_011526547.1:c.*214C>T
p3299
aVXM_011526548.1:c.979C>T
p3300
aVXM_011526549.1:c.868C>T
p3301
aVXM_011526550.1:c.859C>T
p3302
asg23
(lp3303
Vrs12721654
p3304
aVrs28399500
p3305
aVrs33995163
p3306
aVrs58951873
p3307
assg28
I41522715
sg29
(dp3308
g31
VCYP2B6
p3309
sg33
VPA123
p3310
ssg35
(dp3311
g37
(lp3312
g39
(g40
g41
Ntp3313
Rp3314
(dp3315
g45
g46
sg47
g48
sbag39
(g40
g41
Ntp3316
Rp3317
(dp3318
g45
g46
sg47
g91
sbag39
(g40
g41
Ntp3319
Rp3320
(dp3321
g45
g46
sg47
g52
sbasg49
S'0/1'
p3322
sg51
g93
ssg23
S'rs3211371'
p3323
sa(dp3324
g2
(dp3325
g4
(lp3326
VNC_000022.10:g.19950235C>T
p3327
aVNC_000022.11:g.19962712C>T
p3328
aVNG_011526.1:g.25973C>T
p3329
asg9
(lp3330
VNP_000745.1:p.His62=
p3331
aVNP_001128633.1:p.His62=
p3332
aVNP_001128634.1:p.His62=
p3333
aVNP_009294.1:p.His12=
p3334
aVXP_005261286.1:p.His62=
p3335
aVXP_011528187.1:p.His100=
p3336
aVXP_011528188.1:p.His100=
p3337
aVXP_011528189.1:p.His62=
p3338
aVXP_011528190.1:p.His62=
p3339
aVXP_011528191.1:p.His62=
p3340
aVXP_011528192.1:p.His62=
p3341
aVXP_011528193.1:p.His62=
p3342
asg15
(lp3343
VNR_039918.1:n.-1041C>T
p3344
asg17
(lp3345
VNM_000754.3:c.186C>T
p3346
aVNM_001135161.1:c.186C>T
p3347
aVNM_001135162.1:c.186C>T
p3348
aVNM_007310.2:c.36C>T
p3349
aVXM_005261229.1:c.186C>T
p3350
aVXM_011529885.1:c.300C>T
p3351
aVXM_011529886.1:c.300C>T
p3352
aVXM_011529887.1:c.186C>T
p3353
aVXM_011529888.1:c.186C>T
p3354
aVXM_011529889.1:c.186C>T
p3355
aVXM_011529890.1:c.186C>T
p3356
aVXM_011529891.1:c.186C>T
p3357
asg23
(lp3358
Vrs165735
p3359
aVrs17349382
p3360
aVrs17818166
p3361
aVrs2070105
p3362
aVrs3171582
p3363
aVrs4906
p3364
aVrs58430367
p3365
aVrs752985
p3366
assg28
I19950235
sg29
(dp3367
g31
VCOMT
p3368
sg33
VPA117
p3369
ssg35
(dp3370
g37
(lp3371
g39
(g40
g41
Ntp3372
Rp3373
(dp3374
g45
g46
sg47
g52
sbasg49
S'0/1'
p3375
sg51
g93
ssg23
S'rs4633'
p3376
sa(dp3377
g2
(dp3378
g4
(lp3379
VNC_000022.10:g.19951207C>G
p3380
aVNC_000022.11:g.19963684C>G
p3381
aVNG_011526.1:g.26945C>G
p3382
asg9
(lp3383
VNP_000745.1:p.Leu136=
p3384
aVNP_001128633.1:p.Leu136=
p3385
aVNP_001128634.1:p.Leu136=
p3386
aVNP_009294.1:p.Leu86=
p3387
aVXP_005261286.1:p.Leu136=
p3388
aVXP_011528187.1:p.Leu174=
p3389
aVXP_011528188.1:p.Leu174=
p3390
aVXP_011528189.1:p.Leu136=
p3391
aVXP_011528190.1:p.Leu136=
p3392
aVXP_011528191.1:p.Leu136=
p3393
aVXP_011528192.1:p.Leu136=
p3394
aVXP_011528193.1:p.Leu136=
p3395
asg15
(lp3396
VNR_039918.1:n.-69C>G
p3397
asg17
(lp3398
VNM_000754.3:c.408C>G
p3399
aVNM_001135161.1:c.408C>G
p3400
aVNM_001135162.1:c.408C>G
p3401
aVNM_007310.2:c.258C>G
p3402
aVXM_005261229.1:c.408C>G
p3403
aVXM_011529885.1:c.522C>G
p3404
aVXM_011529886.1:c.522C>G
p3405
aVXM_011529887.1:c.408C>G
p3406
aVXM_011529888.1:c.408C>G
p3407
aVXM_011529889.1:c.408C>G
p3408
aVXM_011529890.1:c.408C>G
p3409
aVXM_011529891.1:c.408C>G
p3410
asg23
(lp3411
Vrs117008153
p3412
aVrs17355478
p3413
aVrs17745510
p3414
aVrs17850822
p3415
aVrs2070103
p3416
aVrs3171583
p3417
aVrs3747069
p3418
aVrs57402237
p3419
aVrs712978
p3420
assg28
I19951207
sg29
(dp3421
g31
VCOMT
p3422
sg33
VPA117
p3423
ssg35
(dp3424
g37
(lp3425
g39
(g40
g41
Ntp3426
Rp3427
(dp3428
g45
g46
sg47
g91
sbag39
(g40
g41
Ntp3429
Rp3430
(dp3431
g45
g46
sg47
g52
sbasg49
S'0/1'
p3432
sg51
g93
ssg23
S'rs4818'
p3433
sa(dp3434
g2
(dp3435
g4
(lp3436
VNC_000022.10:g.19951271G>A
p3437
aVNC_000022.11:g.19963748G>A
p3438
aVNG_011526.1:g.27009G>A
p3439
asg9
(lp3440
VNP_000745.1:p.Val158Met
p3441
aVNP_001128633.1:p.Val158Met
p3442
aVNP_001128634.1:p.Val158Met
p3443
aVNP_009294.1:p.Val108Met
p3444
aVXP_005261286.1:p.Val158Met
p3445
aVXP_011528187.1:p.Val196Met
p3446
aVXP_011528188.1:p.Val196Met
p3447
aVXP_011528189.1:p.Val158Met
p3448
aVXP_011528190.1:p.Val158Met
p3449
aVXP_011528191.1:p.Val158Met
p3450
aVXP_011528192.1:p.Val158Met
p3451
aVXP_011528193.1:p.Val158Met
p3452
asg15
(lp3453
VNR_039918.1:n.-5G>A
p3454
asg17
(lp3455
VNM_000754.3:c.472G>A
p3456
aVNM_001135161.1:c.472G>A
p3457
aVNM_001135162.1:c.472G>A
p3458
aVNM_007310.2:c.322G>A
p3459
aVXM_005261229.1:c.472G>A
p3460
aVXM_011529885.1:c.586G>A
p3461
aVXM_011529886.1:c.586G>A
p3462
aVXM_011529887.1:c.472G>A
p3463
aVXM_011529888.1:c.472G>A
p3464
aVXM_011529889.1:c.472G>A
p3465
aVXM_011529890.1:c.472G>A
p3466
aVXM_011529891.1:c.472G>A
p3467
asg23
(lp3468
Vrs1131157
p3469
aVrs11544671
p3470
aVrs165688
p3471
aVrs17295216
p3472
aVrs17349704
p3473
aVrs17818178
p3474
aVrs17849308
p3475
aVrs17850006
p3476
aVrs2070104
p3477
aVrs3177905
p3478
aVrs3190784
p3479
aVrs3747070
p3480
aVrs58002978
p3481
assg28
I19951271
sg29
(dp3482
g31
VCOMT
p3483
sg33
VPA117
p3484
ssg35
(dp3485
g37
(lp3486
g39
(g40
g41
Ntp3487
Rp3488
(dp3489
g45
g46
sg47
g48
sbasg49
S'0/1'
p3490
sg51
g91
ssg23
S'rs4680'
p3491
sa(dp3492
g2
(dp3493
g4
(lp3494
VNC_000022.10:g.42412711G>A
p3495
aVNC_000022.11:g.42016707G>A
p3496
asg9
(lp3497
sg15
(lp3498
VXR_244353.1:n.3279-2604G>A
p3499
aVXR_244353.3:n.3536-2604G>A
p3500
aVXR_244354.1:n.21-2955G>A
p3501
aVXR_244354.3:n.3536-2955G>A
p3502
aVXR_244355.1:n.3279-3297G>A
p3503
aVXR_937827.1:n.3956-2604G>A
p3504
aVXR_937828.1:n.3956-2604G>A
p3505
aVXR_937829.1:n.3536-2604G>A
p3506
aVXR_937830.1:n.3536-2938G>A
p3507
asg17
(lp3508
VNM_152613.2:c.63-2604G>A
p3509
asg23
(lp3510
Vrs56852199
p3511
aVrs8139068
p3512
assg28
I42412711
sg29
(dp3513
g31
VWBP2NL
p3514
sg33
VPA145147710
p3515
ssg35
(dp3516
g37
(lp3517
g39
(g40
g41
Ntp3518
Rp3519
(dp3520
g45
g46
sg47
g48
sbasg49
S'0/1'
p3521
sg51
g91
ssg23
S'rs5758550'
p3522
sa(dp3523
g2
(dp3524
g4
(lp3525
VNC_000022.10:g.42522613G=
p3526
aVNC_000022.10:g.42522613G>C
p3527
aVNC_000022.11:g.42126611C=
p3528
aVNC_000022.11:g.42126611C>G
p3529
aVNG_008376.3:g.8381G=
p3530
aVNG_008376.3:g.8381G>C
p3531
aVNT_187682.1:g.48952G=
p3532
aVNT_187682.1:g.48952G>C
p3533
aVNW_004504305.1:g.48938G=
p3534
aVNW_004504305.1:g.48938G>C
p3535
aVNW_009646208.1:g.12177G=
p3536
aVNW_009646208.1:g.12177G>C
p3537
asg9
(lp3538
VNP_000097.3:p.Ser486=
p3539
aVNP_000097.3:p.Ser486Thr
p3540
aVNP_001020332.2:p.Ser435=
p3541
aVNP_001020332.2:p.Ser435Thr
p3542
aVXP_005278410.1:p.Thr438=
p3543
aVXP_005278410.1:p.Thr438Ser
p3544
aVXP_005278411.1:p.Thr386=
p3545
aVXP_005278411.1:p.Thr386Ser
p3546
aVXP_011528273.1:p.Ser438=
p3547
aVXP_011528273.1:p.Ser438Thr
p3548
aVXP_011546052.1:p.Thr438=
p3549
aVXP_011546052.1:p.Thr438Ser
p3550
aVXP_011546053.1:p.Thr414=
p3551
aVXP_011546053.1:p.Thr414Ser
p3552
asg15
(lp3553
VXR_952745.1:n.2472C=
p3554
aVXR_952745.1:n.2472C>G
p3555
asg17
(lp3556
VNM_000106.5:c.1457G=
p3557
aVNM_000106.5:c.1457G>C
p3558
aVNM_001025161.2:c.1304G=
p3559
aVNM_001025161.2:c.1304G>C
p3560
aVXM_005278353.1:c.1313C=
p3561
aVXM_005278353.1:c.1313C>G
p3562
aVXM_005278354.1:c.1157C=
p3563
aVXM_005278354.1:c.1157C>G
p3564
aVXM_005278354.3:c.1157C=
p3565
aVXM_005278354.3:c.1157C>G
p3566
aVXM_011529966.1:c.1452+5C>G
p3567
aVXM_011529966.1:c.1452+5G>C
p3568
aVXM_011529967.1:c.1452+5C>G
p3569
aVXM_011529967.1:c.1452+5G>C
p3570
aVXM_011529968.1:c.1452+5C>G
p3571
aVXM_011529968.1:c.1452+5G>C
p3572
aVXM_011529969.1:c.1308+5C>G
p3573
aVXM_011529969.1:c.1308+5G>C
p3574
aVXM_011529970.1:c.1299+5C>G
p3575
aVXM_011529970.1:c.1299+5G>C
p3576
aVXM_011529971.1:c.1313G=
p3577
aVXM_011529971.1:c.1313G>C
p3578
aVXM_011547750.1:c.1313C=
p3579
aVXM_011547750.1:c.1313C>G
p3580
aVXM_011547751.1:c.1241C=
p3581
aVXM_011547751.1:c.1241C>G
p3582
asg23
(lp3583
Vrs57862116
p3584
assg28
I42522613
sg29
(dp3585
g31
VCYP2D6
p3586
sg33
VPA128
p3587
ssg35
(dp3588
g37
(lp3589
g39
(g40
g41
Ntp3590
Rp3591
(dp3592
g45
g46
sg47
g93
sbasg49
S'0/1'
p3593
sg51
g91
ssg23
S'rs1135840'
p3594
sa(dp3595
g2
(dp3596
g4
(lp3597
VNC_000022.10:g.42523610C>T
p3598
aVNC_000022.11:g.42127608C>T
p3599
aVNG_008376.3:g.7384G>A
p3600
aVNT_187682.1:g.49949C>T
p3601
aVNW_004504305.1:g.49935C>T
p3602
aVNW_009646208.1:g.13174C>T
p3603
asg9
(lp3604
VNP_000097.3:p.Val338Met
p3605
aVNP_001020332.2:p.Val287Met
p3606
aVXP_005278410.1:p.Val290Met
p3607
aVXP_005278411.1:p.Val238Met
p3608
aVXP_011528268.1:p.Val338Met
p3609
aVXP_011528269.1:p.Val338Met
p3610
aVXP_011528270.1:p.Val338Met
p3611
aVXP_011528271.1:p.Val290Met
p3612
aVXP_011528272.1:p.Val287Met
p3613
aVXP_011528273.1:p.Val290Met
p3614
aVXP_011528274.1:p.Thr290=
p3615
aVXP_011546052.1:p.Val290Met
p3616
aVXP_011546053.1:p.Val266Met
p3617
asg15
(lp3618
VXR_952745.1:n.2027G>A
p3619
asg17
(lp3620
VNM_000106.5:c.1012G>A
p3621
aVNM_001025161.2:c.859G>A
p3622
aVXM_005278353.1:c.868G>A
p3623
aVXM_005278354.1:c.712G>A
p3624
aVXM_005278354.3:c.712G>A
p3625
aVXM_011529966.1:c.1012G>A
p3626
aVXM_011529967.1:c.1012G>A
p3627
aVXM_011529968.1:c.1012G>A
p3628
aVXM_011529969.1:c.868G>A
p3629
aVXM_011529970.1:c.859G>A
p3630
aVXM_011529971.1:c.868G>A
p3631
aVXM_011529972.1:c.870G>A
p3632
aVXM_011547541.1:c.*118G>A
p3633
aVXM_011547750.1:c.868G>A
p3634
aVXM_011547751.1:c.796G>A
p3635
aVXM_011548819.1:c.*118G>A
p3636
asg23
(lp3637
ssg28
I42523610
sg29
(dp3638
g31
VCYP2D6
p3639
sg33
VPA128
p3640
ssg35
(dp3641
g37
(lp3642
g39
(g40
g41
Ntp3643
Rp3644
(dp3645
g45
g46
sg47
g52
sbasg49
S'0/1'
p3646
sg51
g93
ssg23
S'rs59421388'
p3647
sa(dp3648
g2
(dp3649
g4
(lp3650
VNC_000022.10:g.42523805C>T
p3651
aVNC_000022.11:g.42127803C>T
p3652
aVNG_008376.3:g.7189G>A
p3653
aVNT_187682.1:g.50144C>T
p3654
aVNW_004504305.1:g.50130C>T
p3655
aVNW_009646208.1:g.13369C>T
p3656
asg9
(lp3657
VXP_011545843.1:p.Glu242Lys
p3658
aVXP_011547121.1:p.Glu242Lys
p3659
asg15
(lp3660
VXR_952745.1:n.2001-169G>A
p3661
asg17
(lp3662
VNM_000106.5:c.985+39G>A
p3663
aVNM_001025161.2:c.832+39G>A
p3664
aVXM_005278353.1:c.841+39G>A
p3665
aVXM_005278354.1:c.685+39G>A
p3666
aVXM_005278354.3:c.685+39G>A
p3667
aVXM_011529966.1:c.985+39G>A
p3668
aVXM_011529967.1:c.985+39G>A
p3669
aVXM_011529968.1:c.985+39G>A
p3670
aVXM_011529969.1:c.841+39G>A
p3671
aVXM_011529970.1:c.832+39G>A
p3672
aVXM_011529971.1:c.841+39G>A
p3673
aVXM_011529972.1:c.844-169G>A
p3674
aVXM_011547541.1:c.724G>A
p3675
aVXM_011547750.1:c.841+39G>A
p3676
aVXM_011547751.1:c.769+39G>A
p3677
aVXM_011548819.1:c.724G>A
p3678
asg23
(lp3679
Vrs57124011
p3680
aVrs587777916
p3681
assg28
I42523805
sg29
(dp3682
g31
VCYP2D6
p3683
sg33
VPA128
p3684
ssg35
(dp3685
g37
(lp3686
g39
(g40
g41
Ntp3687
Rp3688
(dp3689
g45
g46
sg47
g48
sbag39
(g40
g41
Ntp3690
Rp3691
(dp3692
g45
g46
sg47
g91
sbasg49
S'0/1'
p3693
sg51
g93
ssg23
S'rs28371725'
p3694
sa(dp3695
g2
(dp3696
g4
(lp3697
VNC_000022.10:g.42523858T>G
p3698
aVNC_000022.11:g.42127856T>G
p3699
aVNG_008376.3:g.7136A>C
p3700
aVNT_187682.1:g.50197T>G
p3701
aVNW_004504305.1:g.50183T>G
p3702
aVNW_009646208.1:g.13422T>G
p3703
asg9
(lp3704
VNP_000097.3:p.His324Pro
p3705
aVNP_001020332.2:p.His273Pro
p3706
aVXP_005278410.1:p.His276Pro
p3707
aVXP_005278411.1:p.His224Pro
p3708
aVXP_011528268.1:p.His324Pro
p3709
aVXP_011528269.1:p.His324Pro
p3710
aVXP_011528270.1:p.His324Pro
p3711
aVXP_011528271.1:p.His276Pro
p3712
aVXP_011528272.1:p.His273Pro
p3713
aVXP_011528273.1:p.His276Pro
p3714
aVXP_011545843.1:p.His224Pro
p3715
aVXP_011546052.1:p.His276Pro
p3716
aVXP_011546053.1:p.His252Pro
p3717
aVXP_011547121.1:p.His224Pro
p3718
asg15
(lp3719
VXR_952745.1:n.2001-222A>C
p3720
asg17
(lp3721
VNM_000106.5:c.971A>C
p3722
aVNM_001025161.2:c.818A>C
p3723
aVXM_005278353.1:c.827A>C
p3724
aVXM_005278354.1:c.671A>C
p3725
aVXM_005278354.3:c.671A>C
p3726
aVXM_011529966.1:c.971A>C
p3727
aVXM_011529967.1:c.971A>C
p3728
aVXM_011529968.1:c.971A>C
p3729
aVXM_011529969.1:c.827A>C
p3730
aVXM_011529970.1:c.818A>C
p3731
aVXM_011529971.1:c.827A>C
p3732
aVXM_011529972.1:c.844-222A>C
p3733
aVXM_011547541.1:c.671A>C
p3734
aVXM_011547750.1:c.827A>C
p3735
aVXM_011547751.1:c.755A>C
p3736
aVXM_011548819.1:c.671A>C
p3737
asg23
(lp3738
Vrs587777917
p3739
assg28
I42523858
sg29
(dp3740
g31
VCYP2D6
p3741
sg33
VPA128
p3742
ssg35
(dp3743
g37
(lp3744
g39
(g40
g41
Ntp3745
Rp3746
(dp3747
g45
g46
sg47
g48
sbag39
(g40
g41
Ntp3748
Rp3749
(dp3750
g45
g46
sg47
g93
sbasg49
S'0/1'
p3751
sg51
g52
ssg23
S'rs5030867'
p3752
sa(dp3753
g2
(dp3754
g4
(lp3755
VNC_000022.10:g.42523943A=
p3756
aVNC_000022.10:g.42523943A>G
p3757
aVNC_000022.11:g.42127941G=
p3758
aVNC_000022.11:g.42127941G>A
p3759
aVNG_008376.3:g.7051C=
p3760
aVNG_008376.3:g.7051C>T
p3761
aVNT_187682.1:g.50282A=
p3762
aVNT_187682.1:g.50282A>G
p3763
aVNW_004504305.1:g.50268G=
p3764
aVNW_004504305.1:g.50268G>A
p3765
aVNW_009646208.1:g.13507G=
p3766
aVNW_009646208.1:g.13507G>A
p3767
asg9
(lp3768
VNP_000097.3:p.Arg296=
p3769
aVNP_000097.3:p.Arg296Cys
p3770
aVNP_001020332.2:p.Arg245=
p3771
aVNP_001020332.2:p.Arg245Cys
p3772
aVXP_005278410.1:p.Arg248=
p3773
aVXP_005278410.1:p.Arg248Cys
p3774
aVXP_005278411.1:p.Arg196=
p3775
aVXP_005278411.1:p.Arg196Cys
p3776
aVXP_011528268.1:p.Arg296=
p3777
aVXP_011528268.1:p.Arg296Cys
p3778
aVXP_011528269.1:p.Arg296=
p3779
aVXP_011528269.1:p.Arg296Cys
p3780
aVXP_011528270.1:p.Arg296=
p3781
aVXP_011528270.1:p.Arg296Cys
p3782
aVXP_011528271.1:p.Arg248=
p3783
aVXP_011528271.1:p.Arg248Cys
p3784
aVXP_011528272.1:p.Arg245=
p3785
aVXP_011528272.1:p.Arg245Cys
p3786
aVXP_011528273.1:p.Arg248=
p3787
aVXP_011528273.1:p.Arg248Cys
p3788
aVXP_011545843.1:p.Arg196=
p3789
aVXP_011545843.1:p.Arg196Cys
p3790
aVXP_011546052.1:p.Cys248=
p3791
aVXP_011546052.1:p.Cys248Arg
p3792
aVXP_011546053.1:p.Cys224=
p3793
aVXP_011546053.1:p.Cys224Arg
p3794
aVXP_011547121.1:p.Arg196=
p3795
aVXP_011547121.1:p.Arg196Cys
p3796
asg15
(lp3797
VXR_430455.2:n.-1930A>G
p3798
aVXR_430455.2:n.-1930G>A
p3799
aVXR_952745.1:n.2000+233C>T
p3800
aVXR_952745.1:n.2000+233T>C
p3801
asg17
(lp3802
VNM_000106.5:c.886C=
p3803
aVNM_000106.5:c.886C>T
p3804
aVNM_001025161.2:c.733C=
p3805
aVNM_001025161.2:c.733C>T
p3806
aVXM_005278353.1:c.742C=
p3807
aVXM_005278353.1:c.742C>T
p3808
aVXM_005278354.1:c.586C=
p3809
aVXM_005278354.1:c.586C>T
p3810
aVXM_005278354.3:c.586C=
p3811
aVXM_005278354.3:c.586C>T
p3812
aVXM_011529966.1:c.886C=
p3813
aVXM_011529966.1:c.886C>T
p3814
aVXM_011529967.1:c.886C=
p3815
aVXM_011529967.1:c.886C>T
p3816
aVXM_011529968.1:c.886C=
p3817
aVXM_011529968.1:c.886C>T
p3818
aVXM_011529969.1:c.742C=
p3819
aVXM_011529969.1:c.742C>T
p3820
aVXM_011529970.1:c.733C=
p3821
aVXM_011529970.1:c.733C>T
p3822
aVXM_011529971.1:c.742C=
p3823
aVXM_011529971.1:c.742C>T
p3824
aVXM_011529972.1:c.843+233C>T
p3825
aVXM_011529972.1:c.843+233T>C
p3826
aVXM_011547541.1:c.586C=
p3827
aVXM_011547541.1:c.586C>T
p3828
aVXM_011547750.1:c.742T=
p3829
aVXM_011547750.1:c.742T>C
p3830
aVXM_011547751.1:c.670T=
p3831
aVXM_011547751.1:c.670T>C
p3832
aVXM_011547756.1:c.-2094A>G
p3833
aVXM_011547756.1:c.-2094G>A
p3834
aVXM_011548819.1:c.586C=
p3835
aVXM_011548819.1:c.586C>T
p3836
asg23
(lp3837
Vrs117039205
p3838
aVrs57836231
p3839
assg28
I42523943
sg29
(dp3840
g31
VCYP2D6
p3841
sg33
VPA128
p3842
ssg35
(dp3843
g37
(lp3844
g39
(g40
g41
Ntp3845
Rp3846
(dp3847
g45
g46
sg47
g91
sbasg49
S'0/1'
p3848
sg51
g48
ssg23
S'rs16947'
p3849
sa(dp3850
g2
(dp3851
g4
(lp3852
VNC_000022.10:g.42524244delT
p3853
aVNC_000022.11:g.42128242delT
p3854
aVNG_008376.3:g.6750delA
p3855
aVNT_187682.1:g.50583delT
p3856
aVNW_004504305.1:g.50569delT
p3857
aVNW_009646208.1:g.13808delT
p3858
asg9
(lp3859
VNP_000097.3:p.Arg259Glyfs
p3860
aVNP_001020332.2:p.Arg208Glyfs
p3861
aVXP_005278410.1:p.Arg211Glyfs
p3862
aVXP_005278411.1:p.Arg159Glyfs
p3863
aVXP_011528268.1:p.Arg259Glyfs
p3864
aVXP_011528269.1:p.Arg259Glyfs
p3865
aVXP_011528270.1:p.Arg259Glyfs
p3866
aVXP_011528271.1:p.Arg211Glyfs
p3867
aVXP_011528272.1:p.Arg208Glyfs
p3868
aVXP_011528273.1:p.Arg211Glyfs
p3869
aVXP_011528274.1:p.Arg259Glyfs
p3870
aVXP_011545843.1:p.Arg159Glyfs
p3871
aVXP_011546052.1:p.Arg211Glyfs
p3872
aVXP_011546053.1:p.Arg187Glyfs
p3873
aVXP_011547121.1:p.Arg159Glyfs
p3874
asg15
(lp3875
VXR_430455.2:n.-1629delT
p3876
aVXR_952745.1:n.1932delA
p3877
asg17
(lp3878
VNM_000106.5:c.775delA
p3879
aVNM_001025161.2:c.622delA
p3880
aVXM_005278353.1:c.631delA
p3881
aVXM_005278354.1:c.475delA
p3882
aVXM_005278354.3:c.475delA
p3883
aVXM_011529966.1:c.775delA
p3884
aVXM_011529967.1:c.775delA
p3885
aVXM_011529968.1:c.775delA
p3886
aVXM_011529969.1:c.631delA
p3887
aVXM_011529970.1:c.622delA
p3888
aVXM_011529971.1:c.631delA
p3889
aVXM_011529972.1:c.775delA
p3890
aVXM_011547541.1:c.475delA
p3891
aVXM_011547750.1:c.631delA
p3892
aVXM_011547751.1:c.559delA
p3893
aVXM_011547756.1:c.-1793delT
p3894
aVXM_011548819.1:c.475delA
p3895
asg23
(lp3896
Vrs45593132
p3897
aVrs60790764
p3898
assg28
I42524243
sg29
(dp3899
g31
VCYP2D6
p3900
sg33
VPA128
p3901
ssg35
(dp3902
g37
(lp3903
g39
(g40
g41
Ntp3904
Rp3905
(dp3906
g45
g46
sg47
g93
sbag39
(g40
g41
Ntp3907
Rp3908
(dp3909
g45
g1331
sg47
S'CA'
p3910
sbasg49
S'0/1'
p3911
sg51
S'CT'
p3912
ssg23
S'rs35742686'
p3913
sa(dp3914
g2
(dp3915
g4
(lp3916
VNC_000022.10:g.42524947C=
p3917
aVNC_000022.10:g.42524947C>T
p3918
aVNC_000022.11:g.42128945C=
p3919
aVNC_000022.11:g.42128945C>T
p3920
aVNG_008376.3:g.6047G=
p3921
aVNG_008376.3:g.6047G>A
p3922
aVNT_187682.1:g.51286C=
p3923
aVNT_187682.1:g.51286C>T
p3924
aVNW_004504305.1:g.51272T=
p3925
aVNW_004504305.1:g.51272T>C
p3926
aVNW_009646208.1:g.14511C=
p3927
aVNW_009646208.1:g.14511C>T
p3928
asg9
(lp3929
sg15
(lp3930
VXR_430455.2:n.-926C>T
p3931
aVXR_430455.2:n.-926T>C
p3932
aVXR_952745.1:n.1663-1A>G
p3933
aVXR_952745.1:n.1663-1G>A
p3934
asg17
(lp3935
VNM_000106.5:c.506-1A>G
p3936
aVNM_000106.5:c.506-1G>A
p3937
aVNM_001025161.2:c.353-1A>G
p3938
aVNM_001025161.2:c.353-1G>A
p3939
aVXM_005278353.1:c.363-2A>G
p3940
aVXM_005278353.1:c.363-2G>A
p3941
aVXM_005278354.1:c.207-2A>G
p3942
aVXM_005278354.1:c.207-2G>A
p3943
aVXM_005278354.3:c.207-2A>G
p3944
aVXM_005278354.3:c.207-2G>A
p3945
aVXM_011529966.1:c.506-1A>G
p3946
aVXM_011529966.1:c.506-1G>A
p3947
aVXM_011529967.1:c.506-1A>G
p3948
aVXM_011529967.1:c.506-1G>A
p3949
aVXM_011529968.1:c.506-1A>G
p3950
aVXM_011529968.1:c.506-1G>A
p3951
aVXM_011529969.1:c.363-2A>G
p3952
aVXM_011529969.1:c.363-2G>A
p3953
aVXM_011529970.1:c.353-1A>G
p3954
aVXM_011529970.1:c.353-1G>A
p3955
aVXM_011529971.1:c.363-2A>G
p3956
aVXM_011529971.1:c.363-2G>A
p3957
aVXM_011529972.1:c.506-1A>G
p3958
aVXM_011529972.1:c.506-1G>A
p3959
aVXM_011547541.1:c.207-2A>G
p3960
aVXM_011547541.1:c.207-2G>A
p3961
aVXM_011547750.1:c.363-2A>G
p3962
aVXM_011547750.1:c.363-2G>A
p3963
aVXM_011547751.1:c.290-1A>G
p3964
aVXM_011547751.1:c.290-1G>A
p3965
aVXM_011547756.1:c.-1090C>T
p3966
aVXM_011547756.1:c.-1090T>C
p3967
aVXM_011548819.1:c.207-2A>G
p3968
aVXM_011548819.1:c.207-2G>A
p3969
asg23
(lp3970
Vrs1800716
p3971
aVrs28371711
p3972
aVrs60082401
p3973
aVrs606231227
p3974
assg28
I42524947
sg29
(dp3975
g31
VCYP2D6
p3976
sg33
VPA128
p3977
ssg35
(dp3978
g37
(lp3979
g39
(g40
g41
Ntp3980
Rp3981
(dp3982
g45
g46
sg47
g48
sbag39
(g40
g41
Ntp3983
Rp3984
(dp3985
g45
g46
sg47
g91
sbasg49
S'0/1'
p3986
sg51
g93
ssg23
S'rs3892097'
p3987
sa(dp3988
g2
(dp3989
g4
(lp3990
VNC_000022.10:g.42525035C>A
p3991
aVNC_000022.10:g.42525035C>T
p3992
aVNC_000022.11:g.42129033C>A
p3993
aVNC_000022.11:g.42129033C>T
p3994
aVNG_008376.3:g.5959G>A
p3995
aVNG_008376.3:g.5959G>T
p3996
aVNT_187682.1:g.51374C>A
p3997
aVNT_187682.1:g.51374C>T
p3998
aVNW_004504305.1:g.51360C>A
p3999
aVNW_004504305.1:g.51360C>T
p4000
aVNW_009646208.1:g.14599C>A
p4001
aVNW_009646208.1:g.14599C>T
p4002
asg9
(lp4003
VNP_000097.3:p.Gly169Arg
p4004
aVNP_000097.3:p.Gly169Ter
p4005
aVXP_005278411.1:p.Arg69Gln
p4006
aVXP_005278411.1:p.Arg69Leu
p4007
aVXP_011528268.1:p.Gly169Arg
p4008
aVXP_011528268.1:p.Gly169Ter
p4009
aVXP_011528269.1:p.Gly169Arg
p4010
aVXP_011528269.1:p.Gly169Ter
p4011
aVXP_011528270.1:p.Gly169Arg
p4012
aVXP_011528270.1:p.Gly169Ter
p4013
aVXP_011528271.1:p.Arg121Gln
p4014
aVXP_011528271.1:p.Arg121Leu
p4015
aVXP_011528273.1:p.Arg121Gln
p4016
aVXP_011528273.1:p.Arg121Leu
p4017
aVXP_011528274.1:p.Gly169Arg
p4018
aVXP_011528274.1:p.Gly169Ter
p4019
aVXP_011545843.1:p.Arg69Gln
p4020
aVXP_011545843.1:p.Arg69Leu
p4021
aVXP_011546052.1:p.Arg121Gln
p4022
aVXP_011546052.1:p.Arg121Leu
p4023
aVXP_011546053.1:p.Gly97Arg
p4024
aVXP_011546053.1:p.Gly97Ter
p4025
aVXP_011547121.1:p.Arg69Gln
p4026
aVXP_011547121.1:p.Arg69Leu
p4027
asg15
(lp4028
VXR_430455.2:n.-838C>A
p4029
aVXR_430455.2:n.-838C>T
p4030
aVXR_952745.1:n.1662G>A
p4031
aVXR_952745.1:n.1662G>T
p4032
asg17
(lp4033
VNM_000106.5:c.505G>A
p4034
aVNM_000106.5:c.505G>T
p4035
aVNM_001025161.2:c.353-89G>A
p4036
aVNM_001025161.2:c.353-89G>T
p4037
aVXM_005278353.1:c.363-90G>A
p4038
aVXM_005278353.1:c.363-90G>T
p4039
aVXM_005278354.1:c.206G>A
p4040
aVXM_005278354.1:c.206G>T
p4041
aVXM_005278354.3:c.206G>A
p4042
aVXM_005278354.3:c.206G>T
p4043
aVXM_011529966.1:c.505G>A
p4044
aVXM_011529966.1:c.505G>T
p4045
aVXM_011529967.1:c.505G>A
p4046
aVXM_011529967.1:c.505G>T
p4047
aVXM_011529968.1:c.505G>A
p4048
aVXM_011529968.1:c.505G>T
p4049
aVXM_011529969.1:c.362G>A
p4050
aVXM_011529969.1:c.362G>T
p4051
aVXM_011529970.1:c.353-89G>A
p4052
aVXM_011529970.1:c.353-89G>T
p4053
aVXM_011529971.1:c.362G>A
p4054
aVXM_011529971.1:c.362G>T
p4055
aVXM_011529972.1:c.505G>A
p4056
aVXM_011529972.1:c.505G>T
p4057
aVXM_011547541.1:c.206G>A
p4058
aVXM_011547541.1:c.206G>T
p4059
aVXM_011547750.1:c.362G>A
p4060
aVXM_011547750.1:c.362G>T
p4061
aVXM_011547751.1:c.289G>A
p4062
aVXM_011547751.1:c.289G>T
p4063
aVXM_011547756.1:c.-1002C>A
p4064
aVXM_011547756.1:c.-1002C>T
p4065
aVXM_011548819.1:c.206G>A
p4066
aVXM_011548819.1:c.206G>T
p4067
asg23
(lp4068
ssg28
I42525035
sg29
(dp4069
g31
VCYP2D6
p4070
sg33
VPA128
p4071
ssg35
(dp4072
g37
(lp4073
g39
(g40
g41
Ntp4074
Rp4075
(dp4076
g45
g46
sg47
g48
sbag39
(g40
g41
Ntp4077
Rp4078
(dp4079
g45
g46
sg47
g52
sbasg49
S'0/1'
p4080
sg51
g93
ssg23
S'rs5030865'
p4081
sa(dp4082
g2
(dp4083
g4
(lp4084
VNC_000022.10:g.42525086delA
p4085
aVNC_000022.11:g.42129084delA
p4086
aVNG_008376.3:g.5908delT
p4087
aVNT_187682.1:g.51425delA
p4088
aVNW_004504305.1:g.51411delA
p4089
aVNW_009646208.1:g.14650delA
p4090
asg9
(lp4091
VNP_000097.3:p.Trp152Glyfs
p4092
aVXP_005278411.1:p.Val52Glyfs
p4093
aVXP_011528268.1:p.Trp152Glyfs
p4094
aVXP_011528269.1:p.Trp152Glyfs
p4095
aVXP_011528270.1:p.Trp152Glyfs
p4096
aVXP_011528271.1:p.Val104Glyfs
p4097
aVXP_011528273.1:p.Val104Glyfs
p4098
aVXP_011528274.1:p.Trp152Glyfs
p4099
aVXP_011545843.1:p.Val52Glyfs
p4100
aVXP_011546052.1:p.Val104Glyfs
p4101
aVXP_011546053.1:p.Trp80Glyfs
p4102
aVXP_011547121.1:p.Val52Glyfs
p4103
asg15
(lp4104
VXR_430455.2:n.-787delA
p4105
aVXR_952745.1:n.1611delT
p4106
asg17
(lp4107
VNM_000106.5:c.454delT
p4108
aVNM_001025161.2:c.353-140delT
p4109
aVXM_005278353.1:c.363-141delT
p4110
aVXM_005278354.1:c.155delT
p4111
aVXM_005278354.3:c.155delT
p4112
aVXM_011529966.1:c.454delT
p4113
aVXM_011529967.1:c.454delT
p4114
aVXM_011529968.1:c.454delT
p4115
aVXM_011529969.1:c.311delT
p4116
aVXM_011529970.1:c.353-140delT
p4117
aVXM_011529971.1:c.311delT
p4118
aVXM_011529972.1:c.454delT
p4119
aVXM_011547541.1:c.155delT
p4120
aVXM_011547750.1:c.311delT
p4121
aVXM_011547751.1:c.238delT
p4122
aVXM_011547756.1:c.-951delA
p4123
aVXM_011548819.1:c.155delT
p4124
asg23
(lp4125
Vrs11568727
p4126
aVrs28371709
p4127
assg28
I42525085
sg29
(dp4128
g31
VCYP2D6
p4129
sg33
VPA128
p4130
ssg35
(dp4131
g37
(lp4132
g39
(g40
g41
Ntp4133
Rp4134
(dp4135
g45
g46
sg47
g93
sbag39
(g40
g41
Ntp4136
Rp4137
(dp4138
g45
g1331
sg47
S'CT'
p4139
sbasg49
S'0/1'
p4140
sg51
S'CA'
p4141
ssg23
S'rs5030655'
p4142
sa(dp4143
g2
(dp4144
g4
(lp4145
VNC_000022.10:g.42525772G>A
p4146
aVNC_000022.11:g.42129770G>A
p4147
aVNG_008376.3:g.5222C>T
p4148
aVNT_187682.1:g.52111G>A
p4149
aVNW_004504305.1:g.52097G>A
p4150
aVNW_009646208.1:g.15336G>A
p4151
asg9
(lp4152
VNP_000097.3:p.Thr107Ile
p4153
aVNP_001020332.2:p.Thr107Ile
p4154
aVXP_005278410.1:p.Thr107Ile
p4155
aVXP_011528268.1:p.Thr107Ile
p4156
aVXP_011528269.1:p.Thr107Ile
p4157
aVXP_011528270.1:p.Thr107Ile
p4158
aVXP_011528271.1:p.His59=
p4159
aVXP_011528272.1:p.Thr107Ile
p4160
aVXP_011528273.1:p.His59=
p4161
aVXP_011528274.1:p.Thr107Ile
p4162
aVXP_011546052.1:p.His59=
p4163
asg15
(lp4164
VXR_430455.2:n.-101G>A
p4165
aVXR_952745.1:n.1477C>T
p4166
asg17
(lp4167
VNM_000106.5:c.320C>T
p4168
aVNM_001025161.2:c.320C>T
p4169
aVXM_005278353.1:c.320C>T
p4170
aVXM_005278354.1:c.-532C>T
p4171
aVXM_005278354.3:c.-532C>T
p4172
aVXM_011529966.1:c.320C>T
p4173
aVXM_011529967.1:c.320C>T
p4174
aVXM_011529968.1:c.320C>T
p4175
aVXM_011529969.1:c.177C>T
p4176
aVXM_011529970.1:c.320C>T
p4177
aVXM_011529971.1:c.177C>T
p4178
aVXM_011529972.1:c.320C>T
p4179
aVXM_011547541.1:c.-532C>T
p4180
aVXM_011547750.1:c.177C>T
p4181
aVXM_011547751.1:c.-192C>T
p4182
aVXM_011547756.1:c.-265G>A
p4183
aVXM_011548819.1:c.-532C>T
p4184
asg23
(lp4185
Vrs587777915
p4186
aVrs59604033
p4187
assg28
I42525772
sg29
(dp4188
g31
VCYP2D6
p4189
sg33
VPA128
p4190
ssg35
(dp4191
g37
(lp4192
g39
(g40
g41
Ntp4193
Rp4194
(dp4195
g45
g46
sg47
g48
sbag39
(g40
g41
Ntp4196
Rp4197
(dp4198
g45
g46
sg47
g93
sbag39
(g40
g41
Ntp4199
Rp4200
(dp4201
g45
g46
sg47
g52
sbasg49
S'0/1'
p4202
sg51
g91
ssg23
S'rs28371706'
p4203
sa(dp4204
g2
(dp4205
g4
(lp4206
VNC_000022.10:g.42526670C>T
p4207
aVNC_000022.11:g.42130668C>T
p4208
aVNG_008376.3:g.4324G>A
p4209
aVNT_187682.1:g.53009C>T
p4210
aVNW_004504305.1:g.52995C>T
p4211
aVNW_009646208.1:g.16234C>T
p4212
asg9
(lp4213
VNP_000097.3:p.Gly42Arg
p4214
aVNP_001020332.2:p.Gly42Arg
p4215
aVXP_005278410.1:p.Gly42Arg
p4216
aVXP_011528268.1:p.Gly42Arg
p4217
aVXP_011528269.1:p.Gly42Arg
p4218
aVXP_011528270.1:p.Gly42Arg
p4219
aVXP_011528272.1:p.Gly42Arg
p4220
aVXP_011528274.1:p.Gly42Arg
p4221
asg15
(lp4222
VXR_430455.2:n.308C>T
p4223
aVXR_952536.1:n.-1775C>T
p4224
aVXR_952537.1:n.-1775C>T
p4225
aVXR_952538.1:n.-1775C>T
p4226
aVXR_952539.1:n.-1486C>T
p4227
aVXR_952745.1:n.1281G>A
p4228
asg17
(lp4229
VNM_000106.5:c.124G>A
p4230
aVNM_001025161.2:c.124G>A
p4231
aVXM_005278353.1:c.124G>A
p4232
aVXM_005278354.1:c.-1430G>A
p4233
aVXM_005278354.3:c.-1430G>A
p4234
aVXM_011529966.1:c.124G>A
p4235
aVXM_011529967.1:c.124G>A
p4236
aVXM_011529968.1:c.124G>A
p4237
aVXM_011529969.1:c.37+629G>A
p4238
aVXM_011529970.1:c.124G>A
p4239
aVXM_011529971.1:c.37+629G>A
p4240
aVXM_011529972.1:c.124G>A
p4241
aVXM_011547541.1:c.-1430G>A
p4242
aVXM_011547750.1:c.37+629G>A
p4243
aVXM_011547751.1:c.-1090G>A
p4244
aVXM_011547756.1:c.42+445C>T
p4245
aVXM_011548819.1:c.-1430G>A
p4246
asg23
(lp4247
Vrs386597403
p4248
aVrs587777918
p4249
assg28
I42526670
sg29
(dp4250
g31
VCYP2D6
p4251
sg33
VPA128
p4252
ssg35
(dp4253
g37
(lp4254
g39
(g40
g41
Ntp4255
Rp4256
(dp4257
g45
g46
sg47
g48
sbag39
(g40
g41
Ntp4258
Rp4259
(dp4260
g45
g46
sg47
g91
sbasg49
S'0/1'
p4261
sg51
g93
ssg23
S'rs5030862'
p4262
sa(dp4263
g2
(dp4264
g4
(lp4265
VNC_000022.10:g.42526694G=
p4266
aVNC_000022.10:g.42526694G>A
p4267
aVNC_000022.11:g.42130692G=
p4268
aVNC_000022.11:g.42130692G>A
p4269
aVNG_008376.3:g.4300C=
p4270
aVNG_008376.3:g.4300C>T
p4271
aVNT_187682.1:g.53033G=
p4272
aVNT_187682.1:g.53033G>A
p4273
aVNW_004504305.1:g.53019A=
p4274
aVNW_004504305.1:g.53019A>G
p4275
aVNW_009646208.1:g.16258A=
p4276
aVNW_009646208.1:g.16258A>G
p4277
asg9
(lp4278
VNP_000097.3:p.Pro34=
p4279
aVNP_000097.3:p.Pro34Ser
p4280
aVNP_001020332.2:p.Pro34=
p4281
aVNP_001020332.2:p.Pro34Ser
p4282
aVXP_005278410.1:p.Ser34=
p4283
aVXP_005278410.1:p.Ser34Pro
p4284
aVXP_011528268.1:p.Pro34=
p4285
aVXP_011528268.1:p.Pro34Ser
p4286
aVXP_011528269.1:p.Pro34=
p4287
aVXP_011528269.1:p.Pro34Ser
p4288
aVXP_011528270.1:p.Pro34=
p4289
aVXP_011528270.1:p.Pro34Ser
p4290
aVXP_011528272.1:p.Pro34=
p4291
aVXP_011528272.1:p.Pro34Ser
p4292
aVXP_011528274.1:p.Pro34=
p4293
aVXP_011528274.1:p.Pro34Ser
p4294
asg15
(lp4295
VXR_430455.2:n.328+4A>G
p4296
aVXR_430455.2:n.328+4G>A
p4297
aVXR_952536.1:n.-1751A>G
p4298
aVXR_952536.1:n.-1751G>A
p4299
aVXR_952537.1:n.-1751A>G
p4300
aVXR_952537.1:n.-1751G>A
p4301
aVXR_952538.1:n.-1751A>G
p4302
aVXR_952538.1:n.-1751G>A
p4303
aVXR_952539.1:n.-1462A>G
p4304
aVXR_952539.1:n.-1462G>A
p4305
aVXR_952745.1:n.1257C=
p4306
aVXR_952745.1:n.1257C>T
p4307
asg17
(lp4308
VNM_000106.5:c.100C=
p4309
aVNM_000106.5:c.100C>T
p4310
aVNM_001025161.2:c.100C=
p4311
aVNM_001025161.2:c.100C>T
p4312
aVXM_005278353.1:c.100T=
p4313
aVXM_005278353.1:c.100T>C
p4314
aVXM_005278354.1:c.-1454C>T
p4315
aVXM_005278354.1:c.-1454T>C
p4316
aVXM_005278354.3:c.-1454C>T
p4317
aVXM_005278354.3:c.-1454T>C
p4318
aVXM_011529966.1:c.100C=
p4319
aVXM_011529966.1:c.100C>T
p4320
aVXM_011529967.1:c.100C=
p4321
aVXM_011529967.1:c.100C>T
p4322
aVXM_011529968.1:c.100C=
p4323
aVXM_011529968.1:c.100C>T
p4324
aVXM_011529969.1:c.37+605C>T
p4325
aVXM_011529969.1:c.37+605T>C
p4326
aVXM_011529970.1:c.100C=
p4327
aVXM_011529970.1:c.100C>T
p4328
aVXM_011529971.1:c.37+605C>T
p4329
aVXM_011529971.1:c.37+605T>C
p4330
aVXM_011529972.1:c.100C=
p4331
aVXM_011529972.1:c.100C>T
p4332
aVXM_011547541.1:c.-1454C>T
p4333
aVXM_011547541.1:c.-1454T>C
p4334
aVXM_011547750.1:c.37+605C>T
p4335
aVXM_011547750.1:c.37+605T>C
p4336
aVXM_011547751.1:c.-1114C>T
p4337
aVXM_011547751.1:c.-1114T>C
p4338
aVXM_011547756.1:c.42+469A>G
p4339
aVXM_011547756.1:c.42+469G>A
p4340
aVXM_011548819.1:c.-1454C>T
p4341
aVXM_011548819.1:c.-1454T>C
p4342
asg23
(lp4343
Vrs117813846
p4344
aVrs58862176
p4345
assg28
I42526694
sg29
(dp4346
g31
VCYP2D6
p4347
sg33
VPA128
p4348
ssg35
(dp4349
g37
(lp4350
g39
(g40
g41
Ntp4351
Rp4352
(dp4353
g45
g46
sg47
g93
sbag39
(g40
g41
Ntp4354
Rp4355
(dp4356
g45
g46
sg47
g52
sbasg49
S'0/1'
p4357
sg51
g91
ssg23
S'rs1065852'
p4358
sa(dp4359
g2
(dp4360
g4
(lp4361
VNC_000022.10:g.46610067G>A
p4362
aVNC_000022.11:g.46214170G>A
p4363
aVNG_012204.1:g.68569G>A
p4364
asg9
(lp4365
sg15
(lp4366
VXR_244379.1:n.432-1003G>A
p4367
aVXR_937869.1:n.524-1003G>A
p4368
aVXR_937870.1:n.523-1003G>A
p4369
asg17
(lp4370
VNM_001001928.2:c.209-1003G>A
p4371
aVNM_005036.4:c.209-1003G>A
p4372
aVXM_005261653.1:c.209-1003G>A
p4373
aVXM_005261654.1:c.209-1003G>A
p4374
aVXM_005261655.1:c.209-1003G>A
p4375
aVXM_005261655.2:c.209-1003G>A
p4376
aVXM_005261656.1:c.209-1003G>A
p4377
aVXM_005261656.2:c.209-1003G>A
p4378
aVXM_005261657.1:c.209-1003G>A
p4379
aVXM_005261658.1:c.209-1003G>A
p4380
aVXM_006724269.2:c.209-1003G>A
p4381
aVXM_006724270.2:c.209-1003G>A
p4382
aVXM_011530239.1:c.209-1003G>A
p4383
aVXM_011530240.1:c.209-1003G>A
p4384
aVXM_011530241.1:c.209-1003G>A
p4385
aVXM_011530242.1:c.209-1003G>A
p4386
aVXM_011530243.1:c.209-1003G>A
p4387
aVXM_011530244.1:c.-198-1003G>A
p4388
aVXM_011530245.1:c.-198-1003G>A
p4389
asg23
(lp4390
Vrs17242080
p4391
aVrs56473198
p4392
aVrs56722050
p4393
assg28
I46610067
sg29
(dp4394
g31
VPPARA
p4395
sg33
VPA280
p4396
ssg35
(dp4397
g37
(lp4398
g39
(g40
g41
Ntp4399
Rp4400
(dp4401
g45
g46
sg47
g48
sbasg49
S'0/1'
p4402
sg51
g91
ssg23
S'rs4253728'
p4403
sa.