(lp0
(dp1
S'alias'
p2
(dp3
S'genomic'
p4
(lp5
VNC_000001.10:g.97547947T>A
p6
aVNC_000001.11:g.97082391T>A
p7
aVNG_008807.2:g.843669A>T
p8
asS'protein'
p9
(lp10
VNP_000101.2:p.Asp949Val
p11
aVXP_005270618.1:p.Asp912Val
p12
aVXP_005270619.1:p.Asp877Val
p13
aVXP_005270619.2:p.Asp877Val
p14
asS'nucleotide'
p15
(lp16
sS'coding'
p17
(lp18
VNM_000110.3:c.2846A>T
p19
aVXM_005270561.1:c.2735A>T
p20
aVXM_005270562.1:c.2630A>T
p21
aVXM_005270562.3:c.2630A>T
p22
asS'rsid'
p23
(lp24
Vrs199469564
p25
aVrs386467430
p26
aVrs67376799
p27
assS'hg19pos'
p28
I97547947
sS'genes'
p29
(lp30
(dp31
S'symbol'
p32
VDPYD
p33
sS'id'
p34
VPA145
p35
sasS'call'
p36
(dp37
S'alt'
p38
(lp39
ccopy_reg
_reconstructor
p40
(cvcf.model
_Substitution
p41
c__builtin__
object
p42
Ntp43
Rp44
(dp45
S'type'
p46
S'SNV'
p47
sS'sequence'
p48
S'A'
p49
sbasS'num'
p50
S'0/1'
p51
sS'ref'
p52
S'T'
p53
ssg23
S'rs67376798'
p54
sa(dp55
g2
(dp56
g4
(lp57
VNC_000001.10:g.97770920C>T
p58
aVNC_000001.11:g.97305364C>T
p59
aVNG_008807.2:g.620696G>A
p60
asg9
(lp61
VNP_000101.2:p.Val732Ile
p62
aVXP_005270618.1:p.Val695Ile
p63
aVXP_005270619.1:p.Val660Ile
p64
aVXP_005270619.2:p.Val660Ile
p65
aVXP_005270620.1:p.Val732Ile
p66
aVXP_006710460.1:p.Val732Ile
p67
asg15
(lp68
VNR_046590.1:n.129-825C>T
p69
asg17
(lp70
VNM_000110.3:c.2194G>A
p71
aVXM_005270561.1:c.2083G>A
p72
aVXM_005270562.1:c.1978G>A
p73
aVXM_005270562.3:c.1978G>A
p74
aVXM_005270563.1:c.2194G>A
p75
aVXM_006710397.2:c.2194G>A
p76
asg23
(lp77
Vrs12720467
p78
aVrs12720468
p79
aVrs199469554
p80
assg28
I97770920
sg29
(lp81
(dp82
g32
VDPYD
p83
sg34
VPA145
p84
sasg36
(dp85
g38
(lp86
g40
(g41
g42
Ntp87
Rp88
(dp89
g46
g47
sg48
g49
sbag40
(g41
g42
Ntp90
Rp91
(dp92
g46
g47
sg48
S'G'
p93
sbasg50
S'0/1'
p94
sg52
S'C'
p95
ssg23
S'rs1801160'
p96
sa(dp97
g2
(dp98
g4
(lp99
VNC_000001.10:g.97915614C>T
p100
aVNC_000001.11:g.97450058C>T
p101
aVNG_008807.2:g.476002G>A
p102
asg9
(lp103
sg15
(lp104
sg17
(lp105
VNM_000110.3:c.1905+1G>A
p106
aVXM_005270561.1:c.1794+1G>A
p107
aVXM_005270562.1:c.1689+1G>A
p108
aVXM_005270562.3:c.1689+1G>A
p109
aVXM_005270563.1:c.1905+1G>A
p110
aVXM_006710397.2:c.1905+1G>A
p111
asg23
(lp112
Vrs199469548
p113
aVrs386589337
p114
assg28
I97915614
sg29
(lp115
(dp116
g32
VDPYD
p117
sg34
VPA145
p118
sasg36
(dp119
g38
(lp120
g40
(g41
g42
Ntp121
Rp122
(dp123
g46
g47
sg48
g49
sbag40
(g41
g42
Ntp124
Rp125
(dp126
g46
g47
sg48
g93
sbasg50
S'0/1'
p127
sg52
g95
ssg23
S'rs3918290'
p128
sa(dp129
g2
(dp130
g4
(lp131
VNC_000001.10:g.97915624A>G
p132
aVNC_000001.11:g.97450068A>G
p133
aVNG_008807.2:g.475992T>C
p134
asg9
(lp135
VNP_000101.2:p.Phe632=
p136
aVXP_005270618.1:p.Phe595=
p137
aVXP_005270619.1:p.Phe560=
p138
aVXP_005270619.2:p.Phe560=
p139
aVXP_005270620.1:p.Phe632=
p140
aVXP_006710460.1:p.Phe632=
p141
asg15
(lp142
sg17
(lp143
VNM_000110.3:c.1896T>C
p144
aVXM_005270561.1:c.1785T>C
p145
aVXM_005270562.1:c.1680T>C
p146
aVXM_005270562.3:c.1680T>C
p147
aVXM_005270563.1:c.1896T>C
p148
aVXM_006710397.2:c.1896T>C
p149
asg23
(lp150
Vrs117467766
p151
aVrs52815410
p152
aVrs58485702
p153
assg28
I97915624
sg29
(lp154
(dp155
g32
VDPYD
p156
sg34
VPA145
p157
sasg36
(dp158
g38
(lp159
g40
(g41
g42
Ntp160
Rp161
(dp162
g46
g47
sg48
g93
sbasg50
S'0/1'
p163
sg52
g49
ssg23
S'rs17376848'
p164
sa(dp165
g2
(dp166
g4
(lp167
VNC_000001.10:g.97981343A>C
p168
aVNC_000001.11:g.97515787A>C
p169
aVNG_008807.2:g.410273T>G
p170
asg9
(lp171
VNP_000101.2:p.Ile560Ser
p172
aVXP_005270618.1:p.Ile523Ser
p173
aVXP_005270620.1:p.Ile560Ser
p174
aVXP_005270621.1:p.Ile560Ser
p175
aVXP_006710460.1:p.Ile560Ser
p176
asg15
(lp177
sg17
(lp178
VNM_000110.3:c.1679T>G
p179
aVXM_005270561.1:c.1568T>G
p180
aVXM_005270562.1:c.1524+33773T>G
p181
aVXM_005270562.3:c.1524+33773T>G
p182
aVXM_005270563.1:c.1679T>G
p183
aVXM_005270564.1:c.1679T>G
p184
aVXM_006710397.2:c.1679T>G
p185
asg23
(lp186
Vrs199469542
p187
assg28
I97981343
sg29
(lp188
(dp189
g32
VDPYD
p190
sg34
VPA145
p191
sasg36
(dp192
g38
(lp193
g40
(g41
g42
Ntp194
Rp195
(dp196
g46
g47
sg48
g95
sbag40
(g41
g42
Ntp197
Rp198
(dp199
g46
g47
sg48
g53
sbasg50
S'0/1'
p200
sg52
g49
ssg23
S'rs55886062'
p201
sa(dp202
g2
(dp203
g4
(lp204
VNC_000001.10:g.97981421C>T
p205
aVNC_000001.11:g.97515865C>T
p206
aVNG_008807.2:g.410195G>A
p207
asg9
(lp208
VNP_000101.2:p.Ser534Asn
p209
aVXP_005270618.1:p.Ser497Asn
p210
aVXP_005270620.1:p.Ser534Asn
p211
aVXP_005270621.1:p.Ser534Asn
p212
aVXP_006710460.1:p.Ser534Asn
p213
asg15
(lp214
sg17
(lp215
VNM_000110.3:c.1601G>A
p216
aVXM_005270561.1:c.1490G>A
p217
aVXM_005270562.1:c.1524+33695G>A
p218
aVXM_005270562.3:c.1524+33695G>A
p219
aVXM_005270563.1:c.1601G>A
p220
aVXM_005270564.1:c.1601G>A
p221
aVXM_006710397.2:c.1601G>A
p222
asg23
(lp223
Vrs199469539
p224
aVrs52824375
p225
aVrs59516208
p226
assg28
I97981421
sg29
(lp227
(dp228
g32
VDPYD
p229
sg34
VPA145
p230
sasg36
(dp231
g38
(lp232
g40
(g41
g42
Ntp233
Rp234
(dp235
g46
g47
sg48
g49
sbag40
(g41
g42
Ntp236
Rp237
(dp238
g46
g47
sg48
g93
sbasg50
S'0/1'
p239
sg52
g95
ssg23
S'rs1801158'
p240
sa(dp241
g2
(dp242
g4
(lp243
VNC_000001.10:g.98039419C>T
p244
aVNC_000001.11:g.97573863C>T
p245
aVNG_008807.2:g.352197G>A
p246
asg9
(lp247
VNP_000101.2:p.Glu412=
p248
aVXP_005270618.1:p.Glu375=
p249
aVXP_005270619.1:p.Glu412=
p250
aVXP_005270619.2:p.Glu412=
p251
aVXP_005270620.1:p.Glu412=
p252
aVXP_005270621.1:p.Glu412=
p253
aVXP_006710460.1:p.Glu412=
p254
asg15
(lp255
sg17
(lp256
VNM_000110.3:c.1236G>A
p257
aVXM_005270561.1:c.1125G>A
p258
aVXM_005270562.1:c.1236G>A
p259
aVXM_005270562.3:c.1236G>A
p260
aVXM_005270563.1:c.1236G>A
p261
aVXM_005270564.1:c.1236G>A
p262
aVXM_006710397.2:c.1236G>A
p263
asg23
(lp264
Vrs199469533
p265
aVrs61730901
p266
assg28
I98039419
sg29
(lp267
(dp268
g32
VDPYD
p269
sg34
VPA145
p270
sasg36
(dp271
g38
(lp272
g40
(g41
g42
Ntp273
Rp274
(dp275
g46
g47
sg48
g53
sbasg50
S'0/1'
p276
sg52
g95
ssg23
S'rs56038477'
p277
sa(dp278
g2
(dp279
g4
(lp280
VNC_000002.11:g.136608646G>A
p281
aVNC_000002.12:g.135851076G>A
p282
aVNG_008958.1:g.30366C>T
p283
aVNG_008104.2:g.9094C>T
p284
asg9
(lp285
sg15
(lp286
sg17
(lp287
VNM_005915.5:c.1917+326C>T
p288
asg23
(lp289
ssg28
I136608646
sg29
(lp290
(dp291
g32
S'MCM6'
p292
sg34
S'4175'
p293
sasg36
(dp294
g38
(lp295
g40
(g41
g42
Ntp296
Rp297
(dp298
g46
g47
sg48
g95
sbag40
(g41
g42
Ntp299
Rp300
(dp301
g46
g47
sg48
g53
sbasg50
S'0/1'
p302
sg52
g93
ssg23
S'rs4988235'
p303
sa(dp304
g2
(dp305
g4
(lp306
VNC_000002.11:g.234578428C>T
p307
aVNC_000002.12:g.233669782C>T
p308
aVNG_002601.2:g.85039C>T
p309
asg9
(lp310
sg15
(lp311
sg17
(lp312
VNM_019075.2:c.855+32405C>T
p313
aVNM_019076.4:c.855+51220C>T
p314
asg23
(lp315
ssg28
I234578428
sg29
(lp316
(dp317
g32
VUGT1A10
p318
sg34
VPA37174
p319
sa(dp320
g32
VUGT1A8
p321
sg34
VPA37183
p322
sa(dp323
g32
VUGT1A9
p324
sg34
VPA419
p325
sasg36
(dp326
g38
(lp327
g40
(g41
g42
Ntp328
Rp329
(dp330
g46
g47
sg48
g53
sbasg50
S'0/1'
p331
sg52
g95
ssg23
S'rs17868320'
p332
sa(dp333
g2
(dp334
g4
(lp335
VNC_000002.11:g.234580305T>A
p336
aVNC_000002.12:g.233671659T>A
p337
aVNG_002601.2:g.86916T>A
p338
asg9
(lp339
sg15
(lp340
VXR_241241.1:n.-190T>A
p341
asg17
(lp342
VNM_019075.2:c.855+34282T>A
p343
aVNM_019076.4:c.855+53097T>A
p344
aVNM_021027.2:c.-276T>A
p345
asg23
(lp346
Vrs57814275
p347
aVrs58682763
p348
assg28
I234580305
sg29
(lp349
(dp350
g32
VUGT1A10
p351
sg34
VPA37174
p352
sa(dp353
g32
VUGT1A7
p354
sg34
VPA37182
p355
sa(dp356
g32
VUGT1A8
p357
sg34
VPA37183
p358
sa(dp359
g32
VUGT1A9
p360
sg34
VPA419
p361
sasg36
(dp362
g38
(lp363
g40
(g41
g42
Ntp364
Rp365
(dp366
g46
g47
sg48
g49
sbasg50
S'0/1'
p367
sg52
g53
ssg23
S'rs6714486'
p368
sa(dp369
g2
(dp370
g4
(lp371
VNC_000002.11:g.234580678T>C
p372
aVNC_000002.12:g.233672032T>C
p373
aVNG_002601.2:g.87289T>C
p374
asg9
(lp375
VNP_066307.1:p.Met33Thr
p376
asg15
(lp377
VXR_241241.1:n.184T>C
p378
asg17
(lp379
VNM_019075.2:c.855+34655T>C
p380
aVNM_019076.4:c.855+53470T>C
p381
aVNM_021027.2:c.98T>C
p382
asg23
(lp383
ssg28
I234580678
sg29
(lp384
(dp385
g32
VUGT1A10
p386
sg34
VPA37174
p387
sa(dp388
g32
VUGT1A8
p389
sg34
VPA37183
p390
sa(dp391
g32
VUGT1A9
p392
sg34
VPA419
p393
sasg36
(dp394
g38
(lp395
g40
(g41
g42
Ntp396
Rp397
(dp398
g46
g47
sg48
g95
sbasg50
S'0/1'
p399
sg52
g53
ssg23
S'rs72551330'
p400
sa(dp401
g2
(dp402
g4
(lp403
VNC_000003.11:g.30886817C>T
p404
aVNC_000003.12:g.30845325C>T
p405
asg9
(lp406
sg15
(lp407
sg17
(lp408
VNM_207359.2:c.652-859G>A
p409
asg23
(lp410
Vrs58981610
p411
aVrs59580335
p412
assg28
I30886817
sg29
(lp413
(dp414
g32
VGADL1
p415
sg34
VPA134944477
p416
sasg36
(dp417
g38
(lp418
g40
(g41
g42
Ntp419
Rp420
(dp421
g46
g47
sg48
g53
sbasg50
S'0/1'
p422
sg52
g95
ssg23
S'rs17026688'
p423
sa(dp424
g2
(dp425
g4
(lp426
VNC_000003.11:g.165491280C>T
p427
aVNC_000003.12:g.165773492C>T
p428
aVNG_009031.1:g.68974G>A
p429
asg9
(lp430
VNP_000046.1:p.Ala567Thr
p431
aVXP_005247742.1:p.Ala608Thr
p432
asg15
(lp433
sg17
(lp434
VNM_000055.2:c.1699G>A
p435
aVXM_005247685.1:c.1822G>A
p436
asg23
(lp437
Vrs17713328
p438
aVrs17846898
p439
aVrs3773869
p440
aVrs52816414
p441
aVrs60242395
p442
assg28
I165491280
sg29
(lp443
(dp444
g32
VBCHE
p445
sg34
VPA25294
p446
sasg36
(dp447
g38
(lp448
g40
(g41
g42
Ntp449
Rp450
(dp451
g46
g47
sg48
g49
sbag40
(g41
g42
Ntp452
Rp453
(dp454
g46
g47
sg48
g93
sbasg50
S'0/1'
p455
sg52
g95
ssg23
S'rs1803274'
p456
sa(dp457
g2
(dp458
g4
(lp459
VNC_000003.11:g.165504043T>A
p460
aVNC_000003.12:g.165786255T>A
p461
aVNG_009031.1:g.56211A>T
p462
asg9
(lp463
VNP_000046.1:p.Glu525Val
p464
aVXP_005247742.1:p.Glu566Val
p465
asg15
(lp466
sg17
(lp467
VNM_000055.2:c.1574A>T
p468
aVXM_005247685.1:c.1697A>T
p469
asg23
(lp470
ssg28
I165504043
sg29
(lp471
(dp472
g32
S'BCHE'
p473
sg34
S'590'
p474
sasg36
(dp475
g38
(lp476
g40
(g41
g42
Ntp477
Rp478
(dp479
g46
g47
sg48
g49
sbasg50
S'0/1'
p480
sg52
g53
ssg23
S'rs121918556'
p481
sa(dp482
g2
(dp483
g4
(lp484
VNC_000003.11:g.165547569C>A
p485
aVNC_000003.12:g.165829781C>A
p486
aVNG_009031.1:g.12685G>T
p487
asg9
(lp488
VNP_000046.1:p.Gly418Val
p489
aVXP_005247742.1:p.Gly459Val
p490
asg15
(lp491
sg17
(lp492
VNM_000055.2:c.1253G>T
p493
aVXM_005247685.1:c.1376G>T
p494
asg23
(lp495
ssg28
I165547569
sg29
(lp496
(dp497
g32
VBCHE
p498
sg34
VPA25294
p499
sasg36
(dp500
g38
(lp501
g40
(g41
g42
Ntp502
Rp503
(dp504
g46
g47
sg48
g49
sbag40
(g41
g42
Ntp505
Rp506
(dp507
g46
g47
sg48
g93
sbag40
(g41
g42
Ntp508
Rp509
(dp510
g46
g47
sg48
g53
sbasg50
S'0/1'
p511
sg52
g95
ssg23
S'rs28933390'
p512
sa(dp513
g2
(dp514
g4
(lp515
VNC_000003.11:g.165548010G>A
p516
aVNC_000003.12:g.165830222G>A
p517
aVNG_009031.1:g.12244C>T
p518
asg9
(lp519
VNP_000046.1:p.Thr271Met
p520
aVXP_005247742.1:p.Thr312Met
p521
asg15
(lp522
sg17
(lp523
VNM_000055.2:c.812C>T
p524
aVXM_005247685.1:c.935C>T
p525
asg23
(lp526
ssg28
I165548010
sg29
(lp527
(dp528
g32
VBCHE
p529
sg34
VPA25294
p530
sasg36
(dp531
g38
(lp532
g40
(g41
g42
Ntp533
Rp534
(dp535
g46
g47
sg48
g95
sbag40
(g41
g42
Ntp536
Rp537
(dp538
g46
g47
sg48
g53
sbasg50
S'0/1'
p539
sg52
g93
ssg23
S'rs28933389'
p540
sa(dp541
g2
(dp542
g4
(lp543
VNC_000003.11:g.165548187G>A
p544
aVNC_000003.12:g.165830399G>A
p545
aVNG_009031.1:g.12067C>T
p546
asg9
(lp547
VNP_000046.1:p.Ala212Val
p548
aVXP_005247742.1:p.Ala253Val
p549
asg15
(lp550
sg17
(lp551
VNM_000055.2:c.635C>T
p552
aVXM_005247685.1:c.758C>T
p553
asg23
(lp554
ssg28
I165548187
sg29
(lp555
(dp556
g32
S'BCHE'
p557
sg34
S'590'
p558
sasg36
(dp559
g38
(lp560
g40
(g41
g42
Ntp561
Rp562
(dp563
g46
g47
sg48
g49
sbasg50
S'0/1'
p564
sg52
g93
ssg23
S'rs114706984'
p565
sa(dp566
g2
(dp567
g4
(lp568
VNC_000003.12:g.165830599A>C
p569
aVNC_000003.12:g.165830599A>T
p570
aVNC_000003.11:g.165548387A>C
p571
aVNC_000003.11:g.165548387A>T
p572
aVNG_009031.1:g.11867T>A
p573
aVNG_009031.1:g.11867T>G
p574
asg9
(lp575
VNP_000046.1:p.Gly145=
p576
aVXP_005247742.1:p.Gly186=
p577
asg15
(lp578
sg17
(lp579
VNM_000055.2:c.435T>A
p580
aVNM_000055.2:c.435T>G
p581
aVXM_005247685.1:c.558T>A
p582
aVXM_005247685.1:c.558T>G
p583
asg23
(lp584
ssg28
I165548387
sg29
(lp585
(dp586
g32
S'BCHE'
p587
sg34
S'590'
p588
sasg36
(dp589
g38
(lp590
g40
(g41
g42
Ntp591
Rp592
(dp593
g46
g47
sg48
g93
sbasg50
S'0/1'
p594
sg52
g53
ssg23
S'rs71534242'
p595
sa(dp596
g2
(dp597
g4
(lp598
VNC_000003.11:g.165548529T>C
p599
aVNC_000003.12:g.165830741T>C
p600
aVNG_009031.1:g.11725A>G
p601
asg9
(lp602
VNP_000046.1:p.Asp98Gly
p603
aVXP_005247742.1:p.Asp139Gly
p604
asg15
(lp605
sg17
(lp606
VNM_000055.2:c.293A>G
p607
aVXM_005247685.1:c.416A>G
p608
asg23
(lp609
Vrs386545549
p610
aVrs52796585
p611
aVrs56541123
p612
assg28
I165548529
sg29
(lp613
(dp614
g32
VBCHE
p615
sg34
VPA25294
p616
sasg36
(dp617
g38
(lp618
g40
(g41
g42
Ntp619
Rp620
(dp621
g46
g47
sg48
g49
sbag40
(g41
g42
Ntp622
Rp623
(dp624
g46
g47
sg48
g93
sbasg50
S'0/1'
p625
sg52
g53
ssg23
S'rs1799807'
p626
sa(dp627
g2
(dp628
g4
(lp629
VNC_000004.11:g.69961339G>A
p630
aVNC_000004.12:g.69095621G>A
p631
asg9
(lp632
sg15
(lp633
sg17
(lp634
VNM_001074.2:c.-900G>A
p635
aVXM_005265702.1:c.-26-2919G>A
p636
aVXM_005265702.2:c.-26-2919G>A
p637
aVXM_011532229.1:c.-900G>A
p638
aVXM_011532230.1:c.-900G>A
p639
aVXM_011532231.1:c.-26-2919G>A
p640
asg23
(lp641
ssg28
I69961339
sg29
(lp642
(dp643
g32
VUGT2B7
p644
sg34
VPA361
p645
sasg36
(dp646
g38
(lp647
g40
(g41
g42
Ntp648
Rp649
(dp650
g46
g47
sg48
g49
sbasg50
S'0/1'
p651
sg52
g93
ssg23
S'rs7438135'
p652
sa(dp653
g2
(dp654
g4
(lp655
VNC_000004.11:g.89052323G>T
p656
aVNC_000004.12:g.88131171G>T
p657
aVNG_032067.2:g.105152C>A
p658
asg9
(lp659
VNP_001244315.1:p.Gln141Lys
p660
aVNP_004818.2:p.Gln141Lys
p661
aVXP_005263411.1:p.Gln141Lys
p662
aVXP_005263412.1:p.Gln141Lys
p663
aVXP_005263413.1:p.Gln141Lys
p664
aVXP_011530722.1:p.Gln141Lys
p665
asg15
(lp666
sg17
(lp667
VNM_001257386.1:c.421C>A
p668
aVNM_004827.2:c.421C>A
p669
aVXM_005263354.1:c.421C>A
p670
aVXM_005263354.2:c.421C>A
p671
aVXM_005263355.1:c.421C>A
p672
aVXM_005263355.2:c.421C>A
p673
aVXM_005263356.1:c.421C>A
p674
aVXM_005263356.2:c.421C>A
p675
aVXM_011532420.1:c.421C>A
p676
asg23
(lp677
Vrs12721641
p678
aVrs28365035
p679
aVrs3736117
p680
aVrs52809243
p681
aVrs58973676
p682
assg28
I89052323
sg29
(lp683
(dp684
g32
VABCG2
p685
sg34
VPA390
p686
sasg36
(dp687
g38
(lp688
g40
(g41
g42
Ntp689
Rp690
(dp691
g46
g47
sg48
g49
sbag40
(g41
g42
Ntp692
Rp693
(dp694
g46
g47
sg48
g95
sbasg50
S'0/1'
p695
sg52
g93
ssg23
S'rs2231142'
p696
sa(dp697
g2
(dp698
g4
(lp699
VNC_000005.10:g.609978C>T
p700
aVNC_000005.9:g.610093C>T
p701
aVNT_187550.1:g.16919G>A
p702
asg9
(lp703
sg15
(lp704
VNR_103444.1:n.366+1469G>A
p705
aVXR_925672.1:n.4781C>T
p706
aVXR_925673.1:n.4681C>T
p707
aVXR_925674.1:n.4533C>T
p708
aVXR_951681.1:n.4781C>T
p709
aVXR_951682.1:n.4681C>T
p710
aVXR_951683.1:n.4533C>T
p711
asg17
(lp712
sg23
(lp713
ssg28
I610093
sg29
(lp714
(dp715
g32
VCEP72
p716
sg34
VPA142672125
p717
sasg36
(dp718
g38
(lp719
g40
(g41
g42
Ntp720
Rp721
(dp722
g46
g47
sg48
g53
sbasg50
S'0/1'
p723
sg52
g95
ssg23
S'rs924607'
p724
sa(dp725
g2
(dp726
g4
(lp727
VNC_000006.11:g.18130918T>C
p728
aVNC_000006.12:g.18130687T>C
p729
aVNG_012137.2:g.29457A>G
p730
asg9
(lp731
VNP_000358.1:p.Tyr240Cys
p732
aVXP_011513141.1:p.Tyr225Cys
p733
aVXP_011513142.1:p.Tyr217Cys
p734
asg15
(lp735
sg17
(lp736
VNM_000367.3:c.719A>G
p737
aVXM_011514839.1:c.674A>G
p738
aVXM_011514840.1:c.650A>G
p739
asg23
(lp740
Vrs16880254
p741
aVrs1801205
p742
aVrs29001646
p743
aVrs52798150
p744
aVrs61510596
p745
assg28
I18130918
sg29
(lp746
(dp747
g32
VTPMT
p748
sg34
VPA356
p749
sasg36
(dp750
g38
(lp751
g40
(g41
g42
Ntp752
Rp753
(dp754
g46
g47
sg48
g49
sbag40
(g41
g42
Ntp755
Rp756
(dp757
g46
g47
sg48
g93
sbasg50
S'0/1'
p758
sg52
g53
ssg23
S'rs1142345'
p759
sa(dp760
g2
(dp761
g4
(lp762
VNC_000006.11:g.18139228C>T
p763
aVNC_000006.12:g.18138997C>T
p764
aVNG_012137.2:g.21147G>A
p765
asg9
(lp766
VNP_000358.1:p.Ala154Thr
p767
aVXP_011513141.1:p.Ala154Thr
p768
aVXP_011513142.1:p.Ala131Thr
p769
asg15
(lp770
sg17
(lp771
VNM_000367.3:c.460G>A
p772
aVXM_011514839.1:c.460G>A
p773
aVXM_011514840.1:c.391G>A
p774
asg23
(lp775
Vrs11568060
p776
aVrs16880273
p777
aVrs386545583
p778
aVrs57650974
p779
assg28
I18139228
sg29
(lp780
(dp781
g32
VTPMT
p782
sg34
VPA356
p783
sasg36
(dp784
g38
(lp785
g40
(g41
g42
Ntp786
Rp787
(dp788
g46
g47
sg48
g49
sbag40
(g41
g42
Ntp789
Rp790
(dp791
g46
g47
sg48
g93
sbasg50
S'0/1'
p792
sg52
g95
ssg23
S'rs1800460'
p793
sa(dp794
g2
(dp795
g4
(lp796
VNC_000006.11:g.18143955C>G
p797
aVNC_000006.12:g.18143724C>G
p798
aVNG_012137.2:g.16420G>C
p799
asg9
(lp800
VNP_000358.1:p.Ala80Pro
p801
aVXP_011513141.1:p.Ala80Pro
p802
aVXP_011513142.1:p.Ala57Pro
p803
asg15
(lp804
sg17
(lp805
VNM_000367.3:c.238G>C
p806
aVXM_011514839.1:c.238G>C
p807
aVXM_011514840.1:c.169G>C
p808
asg23
(lp809
ssg28
I18143955
sg29
(lp810
(dp811
g32
VTPMT
p812
sg34
VPA356
p813
sasg36
(dp814
g38
(lp815
g40
(g41
g42
Ntp816
Rp817
(dp818
g46
g47
sg48
g93
sbasg50
S'0/1'
p819
sg52
g95
ssg23
S'rs1800462'
p820
sa(dp821
g2
(dp822
g4
(lp823
VNC_000006.11:g.31448976C=
p824
aVNC_000006.11:g.31448976C>A
p825
aVNC_000006.12:g.31481199C=
p826
aVNC_000006.12:g.31481199C>A
p827
aVNT_113891.2:g.2958634A=
p828
aVNT_113891.2:g.2958634A>C
p829
aVNT_113891.3:g.2958528A=
p830
aVNT_113891.3:g.2958528A>C
p831
aVNT_167244.1:g.2763686C=
p832
aVNT_167244.1:g.2763686C>A
p833
aVNT_167244.2:g.2813770C=
p834
aVNT_167244.2:g.2813770C>A
p835
aVNT_167245.1:g.2734310C=
p836
aVNT_167245.1:g.2734310C>A
p837
aVNT_167245.2:g.2728725C=
p838
aVNT_167245.2:g.2728725C>A
p839
aVNT_167247.1:g.2828760C=
p840
aVNT_167247.1:g.2828760C>A
p841
aVNT_167247.2:g.2823175C=
p842
aVNT_167247.2:g.2823175C>A
p843
aVNT_167248.1:g.2742682C=
p844
aVNT_167248.1:g.2742682C>A
p845
aVNT_167248.2:g.2737086C=
p846
aVNT_167248.2:g.2737086C>A
p847
aVNT_167249.1:g.2779748C=
p848
aVNT_167249.1:g.2779748C>A
p849
aVNT_167249.2:g.2780450C=
p850
aVNT_167249.2:g.2780450C>A
p851
asg9
(lp852
sg15
(lp853
VXR_926693.1:n.701G=
p854
aVXR_926693.1:n.701G>T
p855
aVXR_953042.1:n.531G=
p856
aVXR_953042.1:n.531G>T
p857
asg17
(lp858
sg23
(lp859
Vrs116662199
p860
aVrs116841198
p861
aVrs58471066
p862
aVrs7757186
p863
assg28
I31448976
sg29
(lp864
(dp865
g32
VCYCSP5
p866
sg34
VPA142672032
p867
sasg36
(dp868
g38
(lp869
g40
(g41
g42
Ntp870
Rp871
(dp872
g46
g47
sg48
g49
sbasg50
S'0/1'
p873
sg52
g95
ssg23
S'rs3099844'
p874
sa(dp875
g2
(dp876
g4
(lp877
VNC_000006.11:g.154360797A>G
p878
aVNC_000006.12:g.154039662A>G
p879
aVNG_021208.1:g.34162A>G
p880
asg9
(lp881
VNP_000905.3:p.Asn40Asp
p882
aVNP_001008503.2:p.Asn40Asp
p883
aVNP_001008504.2:p.Asn40Asp
p884
aVNP_001008505.2:p.Asn40Asp
p885
aVNP_001138751.1:p.Asn133Asp
p886
aVNP_001138754.1:p.Asn40Asp
p887
aVNP_001138755.1:p.Asn40Asp
p888
aVNP_001138756.1:p.Asn40Asp
p889
aVNP_001138757.1:p.Asn40Asp
p890
aVNP_001138758.1:p.Asn40Asp
p891
aVNP_001272451.1:p.Asn40Asp
p892
aVNP_001272452.1:p.Asn40Asp
p893
aVNP_001272453.1:p.Asn133Asp
p894
aVXP_005267059.1:p.Asn102Asp
p895
aVXP_006715560.1:p.Asn102Asp
p896
aVXP_011534151.1:p.Asn133Asp
p897
asg15
(lp898
VNR_104348.1:n.252A>G
p899
aVNR_104349.1:n.252A>G
p900
aVNR_104350.1:n.252A>G
p901
aVNR_104351.1:n.252A>G
p902
aVXR_245534.1:n.304A>G
p903
aVXR_245535.1:n.304A>G
p904
aVXR_245536.1:n.304A>G
p905
aVXR_245537.1:n.304A>G
p906
asg17
(lp907
VNM_000914.4:c.118A>G
p908
aVNM_001008503.2:c.118A>G
p909
aVNM_001008504.3:c.118A>G
p910
aVNM_001008505.2:c.118A>G
p911
aVNM_001145279.3:c.397A>G
p912
aVNM_001145280.3:c.-11+28644A>G
p913
aVNM_001145281.2:c.47+29103A>G
p914
aVNM_001145282.2:c.118A>G
p915
aVNM_001145283.2:c.118A>G
p916
aVNM_001145284.3:c.118A>G
p917
aVNM_001145285.2:c.118A>G
p918
aVNM_001145286.2:c.118A>G
p919
aVNM_001285522.1:c.118A>G
p920
aVNM_001285523.1:c.118A>G
p921
aVNM_001285524.1:c.397A>G
p922
aVXM_005267002.1:c.304A>G
p923
aVXM_006715497.2:c.304A>G
p924
aVXM_011535849.1:c.397A>G
p925
asg23
(lp926
Vrs17181017
p927
aVrs52818856
p928
aVrs61596185
p929
assg28
I154360797
sg29
(lp930
(dp931
g32
VOPRM1
p932
sg34
VPA31945
p933
sasg36
(dp934
g38
(lp935
g40
(g41
g42
Ntp936
Rp937
(dp938
g46
g47
sg48
g93
sbasg50
S'0/1'
p939
sg52
g49
ssg23
S'rs1799971'
p940
sa(dp941
g2
(dp942
g4
(lp943
VNC_000006.11:g.160543148C>T
p944
aVNC_000006.12:g.160122116C>T
p945
asg9
(lp946
VNP_003048.1:p.Arg61Cys
p947
aVNP_694857.1:p.Arg61Cys
p948
aVXP_005267159.1:p.Arg61Cys
p949
aVXP_005267160.1:p.Arg61Cys
p950
aVXP_006715615.1:p.Arg61Cys
p951
asg15
(lp952
sg17
(lp953
VNM_003057.2:c.181C>T
p954
aVNM_153187.1:c.181C>T
p955
aVXM_005267102.1:c.181C>T
p956
aVXM_005267102.3:c.181C>T
p957
aVXM_005267103.1:c.181C>T
p958
aVXM_005267105.1:c.-485C>T
p959
aVXM_005267105.3:c.-485C>T
p960
aVXM_006715552.1:c.181C>T
p961
aVXM_011536074.1:c.-895C>T
p962
asg23
(lp963
Vrs56982873
p964
assg28
I160543148
sg29
(lp965
(dp966
g32
VSLC22A1
p967
sg34
VPA329
p968
sasg36
(dp969
g38
(lp970
g40
(g41
g42
Ntp971
Rp972
(dp973
g46
g47
sg48
g53
sbasg50
S'0/1'
p974
sg52
g95
ssg23
S'rs12208357'
p975
sa(dp976
g2
(dp977
g4
(lp978
VNC_000006.11:g.160543229T>C
p979
aVNC_000006.12:g.160122197T>C
p980
asg9
(lp981
VNP_003048.1:p.Cys88Arg
p982
aVNP_694857.1:p.Cys88Arg
p983
aVXP_005267159.1:p.Cys88Arg
p984
aVXP_005267160.1:p.Cys88Arg
p985
aVXP_006715615.1:p.Cys88Arg
p986
asg15
(lp987
sg17
(lp988
VNM_003057.2:c.262T>C
p989
aVNM_153187.1:c.262T>C
p990
aVXM_005267102.1:c.262T>C
p991
aVXM_005267102.3:c.262T>C
p992
aVXM_005267103.1:c.262T>C
p993
aVXM_005267105.1:c.-404T>C
p994
aVXM_005267105.3:c.-404T>C
p995
aVXM_006715552.1:c.262T>C
p996
aVXM_011536074.1:c.-814T>C
p997
asg23
(lp998
ssg28
I160543229
sg29
(lp999
(dp1000
g32
VSLC22A1
p1001
sg34
VPA329
p1002
sasg36
(dp1003
g38
(lp1004
g40
(g41
g42
Ntp1005
Rp1006
(dp1007
g46
g47
sg48
g49
sbag40
(g41
g42
Ntp1008
Rp1009
(dp1010
g46
g47
sg48
g95
sbasg50
S'0/1'
p1011
sg52
g53
ssg23
S'rs55918055'
p1012
sa(dp1013
g2
(dp1014
g4
(lp1015
VNC_000006.11:g.160560824G>A
p1016
aVNC_000006.12:g.160139792G>A
p1017
asg9
(lp1018
VNP_003048.1:p.Gly401Ser
p1019
aVNP_694857.1:p.Gly401Ser
p1020
aVXP_005267159.1:p.Gly401Ser
p1021
aVXP_005267160.1:p.Gly401Ser
p1022
aVXP_005267161.1:p.Gly209Ser
p1023
aVXP_005267162.1:p.Gly209Ser
p1024
aVXP_006715615.1:p.Gly401Ser
p1025
aVXP_011534376.1:p.Gly209Ser
p1026
asg15
(lp1027
sg17
(lp1028
VNM_003057.2:c.1201G>A
p1029
aVNM_153187.1:c.1201G>A
p1030
aVXM_005267102.1:c.1201G>A
p1031
aVXM_005267102.3:c.1201G>A
p1032
aVXM_005267103.1:c.1201G>A
p1033
aVXM_005267104.1:c.625G>A
p1034
aVXM_005267104.3:c.625G>A
p1035
aVXM_005267105.1:c.625G>A
p1036
aVXM_005267105.3:c.625G>A
p1037
aVXM_006715552.1:c.1201G>A
p1038
aVXM_011536074.1:c.625G>A
p1039
asg23
(lp1040
Vrs45512393
p1041
assg28
I160560824
sg29
(lp1042
(dp1043
g32
VSLC22A1
p1044
sg34
VPA329
p1045
sasg36
(dp1046
g38
(lp1047
g40
(g41
g42
Ntp1048
Rp1049
(dp1050
g46
g47
sg48
g49
sbasg50
S'0/1'
p1051
sg52
g93
ssg23
S'rs34130495'
p1052
sa(dp1053
g2
(dp1054
g4
(lp1055
VNC_000006.11:g.160560883_160560885delGAT
p1056
aVNC_000006.12:g.160139851_160139853delGAT
p1057
asg9
(lp1058
VNP_003048.1:p.Met420del
p1059
aVNP_694857.1:p.Met420del
p1060
aVXP_005267159.1:p.Met420del
p1061
aVXP_005267160.1:p.Met420del
p1062
aVXP_005267161.1:p.Met228del
p1063
aVXP_005267162.1:p.Met228del
p1064
aVXP_006715615.1:p.Met420del
p1065
aVXP_011534376.1:p.Met228del
p1066
asg15
(lp1067
sg17
(lp1068
VNM_003057.2:c.1260_1262delGAT
p1069
aVNM_153187.1:c.1260_1262delGAT
p1070
aVXM_005267102.1:c.1260_1262delGAT
p1071
aVXM_005267102.3:c.1260_1262delGAT
p1072
aVXM_005267103.1:c.1260_1262delGAT
p1073
aVXM_005267104.1:c.684_686delGAT
p1074
aVXM_005267104.3:c.684_686delGAT
p1075
aVXM_005267105.1:c.684_686delGAT
p1076
aVXM_005267105.3:c.684_686delGAT
p1077
aVXM_006715552.1:c.1260_1262delGAT
p1078
aVXM_011536074.1:c.684_686delGAT
p1079
asg23
(lp1080
ssg28
I160560882
sg29
(lp1081
(dp1082
g32
VSLC22A1
p1083
sg34
VPA329
p1084
sasg36
(dp1085
g38
(lp1086
g40
(g41
g42
Ntp1087
Rp1088
(dp1089
g46
g47
sg48
g53
sbasg50
S'0/1'
p1090
sg52
S'TGAT'
p1091
ssg23
S'rs72552763'
p1092
sa(dp1093
g2
(dp1094
g4
(lp1095
VNC_000006.11:g.160575837G>A
p1096
aVNC_000006.12:g.160154805G>A
p1097
asg9
(lp1098
VNP_003048.1:p.Gly465Arg
p1099
aVXP_005267159.1:p.Gly465Arg
p1100
aVXP_005267160.1:p.Gly465Arg
p1101
aVXP_005267161.1:p.Gly273Arg
p1102
aVXP_005267162.1:p.Gly273Arg
p1103
aVXP_011534376.1:p.Gly273Arg
p1104
asg15
(lp1105
sg17
(lp1106
VNM_003057.2:c.1393G>A
p1107
aVNM_153187.1:c.1386-1170G>A
p1108
aVXM_005267102.1:c.1393G>A
p1109
aVXM_005267102.3:c.1393G>A
p1110
aVXM_005267103.1:c.1393G>A
p1111
aVXM_005267104.1:c.817G>A
p1112
aVXM_005267104.3:c.817G>A
p1113
aVXM_005267105.1:c.817G>A
p1114
aVXM_005267105.3:c.817G>A
p1115
aVXM_006715552.1:c.1386-3711G>A
p1116
aVXM_011536074.1:c.817G>A
p1117
asg23
(lp1118
Vrs45476695
p1119
aVrs57829971
p1120
assg28
I160575837
sg29
(lp1121
(dp1122
g32
VSLC22A1
p1123
sg34
VPA329
p1124
sasg36
(dp1125
g38
(lp1126
g40
(g41
g42
Ntp1127
Rp1128
(dp1129
g46
g47
sg48
g49
sbag40
(g41
g42
Ntp1130
Rp1131
(dp1132
g46
g47
sg48
g95
sbasg50
S'0/1'
p1133
sg52
g93
ssg23
S'rs34059508'
p1134
sa(dp1135
g2
(dp1136
g4
(lp1137
VNC_000007.13:g.75615006C>T
p1138
aVNC_000007.14:g.75985688C>T
p1139
aVNG_008930.1:g.75587C>T
p1140
aVNW_003871064.1:g.3514924C>T
p1141
asg9
(lp1142
VNP_000932.3:p.Ala503Val
p1143
aVXP_005250516.1:p.Ala503Val
p1144
aVXP_005250517.1:p.Ala402Val
p1145
aVXP_005250518.1:p.Ala311Val
p1146
aVXP_005277657.1:p.Ala503Val
p1147
aVXP_005277658.1:p.Ala402Val
p1148
aVXP_005277659.1:p.Ala311Val
p1149
asg15
(lp1150
sg17
(lp1151
VNM_000941.2:c.1508C>T
p1152
aVXM_005250459.1:c.1508C>T
p1153
aVXM_005250460.1:c.1205C>T
p1154
aVXM_005250461.1:c.932C>T
p1155
aVXM_005277600.1:c.1508C>T
p1156
aVXM_005277601.1:c.1205C>T
p1157
aVXM_005277602.1:c.932C>T
p1158
asg23
(lp1159
Vrs17840495
p1160
aVrs17846082
p1161
aVrs17859083
p1162
aVrs3198400
p1163
aVrs57699079
p1164
assg28
I75615006
sg29
(lp1165
(dp1166
g32
VPOR
p1167
sg34
VPA33532
p1168
sasg36
(dp1169
g38
(lp1170
g40
(g41
g42
Ntp1171
Rp1172
(dp1173
g46
g47
sg48
g53
sbasg50
S'0/1'
p1174
sg52
g95
ssg23
S'rs1057868'
p1175
sa(dp1176
g2
(dp1177
g4
(lp1178
VNC_000007.13:g.87138645A>G
p1179
aVNC_000007.14:g.87509329A>G
p1180
aVNG_011513.1:g.208920T>C
p1181
asg9
(lp1182
VNP_000918.2:p.Ile1145=
p1183
asg15
(lp1184
sg17
(lp1185
VNM_000927.4:c.3435T>C
p1186
asg23
(lp1187
Vrs10239679
p1188
aVrs11568726
p1189
aVrs117328163
p1190
aVrs17210003
p1191
aVrs2229108
p1192
aVrs386513066
p1193
aVrs60023214
p1194
aVrs9690664
p1195
assg28
I87138645
sg29
(lp1196
(dp1197
g32
VABCB1
p1198
sg34
VPA267
p1199
sasg36
(dp1200
g38
(lp1201
g40
(g41
g42
Ntp1202
Rp1203
(dp1204
g46
g47
sg48
g95
sbag40
(g41
g42
Ntp1205
Rp1206
(dp1207
g46
g47
sg48
g53
sbasg50
S'0/1'
p1208
sg52
g49
ssg23
S'rs1045642'
p1209
sa(dp1210
g2
(dp1211
g4
(lp1212
VNC_000007.13:g.87160618A>C
p1213
aVNC_000007.13:g.87160618A>T
p1214
aVNC_000007.14:g.87531302A>C
p1215
aVNC_000007.14:g.87531302A>T
p1216
aVNG_011513.1:g.186947T>A
p1217
aVNG_011513.1:g.186947T>G
p1218
asg9
(lp1219
VNP_000918.2:p.Ser893Ala
p1220
aVNP_000918.2:p.Ser893Thr
p1221
asg15
(lp1222
sg17
(lp1223
VNM_000927.4:c.2677T>A
p1224
aVNM_000927.4:c.2677T>G
p1225
asg23
(lp1226
Vrs10228331
p1227
aVrs2229106
p1228
aVrs386553610
p1229
aVrs57135550
p1230
aVrs9641018
p1231
assg28
I87160618
sg29
(lp1232
(dp1233
g32
VABCB1
p1234
sg34
VPA267
p1235
sasg36
(dp1236
g38
(lp1237
g40
(g41
g42
Ntp1238
Rp1239
(dp1240
g46
g47
sg48
g93
sbag40
(g41
g42
Ntp1241
Rp1242
(dp1243
g46
g47
sg48
g53
sbasg50
S'0/1'
p1244
sg52
g49
ssg23
S'rs2032582'
p1245
sa(dp1246
g2
(dp1247
g4
(lp1248
VNC_000007.13:g.87179601A>G
p1249
aVNC_000007.14:g.87550285A>G
p1250
aVNG_011513.1:g.167964T>C
p1251
asg9
(lp1252
VNP_000918.2:p.Gly412=
p1253
asg15
(lp1254
sg17
(lp1255
VNM_000927.4:c.1236T>C
p1256
asg23
(lp1257
Vrs116989428
p1258
aVrs17276907
p1259
aVrs2032587
p1260
aVrs2229105
p1261
aVrs28365046
p1262
aVrs386518005
p1263
aVrs58257317
p1264
assg28
I87179601
sg29
(lp1265
(dp1266
g32
VABCB1
p1267
sg34
VPA267
p1268
sasg36
(dp1269
g38
(lp1270
g40
(g41
g42
Ntp1271
Rp1272
(dp1273
g46
g47
sg48
g95
sbag40
(g41
g42
Ntp1274
Rp1275
(dp1276
g46
g47
sg48
g53
sbasg50
S'0/1'
p1277
sg52
g49
ssg23
S'rs1128503'
p1278
sa(dp1279
g2
(dp1280
g4
(lp1281
VNC_000007.13:g.99250236G>T
p1282
aVNC_000007.14:g.99652613G>T
p1283
aVNG_007938.1:g.32386C>A
p1284
asg9
(lp1285
VNP_000768.1:p.Thr398Asn
p1286
aVNP_001278758.1:p.Thr285Asn
p1287
aVNP_001278759.1:p.Thr388Asn
p1288
aVXP_005250226.1:p.Thr388Asn
p1289
aVXP_005250227.1:p.Thr285Asn
p1290
aVXP_005250228.1:p.Thr285Asn
p1291
aVXP_005250229.1:p.Thr285Asn
p1292
aVXP_005250230.1:p.Thr218Asn
p1293
aVXP_011514145.1:p.Thr285Asn
p1294
aVXP_011514146.1:p.Thr285Asn
p1295
aVXP_011514147.1:p.Thr218Asn
p1296
aVXP_011514148.1:p.Thr218Asn
p1297
aVXP_011514149.1:p.Thr218Asn
p1298
asg15
(lp1299
VNR_033807.2:n.2927C>A
p1300
aVNR_033808.1:n.1795C>A
p1301
aVNR_033809.1:n.1555C>A
p1302
aVXR_927402.1:n.1466+28433G>T
p1303
asg17
(lp1304
VNM_000777.4:c.1193C>A
p1305
aVNM_001291829.1:c.854C>A
p1306
aVNM_001291830.1:c.1163C>A
p1307
aVXM_005250169.1:c.1163C>A
p1308
aVXM_005250170.1:c.854C>A
p1309
aVXM_005250171.1:c.854C>A
p1310
aVXM_005250172.1:c.854C>A
p1311
aVXM_005250173.1:c.653C>A
p1312
aVXM_005250198.1:c.806-24591G>T
p1313
aVXM_011515843.1:c.854C>A
p1314
aVXM_011515844.1:c.854C>A
p1315
aVXM_011515845.1:c.653C>A
p1316
aVXM_011515846.1:c.653C>A
p1317
aVXM_011515847.1:c.653C>A
p1318
aVXM_011515909.1:c.806-16482G>T
p1319
asg23
(lp1320
Vrs60662672
p1321
assg28
I99250236
sg29
(lp1322
(dp1323
g32
VCYP3A5
p1324
sg34
VPA131
p1325
sa(dp1326
g32
VZSCAN25
p1327
sg34
VPA134962723
p1328
sasg36
(dp1329
g38
(lp1330
g40
(g41
g42
Ntp1331
Rp1332
(dp1333
g46
g47
sg48
g49
sbag40
(g41
g42
Ntp1334
Rp1335
(dp1336
g46
g47
sg48
g95
sbasg50
S'0/1'
p1337
sg52
g93
ssg23
S'rs28365083'
p1338
sa(dp1339
g2
(dp1340
g4
(lp1341
VNC_000007.13:g.99250393_99250394insA
p1342
aVNC_000007.14:g.99652770_99652771insA
p1343
aVNG_007938.1:g.32228_32229insT
p1344
asg9
(lp1345
VNP_000768.1:p.Thr346Tyrfs
p1346
aVNP_001278758.1:p.Thr233Tyrfs
p1347
aVNP_001278759.1:p.Thr336Tyrfs
p1348
aVXP_005250226.1:p.Thr336Tyrfs
p1349
aVXP_005250227.1:p.Thr233Tyrfs
p1350
aVXP_005250228.1:p.Thr233Tyrfs
p1351
aVXP_005250229.1:p.Thr233Tyrfs
p1352
aVXP_005250230.1:p.Thr166Tyrfs
p1353
aVXP_011514145.1:p.Thr233Tyrfs
p1354
aVXP_011514146.1:p.Thr233Tyrfs
p1355
aVXP_011514147.1:p.Thr166Tyrfs
p1356
aVXP_011514148.1:p.Thr166Tyrfs
p1357
aVXP_011514149.1:p.Thr166Tyrfs
p1358
asg15
(lp1359
VNR_033807.2:n.2769_2770insT
p1360
aVNR_033808.1:n.1637_1638insT
p1361
aVNR_033809.1:n.1397_1398insT
p1362
aVXR_927402.1:n.1466+28590_1466+28591insA
p1363
asg17
(lp1364
VNM_000777.4:c.1035_1036insT
p1365
aVNM_001291829.1:c.696_697insT
p1366
aVNM_001291830.1:c.1005_1006insT
p1367
aVXM_005250169.1:c.1005_1006insT
p1368
aVXM_005250170.1:c.696_697insT
p1369
aVXM_005250171.1:c.696_697insT
p1370
aVXM_005250172.1:c.696_697insT
p1371
aVXM_005250173.1:c.495_496insT
p1372
aVXM_005250198.1:c.806-24434_806-24433insA
p1373
aVXM_011515843.1:c.696_697insT
p1374
aVXM_011515844.1:c.696_697insT
p1375
aVXM_011515845.1:c.495_496insT
p1376
aVXM_011515846.1:c.495_496insT
p1377
aVXM_011515847.1:c.495_496insT
p1378
aVXM_011515909.1:c.806-16325_806-16324insA
p1379
asg23
(lp1380
Vrs146933882
p1381
aVrs371634789
p1382
aVrs57622522
p1383
assg28
I99250393
sg29
(lp1384
(dp1385
g32
VCYP3A5
p1386
sg34
VPA131
p1387
sa(dp1388
g32
VZSCAN25
p1389
sg34
VPA134962723
p1390
sasg36
(dp1391
g38
(lp1392
g40
(g41
g42
Ntp1393
Rp1394
(dp1395
g46
S'MNV'
p1396
sg48
S'TT'
p1397
sbasg50
S'0/1'
p1398
sg52
g53
ssg23
S'rs41303343'
p1399
sa(dp1400
g2
(dp1401
g4
(lp1402
VNC_000007.13:g.99258139C>T
p1403
aVNC_000007.14:g.99660516C>T
p1404
aVNG_007938.1:g.24483G>A
p1405
asg9
(lp1406
VNP_000768.1:p.Ala337Thr
p1407
aVNP_001278758.1:p.Ala224Thr
p1408
aVNP_001278759.1:p.Ala327Thr
p1409
aVXP_005250226.1:p.Ala327Thr
p1410
aVXP_005250227.1:p.Ala224Thr
p1411
aVXP_005250228.1:p.Ala224Thr
p1412
aVXP_005250229.1:p.Ala224Thr
p1413
aVXP_005250230.1:p.Ala157Thr
p1414
aVXP_006715922.1:p.Ala337Thr
p1415
aVXP_011514145.1:p.Ala224Thr
p1416
aVXP_011514146.1:p.Ala224Thr
p1417
aVXP_011514147.1:p.Ala157Thr
p1418
aVXP_011514148.1:p.Ala157Thr
p1419
aVXP_011514149.1:p.Ala157Thr
p1420
asg15
(lp1421
VNR_033807.2:n.2743G>A
p1422
aVNR_033808.1:n.1611G>A
p1423
aVNR_033809.1:n.1371G>A
p1424
aVNR_033810.1:n.2696G>A
p1425
aVNR_033811.1:n.1360G>A
p1426
aVNR_033812.1:n.1252G>A
p1427
aVXR_927402.1:n.1466+36336C>T
p1428
asg17
(lp1429
VNM_000777.4:c.1009G>A
p1430
aVNM_001291829.1:c.670G>A
p1431
aVNM_001291830.1:c.979G>A
p1432
aVXM_005250169.1:c.979G>A
p1433
aVXM_005250170.1:c.670G>A
p1434
aVXM_005250171.1:c.670G>A
p1435
aVXM_005250172.1:c.670G>A
p1436
aVXM_005250173.1:c.469G>A
p1437
aVXM_005250198.1:c.806-16688C>T
p1438
aVXM_006715859.2:c.1009G>A
p1439
aVXM_011515843.1:c.670G>A
p1440
aVXM_011515844.1:c.670G>A
p1441
aVXM_011515845.1:c.469G>A
p1442
aVXM_011515846.1:c.469G>A
p1443
aVXM_011515847.1:c.469G>A
p1444
aVXM_011515909.1:c.806-8579C>T
p1445
asg23
(lp1446
ssg28
I99258139
sg29
(lp1447
(dp1448
g32
VCYP3A5
p1449
sg34
VPA131
p1450
sa(dp1451
g32
VZSCAN25
p1452
sg34
VPA134962723
p1453
sasg36
(dp1454
g38
(lp1455
g40
(g41
g42
Ntp1456
Rp1457
(dp1458
g46
g47
sg48
g49
sbag40
(g41
g42
Ntp1459
Rp1460
(dp1461
g46
g47
sg48
g93
sbasg50
S'0/1'
p1462
sg52
g95
ssg23
S'rs28383479'
p1463
sa(dp1464
g2
(dp1465
g4
(lp1466
VNC_000007.13:g.99262835C>T
p1467
aVNC_000007.14:g.99665212C>T
p1468
aVNG_007938.1:g.19787G>A
p1469
asg9
(lp1470
VNP_000768.1:p.Lys208=
p1471
aVNP_001278758.1:p.Lys95=
p1472
aVNP_001278759.1:p.Lys198=
p1473
aVXP_005250226.1:p.Lys198=
p1474
aVXP_005250227.1:p.Lys95=
p1475
aVXP_005250228.1:p.Lys95=
p1476
aVXP_005250229.1:p.Lys95=
p1477
aVXP_005250230.1:p.Lys28=
p1478
aVXP_006715922.1:p.Lys208=
p1479
aVXP_011514145.1:p.Lys95=
p1480
aVXP_011514146.1:p.Lys95=
p1481
aVXP_011514147.1:p.Lys28=
p1482
aVXP_011514148.1:p.Lys28=
p1483
aVXP_011514149.1:p.Lys28=
p1484
asg15
(lp1485
VNR_033807.2:n.1273G>A
p1486
aVNR_033808.1:n.1226G>A
p1487
aVNR_033809.1:n.986G>A
p1488
aVNR_033810.1:n.1226G>A
p1489
aVNR_033811.1:n.975G>A
p1490
aVNR_033812.1:n.867G>A
p1491
aVXR_927402.1:n.1466+41032C>T
p1492
asg17
(lp1493
VNM_000777.4:c.624G>A
p1494
aVNM_001291829.1:c.285G>A
p1495
aVNM_001291830.1:c.594G>A
p1496
aVXM_005250169.1:c.594G>A
p1497
aVXM_005250170.1:c.285G>A
p1498
aVXM_005250171.1:c.285G>A
p1499
aVXM_005250172.1:c.285G>A
p1500
aVXM_005250173.1:c.84G>A
p1501
aVXM_005250198.1:c.806-11992C>T
p1502
aVXM_006715859.2:c.624G>A
p1503
aVXM_011515843.1:c.285G>A
p1504
aVXM_011515844.1:c.285G>A
p1505
aVXM_011515845.1:c.84G>A
p1506
aVXM_011515846.1:c.84G>A
p1507
aVXM_011515847.1:c.84G>A
p1508
aVXM_011515909.1:c.806-3883C>T
p1509
asg23
(lp1510
Vrs58867275
p1511
assg28
I99262835
sg29
(lp1512
(dp1513
g32
VCYP3A5
p1514
sg34
VPA131
p1515
sa(dp1516
g32
VZSCAN25
p1517
sg34
VPA134962723
p1518
sasg36
(dp1519
g38
(lp1520
g40
(g41
g42
Ntp1521
Rp1522
(dp1523
g46
g47
sg48
g53
sbasg50
S'0/1'
p1524
sg52
g95
ssg23
S'rs10264272'
p1525
sa(dp1526
g2
(dp1527
g4
(lp1528
VNC_000007.13:g.99270539C>T
p1529
aVNC_000007.14:g.99672916T>C
p1530
aVNG_007938.1:g.12083G=
p1531
aVNG_007938.1:g.12083G>A
p1532
asg9
(lp1533
sg15
(lp1534
VNR_033807.2:n.717-1A>G
p1535
aVNR_033807.2:n.717-1G>A
p1536
aVNR_033808.1:n.689-1G>A
p1537
aVNR_033809.1:n.581-237G>A
p1538
aVNR_033810.1:n.689-1G>A
p1539
aVNR_033811.1:n.321-1G>A
p1540
aVNR_033812.1:n.321-1G>A
p1541
aVXR_927383.1:n.344-237A>G
p1542
aVXR_927402.1:n.1466+48736T>C
p1543
asg17
(lp1544
VNM_000777.4:c.219-237A>G
p1545
aVNM_000777.4:c.219-237G>A
p1546
aVNM_001190484.2:c.219-237A>G
p1547
aVNM_001190484.2:c.219-237G>A
p1548
aVNM_001291829.1:c.-253-1A>G
p1549
aVNM_001291829.1:c.-253-1G>A
p1550
aVNM_001291830.1:c.189-237A>G
p1551
aVNM_001291830.1:c.189-237G>A
p1552
aVXM_005250169.1:c.189-237G>A
p1553
aVXM_005250170.1:c.-357-1G>A
p1554
aVXM_005250171.1:c.-253-1G>A
p1555
aVXM_005250172.1:c.-254G>A
p1556
aVXM_005250173.1:c.-331-237G>A
p1557
aVXM_005250198.1:c.806-4288C>T
p1558
aVXM_006715859.2:c.219-237A>G
p1559
aVXM_011515843.1:c.-254A>G
p1560
aVXM_011515844.1:c.-229-237A>G
p1561
aVXM_011515845.1:c.-463-1A>G
p1562
aVXM_011515846.1:c.-331-237A>G
p1563
aVXM_011515847.1:c.-571-1A>G
p1564
asg23
(lp1565
Vrs10361242
p1566
aVrs11266830
p1567
aVrs386613022
p1568
aVrs58244770
p1569
assg28
I99270539
sg29
(lp1570
(dp1571
g32
VCYP3A
p1572
sg34
VPA27114
p1573
sa(dp1574
g32
VCYP3A5
p1575
sg34
VPA131
p1576
sa(dp1577
g32
VZSCAN25
p1578
sg34
VPA134962723
p1579
sasg36
(dp1580
g38
(lp1581
g40
(g41
g42
Ntp1582
Rp1583
(dp1584
g46
g47
sg48
g49
sbag40
(g41
g42
Ntp1585
Rp1586
(dp1587
g46
g47
sg48
g93
sbasg50
S'0/1'
p1588
sg52
g95
ssg23
S'rs776746'
p1589
sa(dp1590
g2
(dp1591
g4
(lp1592
VNC_000007.13:g.99273815G>A
p1593
aVNC_000007.14:g.99676192G>A
p1594
aVNG_007938.1:g.8807C>T
p1595
asg9
(lp1596
VNP_000768.1:p.His30Tyr
p1597
aVNP_001177413.1:p.His30Tyr
p1598
aVNP_001278759.1:p.His20Tyr
p1599
aVXP_005250226.1:p.His20Tyr
p1600
aVXP_006715922.1:p.His30Tyr
p1601
asg15
(lp1602
VNR_033807.2:n.586C>T
p1603
aVNR_033808.1:n.558C>T
p1604
aVNR_033809.1:n.450C>T
p1605
aVNR_033810.1:n.558C>T
p1606
aVNR_033811.1:n.190C>T
p1607
aVNR_033812.1:n.190C>T
p1608
aVXR_927383.1:n.213C>T
p1609
aVXR_927402.1:n.1467-47283G>A
p1610
asg17
(lp1611
VNM_000777.4:c.88C>T
p1612
aVNM_001190484.2:c.88C>T
p1613
aVNM_001291829.1:c.-384C>T
p1614
aVNM_001291830.1:c.58C>T
p1615
aVXM_005250169.1:c.58C>T
p1616
aVXM_005250170.1:c.-488C>T
p1617
aVXM_005250171.1:c.-384C>T
p1618
aVXM_005250172.1:c.-402C>T
p1619
aVXM_005250173.1:c.-462C>T
p1620
aVXM_005250198.1:c.806-1012G>A
p1621
aVXM_006715859.2:c.88C>T
p1622
aVXM_011515843.1:c.-402C>T
p1623
aVXM_011515844.1:c.-360C>T
p1624
aVXM_011515845.1:c.-594C>T
p1625
aVXM_011515846.1:c.-462C>T
p1626
aVXM_011515847.1:c.-702C>T
p1627
asg23
(lp1628
Vrs59353336
p1629
assg28
I99273815
sg29
(lp1630
(dp1631
g32
VCYP3A5
p1632
sg34
VPA131
p1633
sa(dp1634
g32
VZSCAN25
p1635
sg34
VPA134962723
p1636
sasg36
(dp1637
g38
(lp1638
g40
(g41
g42
Ntp1639
Rp1640
(dp1641
g46
g47
sg48
g95
sbag40
(g41
g42
Ntp1642
Rp1643
(dp1644
g46
g47
sg48
g53
sbasg50
S'0/1'
p1645
sg52
g93
ssg23
S'rs28383468'
p1646
sa(dp1647
g2
(dp1648
g4
(lp1649
VNC_000007.13:g.99273821G>A
p1650
aVNC_000007.14:g.99676198G>A
p1651
aVNG_007938.1:g.8801C>T
p1652
asg9
(lp1653
VNP_000768.1:p.Arg28Cys
p1654
aVNP_001177413.1:p.Arg28Cys
p1655
aVNP_001278759.1:p.Arg18Cys
p1656
aVXP_005250226.1:p.Arg18Cys
p1657
aVXP_006715922.1:p.Arg28Cys
p1658
asg15
(lp1659
VNR_033807.2:n.580C>T
p1660
aVNR_033808.1:n.552C>T
p1661
aVNR_033809.1:n.444C>T
p1662
aVNR_033810.1:n.552C>T
p1663
aVNR_033811.1:n.184C>T
p1664
aVNR_033812.1:n.184C>T
p1665
aVXR_927383.1:n.207C>T
p1666
aVXR_927402.1:n.1467-47277G>A
p1667
asg17
(lp1668
VNM_000777.4:c.82C>T
p1669
aVNM_001190484.2:c.82C>T
p1670
aVNM_001291829.1:c.-390C>T
p1671
aVNM_001291830.1:c.52C>T
p1672
aVXM_005250169.1:c.52C>T
p1673
aVXM_005250170.1:c.-494C>T
p1674
aVXM_005250171.1:c.-390C>T
p1675
aVXM_005250172.1:c.-408C>T
p1676
aVXM_005250173.1:c.-468C>T
p1677
aVXM_005250198.1:c.806-1006G>A
p1678
aVXM_006715859.2:c.82C>T
p1679
aVXM_011515843.1:c.-408C>T
p1680
aVXM_011515844.1:c.-366C>T
p1681
aVXM_011515845.1:c.-600C>T
p1682
aVXM_011515846.1:c.-468C>T
p1683
aVXM_011515847.1:c.-708C>T
p1684
asg23
(lp1685
ssg28
I99273821
sg29
(lp1686
(dp1687
g32
VCYP3A5
p1688
sg34
VPA131
p1689
sa(dp1690
g32
VZSCAN25
p1691
sg34
VPA134962723
p1692
sasg36
(dp1693
g38
(lp1694
g40
(g41
g42
Ntp1695
Rp1696
(dp1697
g46
g47
sg48
g49
sbasg50
S'0/1'
p1698
sg52
g93
ssg23
S'rs55817950'
p1699
sa(dp1700
g2
(dp1701
g4
(lp1702
VNC_000007.13:g.99332978A>T
p1703
aVNC_000007.14:g.99735355A>T
p1704
aVNG_007983.1:g.4844T>A
p1705
asg9
(lp1706
sg15
(lp1707
VXR_927402.1:n.1788-1337A>T
p1708
asg17
(lp1709
VNM_000765.4:c.-262T>A
p1710
aVNM_001256497.2:c.-262T>A
p1711
aVXM_005250168.1:c.-262T>A
p1712
asg23
(lp1713
ssg28
I99332978
sg29
(lp1714
(dp1715
g32
S'ZSCAN25'
p1716
sg34
S'221785'
p1717
sasg36
(dp1718
g38
(lp1719
g40
(g41
g42
Ntp1720
Rp1721
(dp1722
g46
g47
sg48
g53
sbasg50
S'0/1'
p1723
sg52
g49
ssg23
S'rs11568826'
p1724
sa(dp1725
g2
(dp1726
g4
(lp1727
VNC_000007.13:g.99358524A>G
p1728
aVNC_000007.14:g.99760901A>G
p1729
aVNG_008421.1:g.28285T>C
p1730
asg9
(lp1731
VNP_001189784.1:p.Met444Thr
p1732
aVNP_059488.2:p.Met445Thr
p1733
aVXP_011514143.1:p.Met476Thr
p1734
aVXP_011514144.1:p.Met475Thr
p1735
asg15
(lp1736
sg17
(lp1737
VNM_001202855.2:c.1331T>C
p1738
aVNM_017460.5:c.1334T>C
p1739
aVXM_011515841.1:c.1427T>C
p1740
aVXM_011515842.1:c.1424T>C
p1741
asg23
(lp1742
Vrs386597005
p1743
aVrs60835115
p1744
assg28
I99358524
sg29
(lp1745
(dp1746
g32
VCYP3A
p1747
sg34
VPA27114
p1748
sa(dp1749
g32
VCYP3A4
p1750
sg34
VPA130
p1751
sasg36
(dp1752
g38
(lp1753
g40
(g41
g42
Ntp1754
Rp1755
(dp1756
g46
g47
sg48
g95
sbag40
(g41
g42
Ntp1757
Rp1758
(dp1759
g46
g47
sg48
g53
sbasg50
S'0/1'
p1760
sg52
g49
ssg23
S'rs4986910'
p1761
sa(dp1762
g2
(dp1763
g4
(lp1764
VNC_000007.13:g.99359670G>A
p1765
aVNC_000007.14:g.99762047G>A
p1766
aVNG_008421.1:g.27139C>T
p1767
asg9
(lp1768
VNP_001189784.1:p.Pro415Leu
p1769
aVNP_059488.2:p.Pro416Leu
p1770
aVXP_011514143.1:p.Pro416Leu
p1771
aVXP_011514144.1:p.Pro415Leu
p1772
asg15
(lp1773
sg17
(lp1774
VNM_001202855.2:c.1244C>T
p1775
aVNM_017460.5:c.1247C>T
p1776
aVXM_011515841.1:c.1247C>T
p1777
aVXM_011515842.1:c.1244C>T
p1778
asg23
(lp1779
Vrs386597004
p1780
assg28
I99359670
sg29
(lp1781
(dp1782
g32
VCYP3A
p1783
sg34
VPA27114
p1784
sa(dp1785
g32
VCYP3A4
p1786
sg34
VPA130
p1787
sasg36
(dp1788
g38
(lp1789
g40
(g41
g42
Ntp1790
Rp1791
(dp1792
g46
g47
sg48
g95
sbag40
(g41
g42
Ntp1793
Rp1794
(dp1795
g46
g47
sg48
g53
sbasg50
S'0/1'
p1796
sg52
g93
ssg23
S'rs4986909'
p1797
sa(dp1798
g2
(dp1799
g4
(lp1800
VNC_000007.13:g.99359800G>A
p1801
aVNC_000007.14:g.99762177G>A
p1802
aVNG_008421.1:g.27009C>T
p1803
asg9
(lp1804
VNP_001189784.1:p.Leu372Phe
p1805
aVNP_059488.2:p.Leu373Phe
p1806
aVXP_011514143.1:p.Leu373Phe
p1807
aVXP_011514144.1:p.Leu372Phe
p1808
asg15
(lp1809
sg17
(lp1810
VNM_001202855.2:c.1114C>T
p1811
aVNM_017460.5:c.1117C>T
p1812
aVXM_011515841.1:c.1117C>T
p1813
aVXM_011515842.1:c.1114C>T
p1814
asg23
(lp1815
Vrs45614732
p1816
assg28
I99359800
sg29
(lp1817
(dp1818
g32
VCYP3A4
p1819
sg34
VPA130
p1820
sasg36
(dp1821
g38
(lp1822
g40
(g41
g42
Ntp1823
Rp1824
(dp1825
g46
g47
sg48
g95
sbag40
(g41
g42
Ntp1826
Rp1827
(dp1828
g46
g47
sg48
g53
sbasg50
S'0/1'
p1829
sg52
g93
ssg23
S'rs12721629'
p1830
sa(dp1831
g2
(dp1832
g4
(lp1833
VNC_000007.13:g.99359829G>A
p1834
aVNC_000007.14:g.99762206G>A
p1835
aVNG_008421.1:g.26980C>T
p1836
asg9
(lp1837
VNP_001189784.1:p.Thr362Met
p1838
aVNP_059488.2:p.Thr363Met
p1839
aVXP_011514143.1:p.Thr363Met
p1840
aVXP_011514144.1:p.Thr362Met
p1841
asg15
(lp1842
sg17
(lp1843
VNM_001202855.2:c.1085C>T
p1844
aVNM_017460.5:c.1088C>T
p1845
aVXM_011515841.1:c.1088C>T
p1846
aVXM_011515842.1:c.1085C>T
p1847
asg23
(lp1848
Vrs67784356
p1849
assg28
I99359829
sg29
(lp1850
(dp1851
g32
VCYP3A4
p1852
sg34
VPA130
p1853
sasg36
(dp1854
g38
(lp1855
g40
(g41
g42
Ntp1856
Rp1857
(dp1858
g46
g47
sg48
g49
sbag40
(g41
g42
Ntp1859
Rp1860
(dp1861
g46
g47
sg48
g53
sbasg50
S'0/1'
p1862
sg52
g93
ssg23
S'rs67784355'
p1863
sa(dp1864
g2
(dp1865
g4
(lp1866
VNC_000007.13:g.99361626A>G
p1867
aVNC_000007.14:g.99764003A>G
p1868
aVNG_008421.1:g.25183T>C
p1869
asg9
(lp1870
VNP_001189784.1:p.Leu292Pro
p1871
aVNP_059488.2:p.Leu293Pro
p1872
aVXP_011514143.1:p.Leu293Pro
p1873
aVXP_011514144.1:p.Leu292Pro
p1874
asg15
(lp1875
sg17
(lp1876
VNM_001202855.2:c.875T>C
p1877
aVNM_017460.5:c.878T>C
p1878
aVXM_011515841.1:c.878T>C
p1879
aVXM_011515842.1:c.875T>C
p1880
asg23
(lp1881
Vrs386574775
p1882
aVrs60608883
p1883
assg28
I99361626
sg29
(lp1884
(dp1885
g32
VCYP3A4
p1886
sg34
VPA130
p1887
sasg36
(dp1888
g38
(lp1889
g40
(g41
g42
Ntp1890
Rp1891
(dp1892
g46
g47
sg48
g95
sbag40
(g41
g42
Ntp1893
Rp1894
(dp1895
g46
g47
sg48
g53
sbasg50
S'0/1'
p1896
sg52
g49
ssg23
S'rs28371759'
p1897
sa(dp1898
g2
(dp1899
g4
(lp1900
VNC_000007.14:g.99766440G>A
p1901
aVNC_000007.13:g.99364063G>A
p1902
aVNG_008421.1:g.22746C>T
p1903
asg9
(lp1904
VNP_059488.2:p.Arg268Ter
p1905
aVNP_001189784.1:p.Arg267Ter
p1906
aVXP_011514143.1:p.Arg268Ter
p1907
aVXP_011514144.1:p.Arg267Ter
p1908
asg15
(lp1909
sg17
(lp1910
VNM_001202855.2:c.799C>T
p1911
aVNM_017460.5:c.802C>T
p1912
aVXM_011515841.1:c.802C>T
p1913
aVXM_011515842.1:c.799C>T
p1914
asg23
(lp1915
ssg28
I99364063
sg29
(lp1916
(dp1917
g32
S'CYP3A4'
p1918
sg34
S'1576'
p1919
sasg36
(dp1920
g38
(lp1921
g40
(g41
g42
Ntp1922
Rp1923
(dp1924
g46
g47
sg48
g49
sbag40
(g41
g42
Ntp1925
Rp1926
(dp1927
g46
g47
sg48
g53
sbasg50
S'0/1'
p1928
sg52
g93
ssg23
S'rs138105638'
p1929
sa(dp1930
g2
(dp1931
g4
(lp1932
VNC_000007.13:g.99365983A>G
p1933
aVNC_000007.14:g.99768360A>G
p1934
aVNG_008421.1:g.20826T>C
p1935
asg9
(lp1936
VNP_001189784.1:p.Ser222Pro
p1937
aVNP_059488.2:p.Ser222Pro
p1938
aVXP_011514143.1:p.Ser222Pro
p1939
aVXP_011514144.1:p.Ser222Pro
p1940
asg15
(lp1941
sg17
(lp1942
VNM_001202855.2:c.664T>C
p1943
aVNM_017460.5:c.664T>C
p1944
aVXM_011515841.1:c.664T>C
p1945
aVXM_011515842.1:c.664T>C
p1946
asg23
(lp1947
ssg28
I99365983
sg29
(lp1948
(dp1949
g32
VCYP3A4
p1950
sg34
VPA130
p1951
sasg36
(dp1952
g38
(lp1953
g40
(g41
g42
Ntp1954
Rp1955
(dp1956
g46
g47
sg48
g93
sbasg50
S'0/1'
p1957
sg52
g49
ssg23
S'rs55785340'
p1958
sa(dp1959
g2
(dp1960
g4
(lp1961
VNC_000007.13:g.99366081A>G
p1962
aVNC_000007.14:g.99768458A>G
p1963
aVNG_008421.1:g.20728T>C
p1964
asg9
(lp1965
VNP_001189784.1:p.Phe189Ser
p1966
aVNP_059488.2:p.Phe189Ser
p1967
aVXP_011514143.1:p.Phe189Ser
p1968
aVXP_011514144.1:p.Phe189Ser
p1969
asg15
(lp1970
sg17
(lp1971
VNM_001202855.2:c.566T>C
p1972
aVNM_017460.5:c.566T>C
p1973
aVXM_011515841.1:c.566T>C
p1974
aVXM_011515842.1:c.566T>C
p1975
asg23
(lp1976
ssg28
I99366081
sg29
(lp1977
(dp1978
g32
VCYP3A
p1979
sg34
VPA27114
p1980
sa(dp1981
g32
VCYP3A4
p1982
sg34
VPA130
p1983
sasg36
(dp1984
g38
(lp1985
g40
(g41
g42
Ntp1986
Rp1987
(dp1988
g46
g47
sg48
g95
sbag40
(g41
g42
Ntp1989
Rp1990
(dp1991
g46
g47
sg48
g53
sbasg50
S'0/1'
p1992
sg52
g49
ssg23
S'rs4987161'
p1993
sa(dp1994
g2
(dp1995
g4
(lp1996
VNC_000007.13:g.99366093G>C
p1997
aVNC_000007.14:g.99768470G>C
p1998
aVNG_008421.1:g.20716C>G
p1999
asg9
(lp2000
VNP_001189784.1:p.Thr185Ser
p2001
aVNP_059488.2:p.Thr185Ser
p2002
aVXP_011514143.1:p.Thr185Ser
p2003
aVXP_011514144.1:p.Thr185Ser
p2004
asg15
(lp2005
sg17
(lp2006
VNM_001202855.2:c.554C>G
p2007
aVNM_017460.5:c.554C>G
p2008
aVXM_011515841.1:c.554C>G
p2009
aVXM_011515842.1:c.554C>G
p2010
asg23
(lp2011
Vrs28371754
p2012
aVrs56915287
p2013
assg28
I99366093
sg29
(lp2014
(dp2015
g32
VCYP3A
p2016
sg34
VPA27114
p2017
sa(dp2018
g32
VCYP3A4
p2019
sg34
VPA130
p2020
sasg36
(dp2021
g38
(lp2022
g40
(g41
g42
Ntp2023
Rp2024
(dp2025
g46
g47
sg48
g95
sbasg50
S'0/1'
p2026
sg52
g93
ssg23
S'rs12721627'
p2027
sa(dp2028
g2
(dp2029
g4
(lp2030
VNC_000007.13:g.99366316G>A
p2031
aVNC_000007.14:g.99768693G>A
p2032
aVNG_008421.1:g.20493C>T
p2033
asg9
(lp2034
sg15
(lp2035
sg17
(lp2036
VNM_001202855.2:c.522-191C>T
p2037
aVNM_017460.5:c.522-191C>T
p2038
aVXM_011515841.1:c.522-191C>T
p2039
aVXM_011515842.1:c.522-191C>T
p2040
asg23
(lp2041
Vrs45581939
p2042
aVrs62471940
p2043
assg28
I99366316
sg29
(lp2044
(dp2045
g32
VCYP3A
p2046
sg34
VPA27114
p2047
sa(dp2048
g32
VCYP3A4
p2049
sg34
VPA130
p2050
sasg36
(dp2051
g38
(lp2052
g40
(g41
g42
Ntp2053
Rp2054
(dp2055
g46
g47
sg48
g95
sbag40
(g41
g42
Ntp2056
Rp2057
(dp2058
g46
g47
sg48
g53
sbasg50
S'0/1'
p2059
sg52
g93
ssg23
S'rs35599367'
p2060
sa(dp2061
g2
(dp2062
g4
(lp2063
VNC_000007.13:g.99367788C>T
p2064
aVNC_000007.14:g.99770165C>T
p2065
aVNG_008421.1:g.19021G>A
p2066
asg9
(lp2067
VNP_001189784.1:p.Arg130Gln
p2068
aVNP_059488.2:p.Arg130Gln
p2069
aVXP_011514143.1:p.Arg130Gln
p2070
aVXP_011514144.1:p.Arg130Gln
p2071
asg15
(lp2072
sg17
(lp2073
VNM_001202855.2:c.389G>A
p2074
aVNM_017460.5:c.389G>A
p2075
aVXM_011515841.1:c.389G>A
p2076
aVXM_011515842.1:c.389G>A
p2077
asg23
(lp2078
ssg28
I99367788
sg29
(lp2079
(dp2080
g32
VCYP3A4
p2081
sg34
VPA130
p2082
sasg36
(dp2083
g38
(lp2084
g40
(g41
g42
Ntp2085
Rp2086
(dp2087
g46
g47
sg48
g53
sbasg50
S'0/1'
p2088
sg52
g95
ssg23
S'rs72552799'
p2089
sa(dp2090
g2
(dp2091
g4
(lp2092
VNC_000007.13:g.99382096C>T
p2093
aVNC_000007.14:g.99784473C>T
p2094
aVNG_008421.1:g.4713G>A
p2095
asg9
(lp2096
sg15
(lp2097
sg17
(lp2098
VNM_001202855.2:c.-392G>A
p2099
aVNM_017460.5:c.-392G>A
p2100
aVXM_011515841.1:c.-392G>A
p2101
aVXM_011515842.1:c.-392G>A
p2102
asg23
(lp2103
Vrs3176920
p2104
aVrs36231114
p2105
aVrs59393892
p2106
assg28
I99382096
sg29
(lp2107
(dp2108
g32
VCYP3A
p2109
sg34
VPA27114
p2110
sa(dp2111
g32
VCYP3A4
p2112
sg34
VPA130
p2113
sasg36
(dp2114
g38
(lp2115
g40
(g41
g42
Ntp2116
Rp2117
(dp2118
g46
g47
sg48
g49
sbag40
(g41
g42
Ntp2119
Rp2120
(dp2121
g46
g47
sg48
g93
sbasg50
S'0/1'
p2122
sg52
g95
ssg23
S'rs2740574'
p2123
sa(dp2124
g2
(dp2125
g4
(lp2126
VNC_000010.10:g.96521657C>T
p2127
aVNC_000010.11:g.94761900C>T
p2128
aVNG_008384.2:g.4195C>T
p2129
asg9
(lp2130
sg15
(lp2131
sg17
(lp2132
VNM_000769.2:c.-806C>T
p2133
asg23
(lp2134
Vrs117093607
p2135
aVrs17442305
p2136
aVrs17879736
p2137
assg28
I96521657
sg29
(lp2138
(dp2139
g32
VCYP2C19
p2140
sg34
VPA124
p2141
sasg36
(dp2142
g38
(lp2143
g40
(g41
g42
Ntp2144
Rp2145
(dp2146
g46
g47
sg48
g49
sbag40
(g41
g42
Ntp2147
Rp2148
(dp2149
g46
g47
sg48
g53
sbasg50
S'0/1'
p2150
sg52
g95
ssg23
S'rs12248560'
p2151
sa(dp2152
g2
(dp2153
g4
(lp2154
VNC_000010.10:g.96522463A>G
p2155
aVNC_000010.11:g.94762706A>G
p2156
aVNG_008384.2:g.5001A>G
p2157
asg9
(lp2158
VNP_000760.1:p.Met1Val
p2159
asg15
(lp2160
sg17
(lp2161
VNM_000769.1:c.1A>G
p2162
aVNM_000769.2:c.1A>G
p2163
asg23
(lp2164
ssg28
I96522463
sg29
(lp2165
(dp2166
g32
VCYP2C19
p2167
sg34
VPA124
p2168
sasg36
(dp2169
g38
(lp2170
g40
(g41
g42
Ntp2171
Rp2172
(dp2173
g46
g47
sg48
g93
sbag40
(g41
g42
Ntp2174
Rp2175
(dp2176
g46
g47
sg48
g53
sbasg50
S'0/1'
p2177
sg52
g49
ssg23
S'rs28399504'
p2178
sa(dp2179
g2
(dp2180
g4
(lp2181
VNC_000010.10:g.96535173T>C
p2182
aVNC_000010.11:g.94775416T>C
p2183
aVNG_008384.2:g.17711T>C
p2184
asg9
(lp2185
VNP_000760.1:p.Trp120Arg
p2186
asg15
(lp2187
sg17
(lp2188
VNM_000769.1:c.358T>C
p2189
aVNM_000769.2:c.358T>C
p2190
asg23
(lp2191
ssg28
I96535173
sg29
(lp2192
(dp2193
g32
VCYP2C19
p2194
sg34
VPA124
p2195
sasg36
(dp2196
g38
(lp2197
g40
(g41
g42
Ntp2198
Rp2199
(dp2200
g46
g47
sg48
g95
sbasg50
S'0/1'
p2201
sg52
g53
ssg23
S'rs41291556'
p2202
sa(dp2203
g2
(dp2204
g4
(lp2205
VNC_000010.10:g.96535210G>A
p2206
aVNC_000010.11:g.94775453G>A
p2207
aVNG_008384.2:g.17748G>A
p2208
asg9
(lp2209
VNP_000760.1:p.Arg132Gln
p2210
asg15
(lp2211
sg17
(lp2212
VNM_000769.1:c.395G>A
p2213
aVNM_000769.2:c.395G>A
p2214
asg23
(lp2215
ssg28
I96535210
sg29
(lp2216
(dp2217
g32
VCYP2C19
p2218
sg34
VPA124
p2219
sasg36
(dp2220
g38
(lp2221
g40
(g41
g42
Ntp2222
Rp2223
(dp2224
g46
g47
sg48
g49
sbasg50
S'0/1'
p2225
sg52
g93
ssg23
S'rs72552267'
p2226
sa(dp2227
g2
(dp2228
g4
(lp2229
VNC_000010.10:g.96535246G>A
p2230
aVNC_000010.10:g.96535246G>C
p2231
aVNC_000010.11:g.94775489G>A
p2232
aVNC_000010.11:g.94775489G>C
p2233
aVNG_008384.2:g.17784G>A
p2234
aVNG_008384.2:g.17784G>C
p2235
asg9
(lp2236
VNP_000760.1:p.Arg144His
p2237
aVNP_000760.1:p.Arg144Pro
p2238
asg15
(lp2239
sg17
(lp2240
VNM_000769.1:c.431G>A
p2241
aVNM_000769.1:c.431G>C
p2242
aVNM_000769.2:c.431G>A
p2243
aVNM_000769.2:c.431G>C
p2244
asg23
(lp2245
Vrs59525653
p2246
assg28
I96535246
sg29
(lp2247
(dp2248
g32
VCYP2C19
p2249
sg34
VPA124
p2250
sasg36
(dp2251
g38
(lp2252
g40
(g41
g42
Ntp2253
Rp2254
(dp2255
g46
g47
sg48
g49
sbasg50
S'0/1'
p2256
sg52
g93
ssg23
S'rs17884712'
p2257
sa(dp2258
g2
(dp2259
g4
(lp2260
VNC_000010.10:g.96540410G>A
p2261
aVNC_000010.11:g.94780653G>A
p2262
aVNG_008384.2:g.22948G>A
p2263
asg9
(lp2264
VNP_000760.1:p.Trp212Ter
p2265
asg15
(lp2266
sg17
(lp2267
VNM_000769.2:c.636G>A
p2268
asg23
(lp2269
Vrs52827375
p2270
aVrs57081121
p2271
assg28
I96540410
sg29
(lp2272
(dp2273
g32
VCYP2C19
p2274
sg34
VPA124
p2275
sasg36
(dp2276
g38
(lp2277
g40
(g41
g42
Ntp2278
Rp2279
(dp2280
g46
g47
sg48
g49
sbasg50
S'0/1'
p2281
sg52
g93
ssg23
S'rs4986893'
p2282
sa(dp2283
g2
(dp2284
g4
(lp2285
VNC_000010.10:g.96541615C>T
p2286
aVNC_000010.11:g.94781858C>T
p2287
aVNG_008384.2:g.24153C>T
p2288
asg9
(lp2289
VNP_000760.1:p.Pro227Leu
p2290
asg15
(lp2291
sg17
(lp2292
VNM_000769.1:c.680C>T
p2293
aVNM_000769.2:c.680C>T
p2294
asg23
(lp2295
ssg28
I96541615
sg29
(lp2296
(dp2297
g32
VCYP2C19
p2298
sg34
VPA124
p2299
sasg36
(dp2300
g38
(lp2301
g40
(g41
g42
Ntp2302
Rp2303
(dp2304
g46
g47
sg48
g53
sbasg50
S'0/1'
p2305
sg52
g95
ssg23
S'rs6413438'
p2306
sa(dp2307
g2
(dp2308
g4
(lp2309
VNC_000010.10:g.96541616G>A
p2310
aVNC_000010.11:g.94781859G>A
p2311
aVNG_008384.2:g.24154G>A
p2312
asg9
(lp2313
VNP_000760.1:p.Pro227=
p2314
asg15
(lp2315
sg17
(lp2316
VNM_000769.1:c.681G>A
p2317
aVNM_000769.2:c.681G>A
p2318
asg23
(lp2319
Vrs116940633
p2320
aVrs17879456
p2321
aVrs60361278
p2322
assg28
I96541616
sg29
(lp2323
(dp2324
g32
VCYP2C19
p2325
sg34
VPA124
p2326
sasg36
(dp2327
g38
(lp2328
g40
(g41
g42
Ntp2329
Rp2330
(dp2331
g46
g47
sg48
g49
sbag40
(g41
g42
Ntp2332
Rp2333
(dp2334
g46
g47
sg48
g95
sbasg50
S'0/1'
p2335
sg52
g93
ssg23
S'rs4244285'
p2336
sa(dp2337
g2
(dp2338
g4
(lp2339
VNC_000010.10:g.96541756T>A
p2340
aVNC_000010.10:g.96541756T>C
p2341
aVNC_000010.11:g.94781999T>A
p2342
aVNC_000010.11:g.94781999T>C
p2343
aVNG_008384.2:g.24294T>A
p2344
aVNG_008384.2:g.24294T>C
p2345
asg9
(lp2346
sg15
(lp2347
sg17
(lp2348
VNM_000769.1:c.819+2T>A
p2349
aVNM_000769.1:c.819+2T>C
p2350
aVNM_000769.2:c.819+2T>A
p2351
aVNM_000769.2:c.819+2T>C
p2352
asg23
(lp2353
ssg28
I96541756
sg29
(lp2354
(dp2355
g32
VCYP2C19
p2356
sg34
VPA124
p2357
sasg36
(dp2358
g38
(lp2359
g40
(g41
g42
Ntp2360
Rp2361
(dp2362
g46
g47
sg48
g49
sbag40
(g41
g42
Ntp2363
Rp2364
(dp2365
g46
g47
sg48
g95
sbasg50
S'0/1'
p2366
sg52
g53
ssg23
S'rs72558186'
p2367
sa(dp2368
g2
(dp2369
g4
(lp2370
VNC_000010.10:g.96612495C>T
p2371
aVNC_000010.11:g.94852738C>T
p2372
aVNG_008384.2:g.95033C>T
p2373
asg9
(lp2374
VNP_000760.1:p.Arg433Trp
p2375
asg15
(lp2376
sg17
(lp2377
VNM_000769.1:c.1297C>T
p2378
aVNM_000769.2:c.1297C>T
p2379
asg23
(lp2380
ssg28
I96612495
sg29
(lp2381
(dp2382
g32
VCYP2C19
p2383
sg34
VPA124
p2384
sasg36
(dp2385
g38
(lp2386
g40
(g41
g42
Ntp2387
Rp2388
(dp2389
g46
g47
sg48
g53
sbasg50
S'0/1'
p2390
sg52
g95
ssg23
S'rs56337013'
p2391
sa(dp2392
g2
(dp2393
g4
(lp2394
VNC_000010.10:g.96702047C=
p2395
aVNC_000010.10:g.96702047C>T
p2396
aVNC_000010.11:g.94942290C=
p2397
aVNC_000010.11:g.94942290C>T
p2398
aVNG_008385.1:g.8633C=
p2399
aVNG_008385.1:g.8633C>T
p2400
asg9
(lp2401
VNP_000762.2:p.Arg144=
p2402
aVNP_000762.2:p.Arg144Cys
p2403
aVXP_005269632.1:p.Arg144=
p2404
aVXP_005269632.1:p.Arg144Cys
p2405
asg15
(lp2406
sg17
(lp2407
VNM_000771.3:c.430C=
p2408
aVNM_000771.3:c.430C>T
p2409
aVXM_005269575.1:c.430C=
p2410
aVXM_005269575.1:c.430C>T
p2411
asg23
(lp2412
Vrs17110268
p2413
aVrs28371674
p2414
aVrs33968134
p2415
aVrs60690363
p2416
assg28
I96702047
sg29
(lp2417
(dp2418
g32
VCYP2C9
p2419
sg34
VPA126
p2420
sasg36
(dp2421
g38
(lp2422
g40
(g41
g42
Ntp2423
Rp2424
(dp2425
g46
g47
sg48
g53
sbasg50
S'0/1'
p2426
sg52
g95
ssg23
S'rs1799853'
p2427
sa(dp2428
g2
(dp2429
g4
(lp2430
VNC_000010.10:g.96535246G>A
p2431
aVNC_000010.10:g.96535246G>C
p2432
aVNC_000010.11:g.94775489G>A
p2433
aVNC_000010.11:g.94775489G>C
p2434
aVNG_008384.2:g.17784G>A
p2435
aVNG_008384.2:g.17784G>C
p2436
asg9
(lp2437
VNP_000760.1:p.Arg144His
p2438
aVNP_000760.1:p.Arg144Pro
p2439
asg15
(lp2440
sg17
(lp2441
VNM_000769.1:c.431G>A
p2442
aVNM_000769.1:c.431G>C
p2443
aVNM_000769.2:c.431G>A
p2444
aVNM_000769.2:c.431G>C
p2445
asg23
(lp2446
Vrs59525653
p2447
assg28
I96702048
sg29
(lp2448
(dp2449
g32
VCYP2C19
p2450
sg34
VPA124
p2451
sasg36
(dp2452
g38
(lp2453
g40
(g41
g42
Ntp2454
Rp2455
(dp2456
g46
g47
sg48
g49
sbasg50
S'0/1'
p2457
sg52
g93
ssg23
S'rs17884712'
p2458
sa(dp2459
g2
(dp2460
g4
(lp2461
VNC_000010.10:g.96709039delA
p2462
aVNC_000010.11:g.94949282delA
p2463
aVNG_008385.1:g.15625delA
p2464
asg9
(lp2465
VNP_000762.2:p.Lys273Argfs
p2466
aVXP_005269632.1:p.Lys273Argfs
p2467
asg15
(lp2468
sg17
(lp2469
VNM_000771.3:c.817delA
p2470
aVXM_005269575.1:c.817delA
p2471
asg23
(lp2472
ssg28
I96709039
sg29
(lp2473
(dp2474
g32
VCYP2C9
p2475
sg34
VPA126
p2476
sasg36
(dp2477
g38
(lp2478
g40
(g41
g42
Ntp2479
Rp2480
(dp2481
g46
g47
sg48
g49
sbasg50
S'0/1'
p2482
sg52
S'AA'
p2483
ssg23
S'rs9332131'
p2484
sa(dp2485
g2
(dp2486
g4
(lp2487
VNC_000010.10:g.96740981C>T
p2488
aVNC_000010.11:g.94981224C>T
p2489
aVNG_008385.1:g.47567C>T
p2490
asg9
(lp2491
VNP_000762.2:p.Arg335Trp
p2492
aVXP_005269632.1:p.Arg335Trp
p2493
asg15
(lp2494
sg17
(lp2495
VNM_000771.3:c.1003C>T
p2496
aVXM_005269575.1:c.1003C>T
p2497
asg23
(lp2498
Vrs60219528
p2499
assg28
I96740981
sg29
(lp2500
(dp2501
g32
VCYP2C9
p2502
sg34
VPA126
p2503
sasg36
(dp2504
g38
(lp2505
g40
(g41
g42
Ntp2506
Rp2507
(dp2508
g46
g47
sg48
g53
sbasg50
S'0/1'
p2509
sg52
g95
ssg23
S'rs28371685'
p2510
sa(dp2511
g2
(dp2512
g4
(lp2513
VNC_000010.10:g.96741053A=
p2514
aVNC_000010.10:g.96741053A>C
p2515
aVNC_000010.11:g.94981296A=
p2516
aVNC_000010.11:g.94981296A>C
p2517
aVNG_008385.1:g.47639A=
p2518
aVNG_008385.1:g.47639A>C
p2519
asg9
(lp2520
VNP_000762.2:p.Ile359=
p2521
aVNP_000762.2:p.Ile359Leu
p2522
aVXP_005269632.1:p.Ile359=
p2523
aVXP_005269632.1:p.Ile359Leu
p2524
asg15
(lp2525
sg17
(lp2526
VNM_000771.3:c.1075A=
p2527
aVNM_000771.3:c.1075A>C
p2528
aVXM_005269575.1:c.1075A=
p2529
aVXM_005269575.1:c.1075A>C
p2530
asg23
(lp2531
Vrs17847042
p2532
aVrs3198471
p2533
aVrs61212474
p2534
assg28
I96741053
sg29
(lp2535
(dp2536
g32
VCYP2C9
p2537
sg34
VPA126
p2538
sasg36
(dp2539
g38
(lp2540
g40
(g41
g42
Ntp2541
Rp2542
(dp2543
g46
g47
sg48
g95
sbasg50
S'0/1'
p2544
sg52
g49
ssg23
S'rs1057910'
p2545
sa(dp2546
g2
(dp2547
g4
(lp2548
VNC_000010.10:g.96741054T>C
p2549
aVNC_000010.11:g.94981297T>C
p2550
aVNG_008385.1:g.47640T>C
p2551
asg9
(lp2552
VNP_000762.2:p.Ile359Thr
p2553
aVXP_005269632.1:p.Ile359Thr
p2554
asg15
(lp2555
sg17
(lp2556
VNM_000771.3:c.1076T>C
p2557
aVXM_005269575.1:c.1076T>C
p2558
asg23
(lp2559
ssg28
I96741054
sg29
(lp2560
(dp2561
g32
VCYP2C9
p2562
sg34
VPA126
p2563
sasg36
(dp2564
g38
(lp2565
g40
(g41
g42
Ntp2566
Rp2567
(dp2568
g46
g47
sg48
g49
sbag40
(g41
g42
Ntp2569
Rp2570
(dp2571
g46
g47
sg48
g95
sbasg50
S'0/1'
p2572
sg52
g53
ssg23
S'rs56165452'
p2573
sa(dp2574
g2
(dp2575
g4
(lp2576
VNC_000010.10:g.96741058C>G
p2577
aVNC_000010.11:g.94981301C>G
p2578
aVNG_008385.1:g.47644C>G
p2579
asg9
(lp2580
VNP_000762.2:p.Asp360Glu
p2581
aVXP_005269632.1:p.Asp360Glu
p2582
asg15
(lp2583
sg17
(lp2584
VNM_000771.3:c.1080C>G
p2585
aVXM_005269575.1:c.1080C>G
p2586
asg23
(lp2587
Vrs57527516
p2588
assg28
I96741058
sg29
(lp2589
(dp2590
g32
VCYP2C9
p2591
sg34
VPA126
p2592
sasg36
(dp2593
g38
(lp2594
g40
(g41
g42
Ntp2595
Rp2596
(dp2597
g46
g47
sg48
g49
sbag40
(g41
g42
Ntp2598
Rp2599
(dp2600
g46
g47
sg48
g93
sbasg50
S'0/1'
p2601
sg52
g95
ssg23
S'rs28371686'
p2602
sa(dp2603
g2
(dp2604
g4
(lp2605
VNC_000010.10:g.96827030C>T
p2606
aVNC_000010.11:g.95067273C>T
p2607
aVNG_007972.1:g.7225G>A
p2608
asg9
(lp2609
VNP_000761.3:p.Arg139Lys
p2610
aVNP_001185782.1:p.Arg69Lys
p2611
aVNP_001185783.1:p.Arg37Lys
p2612
aVNP_001185784.1:p.Arg69Lys
p2613
asg15
(lp2614
VXR_246073.1:n.512G>A
p2615
aVXR_945610.1:n.512G>A
p2616
asg17
(lp2617
VNM_000770.3:c.416G>A
p2618
aVNM_001198853.1:c.206G>A
p2619
aVNM_001198854.1:c.110G>A
p2620
aVNM_001198855.1:c.206G>A
p2621
asg23
(lp2622
Vrs60090616
p2623
assg28
I96827030
sg29
(lp2624
(dp2625
g32
VCYP2C8
p2626
sg34
VPA125
p2627
sasg36
(dp2628
g38
(lp2629
g40
(g41
g42
Ntp2630
Rp2631
(dp2632
g46
g47
sg48
g49
sbag40
(g41
g42
Ntp2633
Rp2634
(dp2635
g46
g47
sg48
g93
sbasg50
S'0/1'
p2636
sg52
g95
ssg23
S'rs11572080'
p2637
sa(dp2638
g2
(dp2639
g4
(lp2640
VNC_000010.10:g.101542578C>T
p2641
aVNC_000010.11:g.99782821C>T
p2642
aVNG_011798.1:g.5116C>T
p2643
asg9
(lp2644
sg15
(lp2645
VXR_945604.1:n.166C>T
p2646
aVXR_945605.1:n.168C>T
p2647
asg17
(lp2648
VNM_000392.4:c.-24C>T
p2649
aVXM_005269536.1:c.-24C>T
p2650
aVXM_006717631.2:c.-24C>T
p2651
aVXM_011539291.1:c.-24C>T
p2652
asg23
(lp2653
Vrs17216163
p2654
aVrs386485129
p2655
aVrs58371376
p2656
assg28
I101542578
sg29
(lp2657
(dp2658
g32
VABCC2
p2659
sg34
VPA116
p2660
sasg36
(dp2661
g38
(lp2662
g40
(g41
g42
Ntp2663
Rp2664
(dp2665
g46
g47
sg48
g49
sbag40
(g41
g42
Ntp2666
Rp2667
(dp2668
g46
g47
sg48
g93
sbasg50
S'0/1'
p2669
sg52
g95
ssg23
S'rs717620'
p2670
sa(dp2671
g2
(dp2672
g4
(lp2673
VNC_000012.11:g.21331549T>C
p2674
aVNC_000012.12:g.21178615T>C
p2675
aVNG_011745.1:g.52422T>C
p2676
asg9
(lp2677
VNP_006437.3:p.Val174Ala
p2678
asg15
(lp2679
sg17
(lp2680
VNM_006446.4:c.521T>C
p2681
asg23
(lp2682
Vrs52816141
p2683
aVrs60037639
p2684
assg28
I21331549
sg29
(lp2685
(dp2686
g32
VSLCO1B1
p2687
sg34
VPA134865839
p2688
sasg36
(dp2689
g38
(lp2690
g40
(g41
g42
Ntp2691
Rp2692
(dp2693
g46
g47
sg48
g95
sbasg50
S'0/1'
p2694
sg52
g53
ssg23
S'rs4149056'
p2695
sa(dp2696
g2
(dp2697
g4
(lp2698
VNC_000013.10:g.48619855C>T
p2699
aVNC_000013.11:g.48045719C>T
p2700
asg9
(lp2701
VNP_060753.1:p.Arg139Cys
p2702
asg15
(lp2703
sg17
(lp2704
VNM_018283.2:c.415C>T
p2705
asg23
(lp2706
ssg28
I48619855
sg29
(lp2707
(dp2708
g32
VNUDT15
p2709
sg34
VPA134963132
p2710
sasg36
(dp2711
g38
(lp2712
g40
(g41
g42
Ntp2713
Rp2714
(dp2715
g46
g47
sg48
g53
sbasg50
S'0/1'
p2716
sg52
g95
ssg23
S'rs116855232'
p2717
sa(dp2718
g2
(dp2719
g4
(lp2720
VNC_000015.10:g.74745879G>A
p2721
aVNC_000015.9:g.75038220G>A
p2722
aVNG_008431.1:g.28338G>A
p2723
asg9
(lp2724
sg15
(lp2725
sg17
(lp2726
sg23
(lp2727
ssg28
I75038220
sg29
(lp2728
(dp2729
g32
VCYP1A2
p2730
sg34
VPA27093
p2731
sasg36
(dp2732
g38
(lp2733
g40
(g41
g42
Ntp2734
Rp2735
(dp2736
g46
g47
sg48
g49
sbasg50
S'0/1'
p2737
sg52
g93
ssg23
S'rs2069514'
p2738
sa(dp2739
g2
(dp2740
g4
(lp2741
VNC_000015.10:g.74749000T>G
p2742
aVNC_000015.9:g.75041341T>G
p2743
aVNG_008431.1:g.31459T>G
p2744
asg9
(lp2745
sg15
(lp2746
sg17
(lp2747
VNM_000761.3:c.-10+103T>G
p2748
aVNM_000761.4:c.-10+103T>G
p2749
asg23
(lp2750
Vrs17861148
p2751
aVrs57601484
p2752
aVrs61709032
p2753
assg28
I75041341
sg29
(lp2754
(dp2755
g32
VCYP1A2
p2756
sg34
VPA27093
p2757
sasg36
(dp2758
g38
(lp2759
g40
(g41
g42
Ntp2760
Rp2761
(dp2762
g46
g47
sg48
g93
sbasg50
S'0/1'
p2763
sg52
g53
ssg23
S'rs2069526'
p2764
sa(dp2765
g2
(dp2766
g4
(lp2767
VNC_000015.10:g.74749010C>T
p2768
aVNC_000015.9:g.75041351C>T
p2769
aVNG_008431.1:g.31469C>T
p2770
asg9
(lp2771
sg15
(lp2772
sg17
(lp2773
VNM_000761.3:c.-10+113C>T
p2774
aVNM_000761.4:c.-10+113C>T
p2775
asg23
(lp2776
Vrs59459319
p2777
assg28
I75041351
sg29
(lp2778
(dp2779
g32
VCYP1A2
p2780
sg34
VPA27093
p2781
sasg36
(dp2782
g38
(lp2783
g40
(g41
g42
Ntp2784
Rp2785
(dp2786
g46
g47
sg48
g53
sbasg50
S'0/1'
p2787
sg52
g95
ssg23
S'rs12720461'
p2788
sa(dp2789
g2
(dp2790
g4
(lp2791
VNC_000015.10:g.74749576C>A
p2792
aVNC_000015.9:g.75041917C>A
p2793
aVNG_008431.1:g.32035C>A
p2794
asg9
(lp2795
sg15
(lp2796
sg17
(lp2797
VNM_000761.3:c.-9-154C>A
p2798
aVNM_000761.4:c.-9-154C>A
p2799
asg23
(lp2800
Vrs17861151
p2801
aVrs57172993
p2802
assg28
I75041917
sg29
(lp2803
(dp2804
g32
VCYP1A2
p2805
sg34
VPA27093
p2806
sasg36
(dp2807
g38
(lp2808
g40
(g41
g42
Ntp2809
Rp2810
(dp2811
g46
g47
sg48
g49
sbasg50
S'0/1'
p2812
sg52
g95
ssg23
S'rs762551'
p2813
sa(dp2814
g2
(dp2815
g4
(lp2816
VNC_000015.10:g.74749863C>G
p2817
aVNC_000015.9:g.75042204C>G
p2818
aVNG_008431.1:g.32322C>G
p2819
asg9
(lp2820
VNP_000752.2:p.Pro42Arg
p2821
asg15
(lp2822
sg17
(lp2823
VNM_000761.3:c.125C>G
p2824
aVNM_000761.4:c.125C>G
p2825
asg23
(lp2826
ssg28
I75042204
sg29
(lp2827
(dp2828
g32
VCYP1A2
p2829
sg34
VPA27093
p2830
sasg36
(dp2831
g38
(lp2832
g40
(g41
g42
Ntp2833
Rp2834
(dp2835
g46
g47
sg48
g93
sbasg50
S'0/1'
p2836
sg52
g95
ssg23
S'rs72547511'
p2837
sa(dp2838
g2
(dp2839
g4
(lp2840
VNC_000015.10:g.74750296C>A
p2841
aVNC_000015.10:g.74750296C>T
p2842
aVNC_000015.9:g.75042637C>A
p2843
aVNC_000015.9:g.75042637C>T
p2844
aVNG_008431.1:g.32755C>A
p2845
aVNG_008431.1:g.32755C>T
p2846
asg9
(lp2847
VNP_000752.2:p.Phe186=
p2848
aVNP_000752.2:p.Phe186Leu
p2849
asg15
(lp2850
sg17
(lp2851
VNM_000761.3:c.558C>A
p2852
aVNM_000761.3:c.558C>T
p2853
aVNM_000761.4:c.558C>A
p2854
aVNM_000761.4:c.558C>T
p2855
asg23
(lp2856
ssg28
I75042637
sg29
(lp2857
(dp2858
g32
VCYP1A2
p2859
sg34
VPA27093
p2860
sasg36
(dp2861
g38
(lp2862
g40
(g41
g42
Ntp2863
Rp2864
(dp2865
g46
g47
sg48
g49
sbag40
(g41
g42
Ntp2866
Rp2867
(dp2868
g46
g47
sg48
g53
sbasg50
S'0/1'
p2869
sg52
g95
ssg23
S'rs72547513'
p2870
sa(dp2871
g2
(dp2872
g4
(lp2873
VNC_000015.10:g.74751854G>A
p2874
aVNC_000015.9:g.75044195G>A
p2875
aVNG_008431.1:g.34313G>A
p2876
asg9
(lp2877
VNP_000752.2:p.Asp348Asn
p2878
asg15
(lp2879
sg17
(lp2880
VNM_000761.3:c.1042G>A
p2881
aVNM_000761.4:c.1042G>A
p2882
asg23
(lp2883
ssg28
I75044195
sg29
(lp2884
(dp2885
g32
VCYP1A2
p2886
sg34
VPA27093
p2887
sasg36
(dp2888
g38
(lp2889
g40
(g41
g42
Ntp2890
Rp2891
(dp2892
g46
g47
sg48
g49
sbasg50
S'0/1'
p2893
sg52
g93
ssg23
S'rs56276455'
p2894
sa(dp2895
g2
(dp2896
g4
(lp2897
VNC_000015.10:g.74752211G>A
p2898
aVNC_000015.10:g.74752211G>C
p2899
aVNC_000015.9:g.75044552G>A
p2900
aVNC_000015.9:g.75044552G>C
p2901
aVNG_008431.1:g.34670G>A
p2902
aVNG_008431.1:g.34670G>C
p2903
asg9
(lp2904
VNP_000752.2:p.Arg377Gln
p2905
aVNP_000752.2:p.Arg377Pro
p2906
asg15
(lp2907
sg17
(lp2908
VNM_000761.3:c.1130G>A
p2909
aVNM_000761.3:c.1130G>C
p2910
aVNM_000761.4:c.1130G>A
p2911
aVNM_000761.4:c.1130G>C
p2912
asg23
(lp2913
ssg28
I75044552
sg29
(lp2914
(dp2915
g32
VCYP1A2
p2916
sg34
VPA27093
p2917
sasg36
(dp2918
g38
(lp2919
g40
(g41
g42
Ntp2920
Rp2921
(dp2922
g46
g47
sg48
g95
sbag40
(g41
g42
Ntp2923
Rp2924
(dp2925
g46
g47
sg48
g53
sbasg50
S'0/1'
p2926
sg52
g93
ssg23
S'rs72547515'
p2927
sa(dp2928
g2
(dp2929
g4
(lp2930
VNC_000015.10:g.74752237A>G
p2931
aVNC_000015.10:g.74752237A>T
p2932
aVNC_000015.9:g.75044578A>G
p2933
aVNC_000015.9:g.75044578A>T
p2934
aVNG_008431.1:g.34696A>G
p2935
aVNG_008431.1:g.34696A>T
p2936
asg9
(lp2937
VNP_000752.2:p.Ile386Phe
p2938
aVNP_000752.2:p.Ile386Val
p2939
asg15
(lp2940
sg17
(lp2941
VNM_000761.3:c.1156A>G
p2942
aVNM_000761.3:c.1156A>T
p2943
aVNM_000761.4:c.1156A>G
p2944
aVNM_000761.4:c.1156A>T
p2945
asg23
(lp2946
ssg28
I75044578
sg29
(lp2947
(dp2948
g32
VCYP1A2
p2949
sg34
VPA27093
p2950
sasg36
(dp2951
g38
(lp2952
g40
(g41
g42
Ntp2953
Rp2954
(dp2955
g46
g47
sg48
g93
sbag40
(g41
g42
Ntp2956
Rp2957
(dp2958
g46
g47
sg48
g53
sbasg50
S'0/1'
p2959
sg52
g49
ssg23
S'rs72547516'
p2960
sa(dp2961
g2
(dp2962
g4
(lp2963
VNC_000015.10:g.74753271G>A
p2964
aVNC_000015.9:g.75045612G>A
p2965
aVNG_008431.1:g.35730G>A
p2966
asg9
(lp2967
sg15
(lp2968
sg17
(lp2969
VNM_000761.3:c.1253+1G>A
p2970
aVNM_000761.4:c.1253+1G>A
p2971
asg23
(lp2972
Vrs57702151
p2973
assg28
I75045612
sg29
(lp2974
(dp2975
g32
VCYP1A2
p2976
sg34
VPA27093
p2977
sasg36
(dp2978
g38
(lp2979
g40
(g41
g42
Ntp2980
Rp2981
(dp2982
g46
g47
sg48
g49
sbag40
(g41
g42
Ntp2983
Rp2984
(dp2985
g46
g47
sg48
g95
sbasg50
S'0/1'
p2986
sg52
g93
ssg23
S'rs56107638'
p2987
sa(dp2988
g2
(dp2989
g4
(lp2990
VNC_000015.10:g.74754828C>T
p2991
aVNC_000015.9:g.75047169C>T
p2992
aVNG_008431.1:g.37287C>T
p2993
asg9
(lp2994
VNP_000752.2:p.Arg431Trp
p2995
asg15
(lp2996
sg17
(lp2997
VNM_000761.3:c.1291C>T
p2998
aVNM_000761.4:c.1291C>T
p2999
asg23
(lp3000
ssg28
I75047169
sg29
(lp3001
(dp3002
g32
VCYP1A2
p3003
sg34
VPA27093
p3004
sasg36
(dp3005
g38
(lp3006
g40
(g41
g42
Ntp3007
Rp3008
(dp3009
g46
g47
sg48
g53
sbasg50
S'0/1'
p3010
sg52
g95
ssg23
S'rs28399424'
p3011
sa(dp3012
g2
(dp3013
g4
(lp3014
VNC_000015.10:g.74754904G>A
p3015
aVNC_000015.9:g.75047245G>A
p3016
aVNG_008431.1:g.37363G>A
p3017
asg9
(lp3018
VNP_000752.2:p.Arg456His
p3019
asg15
(lp3020
sg17
(lp3021
VNM_000761.3:c.1367G>A
p3022
aVNM_000761.4:c.1367G>A
p3023
asg23
(lp3024
ssg28
I75047245
sg29
(lp3025
(dp3026
g32
VCYP1A2
p3027
sg34
VPA27093
p3028
sasg36
(dp3029
g38
(lp3030
g40
(g41
g42
Ntp3031
Rp3032
(dp3033
g46
g47
sg48
g49
sbasg50
S'0/1'
p3034
sg52
g93
ssg23
S'rs72547517'
p3035
sa(dp3036
g2
(dp3037
g4
(lp3038
VNC_000015.10:g.89316763C>A
p3039
aVNC_000015.9:g.89859994C>A
p3040
aVNG_008218.1:g.23033G>T
p3041
aVNG_011736.1:g.77801C>A
p3042
asg9
(lp3043
VNP_001119603.1:p.Gln1236His
p3044
aVNP_002684.1:p.Gln1236His
p3045
asg15
(lp3046
VXR_243211.1:n.4144C>A
p3047
aVXR_243212.1:n.3964C>A
p3048
asg17
(lp3049
VNM_001113378.1:c.*304C>A
p3050
aVNM_001126131.1:c.3708G>T
p3051
aVNM_002693.2:c.3708G>T
p3052
aVNM_018193.2:c.*304C>A
p3053
aVXM_005254946.1:c.*304C>A
p3054
aVXM_005254947.1:c.*304C>A
p3055
aVXM_005254948.1:c.*304C>A
p3056
aVXM_005254949.1:c.*304C>A
p3057
aVXM_005254950.1:c.*304C>A
p3058
aVXM_005254951.1:c.*304C>A
p3059
aVXM_005254952.1:c.*304C>A
p3060
aVXM_005254953.1:c.*304C>A
p3061
aVXM_011521756.1:c.*304C>A
p3062
aVXM_011521757.1:c.*304C>A
p3063
aVXM_011521758.1:c.*304C>A
p3064
aVXM_011521759.1:c.*304C>A
p3065
aVXM_011521760.1:c.*304C>A
p3066
aVXM_011521761.1:c.*304C>A
p3067
aVXM_011521762.1:c.*304C>A
p3068
aVXM_011521763.1:c.*304C>A
p3069
aVXM_011521764.1:c.*304C>A
p3070
aVXM_011521765.1:c.*304C>A
p3071
aVXM_011521766.1:c.*304C>A
p3072
aVXM_011521767.1:c.*304C>A
p3073
aVXM_011521769.1:c.*304C>A
p3074
asg23
(lp3075
Vrs17804776
p3076
aVrs3176244
p3077
aVrs386579081
p3078
aVrs61472028
p3079
assg28
I89859994
sg29
(lp3080
(dp3081
g32
VFANCI
p3082
sg34
VPA162387928
p3083
sa(dp3084
g32
VPOLG
p3085
sg34
VPA33500
p3086
sasg36
(dp3087
g38
(lp3088
g40
(g41
g42
Ntp3089
Rp3090
(dp3091
g46
g47
sg48
g93
sbag40
(g41
g42
Ntp3092
Rp3093
(dp3094
g46
g47
sg48
g53
sbasg50
S'0/1'
p3095
sg52
g95
ssg23
S'rs3087374'
p3096
sa(dp3097
g2
(dp3098
g4
(lp3099
VNC_000016.10:g.31093557G>A
p3100
aVNC_000016.9:g.31104878G>A
p3101
aVNG_011564.1:g.6399C>T
p3102
asg9
(lp3103
sg15
(lp3104
VXR_243303.1:n.823-236C>T
p3105
aVXR_950848.1:n.962-136C>T
p3106
asg17
(lp3107
VNM_001311311.1:c.174-136C>T
p3108
aVNM_024006.5:c.174-136C>T
p3109
aVNM_206824.2:c.173+1000C>T
p3110
aVXM_005255568.1:c.174-136C>T
p3111
aVXM_011545943.1:c.174-136C>T
p3112
aVXM_011545944.1:c.174-136C>T
p3113
aVXM_011545945.1:c.173+1000C>T
p3114
asg23
(lp3115
Vrs17641219
p3116
assg28
I31104878
sg29
(lp3117
(dp3118
g32
VPRSS53
p3119
sg34
VPA165450635
p3120
sa(dp3121
g32
VVKORC1
p3122
sg34
VPA133787052
p3123
sasg36
(dp3124
g38
(lp3125
g40
(g41
g42
Ntp3126
Rp3127
(dp3128
g46
g47
sg48
g49
sbasg50
S'0/1'
p3129
sg52
g93
ssg23
S'rs9934438'
p3130
sa(dp3131
g2
(dp3132
g4
(lp3133
VNC_000016.10:g.31096368C=
p3134
aVNC_000016.10:g.31096368C>T
p3135
aVNC_000016.9:g.31107689C=
p3136
aVNC_000016.9:g.31107689C>T
p3137
aVNG_011564.1:g.3588G=
p3138
aVNG_011564.1:g.3588G>A
p3139
asg9
(lp3140
sg15
(lp3141
VXR_243303.1:n.-990G=
p3142
aVXR_243303.1:n.-990G>A
p3143
aVXR_950848.1:n.-31G=
p3144
aVXR_950848.1:n.-31G>A
p3145
asg17
(lp3146
VNM_001311311.1:c.-1639G=
p3147
aVNM_001311311.1:c.-1639G>A
p3148
aVNM_024006.5:c.-1639G=
p3149
aVNM_024006.5:c.-1639G>A
p3150
aVNM_206824.2:c.-1639G=
p3151
aVNM_206824.2:c.-1639G>A
p3152
aVXM_005255568.1:c.-1639G=
p3153
aVXM_005255568.1:c.-1639G>A
p3154
aVXM_011545943.1:c.-1639G=
p3155
aVXM_011545943.1:c.-1639G>A
p3156
aVXM_011545944.1:c.-1252G=
p3157
aVXM_011545944.1:c.-1252G>A
p3158
aVXM_011545945.1:c.-1252G=
p3159
aVXM_011545945.1:c.-1252G>A
p3160
asg23
(lp3161
Vrs117572127
p3162
aVrs17878363
p3163
aVrs60511154
p3164
assg28
I31107689
sg29
(lp3165
(dp3166
g32
VBCKDK
p3167
sg34
VPA134899581
p3168
sa(dp3169
g32
VPRSS53
p3170
sg34
VPA165450635
p3171
sa(dp3172
g32
VVKORC1
p3173
sg34
VPA133787052
p3174
sasg36
(dp3175
g38
(lp3176
g40
(g41
g42
Ntp3177
Rp3178
(dp3179
g46
g47
sg48
g49
sbag40
(g41
g42
Ntp3180
Rp3181
(dp3182
g46
g47
sg48
g93
sbag40
(g41
g42
Ntp3183
Rp3184
(dp3185
g46
g47
sg48
g53
sbasg50
S'0/1'
p3186
sg52
g95
ssg23
S'rs9923231'
p3187
sa(dp3188
g2
(dp3189
g4
(lp3190
VNC_000017.10:g.19463343G>A
p3191
aVNC_000017.11:g.19560030G>A
p3192
asg9
(lp3193
sg15
(lp3194
VXR_934310.1:n.1230C>T
p3195
asg17
(lp3196
VNM_018242.2:c.922-158G>A
p3197
aVXM_005256710.1:c.922-158G>A
p3198
aVXM_005256711.1:c.808-158G>A
p3199
aVXM_005256712.1:c.922-158G>A
p3200
aVXM_005256713.1:c.853-158G>A
p3201
aVXM_005256714.1:c.922-158G>A
p3202
asg23
(lp3203
Vrs386563823
p3204
aVrs56528368
p3205
aVrs57126832
p3206
assg28
I19463343
sg29
(lp3207
(dp3208
g32
VSLC47A1
p3209
sg34
VPA162403808
p3210
sa(dp3211
g32
VSNORA59B
p3212
sg34
VPA144596299
p3213
sasg36
(dp3214
g38
(lp3215
g40
(g41
g42
Ntp3216
Rp3217
(dp3218
g46
g47
sg48
g49
sbasg50
S'0/1'
p3219
sg52
g93
ssg23
S'rs2289669'
p3220
sa(dp3221
g2
(dp3222
g4
(lp3223
VNC_000019.10:g.39248147C>T
p3224
aVNC_000019.9:g.39738787C>T
p3225
aVNG_042193.1:g.1825G>A
p3226
asg9
(lp3227
sg15
(lp3228
VNR_074079.1:n.429-152G>A
p3229
asg17
(lp3230
VNM_001276254.2:c.151-152G>A
p3231
aVXM_011526757.1:c.-1595G>A
p3232
asg23
(lp3233
ssg28
I39738787
sg29
(lp3234
(dp3235
g32
VIFNL3
p3236
sg34
VPA134952671
p3237
sa(dp3238
g32
VIFNL4
p3239
sg34
VPA166049147
p3240
sasg36
(dp3241
g38
(lp3242
g40
(g41
g42
Ntp3243
Rp3244
(dp3245
g46
g47
sg48
g53
sbasg50
S'0/1'
p3246
sg52
g95
ssg23
S'rs12979860'
p3247
sa(dp3248
g2
(dp3249
g4
(lp3250
VNC_000019.10:g.40991224T>C
p3251
aVNC_000019.9:g.41497129T>C
p3252
aVNG_007929.1:g.4926T>C
p3253
asg9
(lp3254
sg15
(lp3255
sg17
(lp3256
VNM_000767.4:c.-82T>C
p3257
aVXM_005258569.1:c.-82T>C
p3258
aVXM_005258569.3:c.-82T>C
p3259
aVXM_005258570.1:c.-82T>C
p3260
aVXM_006723050.2:c.-82T>C
p3261
aVXM_011526546.1:c.-82T>C
p3262
aVXM_011526547.1:c.-82T>C
p3263
aVXM_011526548.1:c.-82T>C
p3264
asg23
(lp3265
ssg28
I41497129
sg29
(lp3266
(dp3267
g32
VCYP2B6
p3268
sg34
VPA123
p3269
sasg36
(dp3270
g38
(lp3271
g40
(g41
g42
Ntp3272
Rp3273
(dp3274
g46
g47
sg48
g95
sbasg50
S'0/1'
p3275
sg52
g53
ssg23
S'rs34223104'
p3276
sa(dp3277
g2
(dp3278
g4
(lp3279
VNC_000019.10:g.41004377A>G
p3280
aVNC_000019.9:g.41510282A>G
p3281
aVNG_007929.1:g.18079A>G
p3282
asg9
(lp3283
VNP_000758.1:p.Lys139Glu
p3284
aVXP_005258626.1:p.Lys139Glu
p3285
aVXP_005258627.1:p.Lys139Glu
p3286
aVXP_005258628.1:p.Lys99Glu
p3287
aVXP_006723113.1:p.Lys139Glu
p3288
aVXP_011524848.1:p.Lys139Glu
p3289
aVXP_011524849.1:p.Lys139Glu
p3290
aVXP_011524850.1:p.Lys139Glu
p3291
aVXP_011524852.1:p.Lys99Glu
p3292
asg15
(lp3293
sg17
(lp3294
VNM_000767.4:c.415A>G
p3295
aVXM_005258569.1:c.415A>G
p3296
aVXM_005258569.3:c.415A>G
p3297
aVXM_005258570.1:c.415A>G
p3298
aVXM_005258571.1:c.295A>G
p3299
aVXM_006723050.2:c.415A>G
p3300
aVXM_011526546.1:c.415A>G
p3301
aVXM_011526547.1:c.415A>G
p3302
aVXM_011526548.1:c.415A>G
p3303
aVXM_011526549.1:c.-145A>G
p3304
aVXM_011526550.1:c.295A>G
p3305
asg23
(lp3306
Vrs56006122
p3307
assg28
I41510282
sg29
(lp3308
(dp3309
g32
VCYP2B6
p3310
sg34
VPA123
p3311
sasg36
(dp3312
g38
(lp3313
g40
(g41
g42
Ntp3314
Rp3315
(dp3316
g46
g47
sg48
g93
sbasg50
S'0/1'
p3317
sg52
g49
ssg23
S'rs12721655'
p3318
sa(dp3319
g2
(dp3320
g4
(lp3321
VNC_000019.10:g.41006936G>T
p3322
aVNC_000019.9:g.41512841G>T
p3323
aVNG_007929.1:g.20638G>T
p3324
asg9
(lp3325
VNP_000758.1:p.Gln172His
p3326
aVXP_005258626.1:p.Gln172His
p3327
aVXP_005258627.1:p.Gln172His
p3328
aVXP_006723113.1:p.Gln172His
p3329
aVXP_011524848.1:p.Gln172His
p3330
aVXP_011524849.1:p.Gln172His
p3331
asg15
(lp3332
sg17
(lp3333
VNM_000767.4:c.516G>T
p3334
aVXM_005258569.1:c.516G>T
p3335
aVXM_005258569.3:c.516G>T
p3336
aVXM_005258570.1:c.516G>T
p3337
aVXM_005258571.1:c.364+2490G>T
p3338
aVXM_006723050.2:c.516G>T
p3339
aVXM_011526546.1:c.516G>T
p3340
aVXM_011526547.1:c.516G>T
p3341
aVXM_011526548.1:c.484+2490G>T
p3342
aVXM_011526549.1:c.-75-1G>T
p3343
aVXM_011526550.1:c.364+2490G>T
p3344
asg23
(lp3345
Vrs56308434
p3346
aVrs57685583
p3347
assg28
I41512841
sg29
(lp3348
(dp3349
g32
VCYP2A7P1
p3350
sg34
VPA27103
p3351
sa(dp3352
g32
VCYP2B6
p3353
sg34
VPA123
p3354
sasg36
(dp3355
g38
(lp3356
g40
(g41
g42
Ntp3357
Rp3358
(dp3359
g46
g47
sg48
g49
sbag40
(g41
g42
Ntp3360
Rp3361
(dp3362
g46
g47
sg48
g53
sbasg50
S'0/1'
p3363
sg52
g93
ssg23
S'rs3745274'
p3364
sa(dp3365
g2
(dp3366
g4
(lp3367
VNC_000019.10:g.41007013T>C
p3368
aVNC_000019.9:g.41512918T>C
p3369
aVNG_007929.1:g.20715T>C
p3370
asg9
(lp3371
VNP_000758.1:p.Met198Thr
p3372
aVXP_005258626.1:p.Met198Thr
p3373
aVXP_005258627.1:p.Met198Thr
p3374
aVXP_006723113.1:p.Met198Thr
p3375
aVXP_011524848.1:p.Met198Thr
p3376
aVXP_011524849.1:p.Met198Thr
p3377
aVXP_011524851.1:p.Met1Thr
p3378
asg15
(lp3379
sg17
(lp3380
VNM_000767.4:c.593T>C
p3381
aVXM_005258569.1:c.593T>C
p3382
aVXM_005258569.3:c.593T>C
p3383
aVXM_005258570.1:c.593T>C
p3384
aVXM_005258571.1:c.364+2567T>C
p3385
aVXM_006723050.2:c.593T>C
p3386
aVXM_011526546.1:c.593T>C
p3387
aVXM_011526547.1:c.593T>C
p3388
aVXM_011526548.1:c.484+2567T>C
p3389
aVXM_011526549.1:c.2T>C
p3390
aVXM_011526550.1:c.364+2567T>C
p3391
asg23
(lp3392
ssg28
I41512918
sg29
(lp3393
(dp3394
g32
VCYP2B6
p3395
sg34
VPA123
p3396
sasg36
(dp3397
g38
(lp3398
g40
(g41
g42
Ntp3399
Rp3400
(dp3401
g46
g47
sg48
g95
sbasg50
S'0/1'
p3402
sg52
g53
ssg23
S'rs36079186'
p3403
sa(dp3404
g2
(dp3405
g4
(lp3406
VNC_000019.10:g.41012316T>C
p3407
aVNC_000019.9:g.41518221T>C
p3408
aVNG_007929.1:g.26018T>C
p3409
asg9
(lp3410
VNP_000758.1:p.Ile328Thr
p3411
aVXP_005258626.1:p.Ile328Thr
p3412
aVXP_005258627.1:p.Ile328Thr
p3413
aVXP_005258628.1:p.Ile128Thr
p3414
aVXP_006723113.1:p.Ile328Thr
p3415
aVXP_011524848.1:p.Ile328Thr
p3416
aVXP_011524849.1:p.Ile328Thr
p3417
aVXP_011524850.1:p.Ile168Thr
p3418
aVXP_011524851.1:p.Ile131Thr
p3419
aVXP_011524852.1:p.Ile128Thr
p3420
asg15
(lp3421
sg17
(lp3422
VNM_000767.4:c.983T>C
p3423
aVXM_005258569.1:c.983T>C
p3424
aVXM_005258569.3:c.983T>C
p3425
aVXM_005258570.1:c.983T>C
p3426
aVXM_005258571.1:c.383T>C
p3427
aVXM_006723050.2:c.983T>C
p3428
aVXM_011526546.1:c.983T>C
p3429
aVXM_011526547.1:c.983T>C
p3430
aVXM_011526548.1:c.503T>C
p3431
aVXM_011526549.1:c.392T>C
p3432
aVXM_011526550.1:c.383T>C
p3433
asg23
(lp3434
ssg28
I41518221
sg29
(lp3435
(dp3436
g32
VCYP2B6
p3437
sg34
VPA123
p3438
sasg36
(dp3439
g38
(lp3440
g40
(g41
g42
Ntp3441
Rp3442
(dp3443
g46
g47
sg48
g95
sbasg50
S'0/1'
p3444
sg52
g53
ssg23
S'rs28399499'
p3445
sa(dp3446
g2
(dp3447
g4
(lp3448
VNC_000019.10:g.41012465C>T
p3449
aVNC_000019.9:g.41518370C>T
p3450
aVNG_007929.1:g.26167C>T
p3451
asg9
(lp3452
VNP_000758.1:p.Arg378Ter
p3453
aVXP_005258626.1:p.Arg378Ter
p3454
aVXP_005258627.1:p.Arg378Ter
p3455
aVXP_005258628.1:p.Arg178Ter
p3456
aVXP_006723113.1:p.Arg378Ter
p3457
aVXP_011524848.1:p.Arg378Ter
p3458
aVXP_011524849.1:p.Arg378Ter
p3459
aVXP_011524850.1:p.Arg218Ter
p3460
aVXP_011524851.1:p.Arg181Ter
p3461
aVXP_011524852.1:p.Arg178Ter
p3462
asg15
(lp3463
sg17
(lp3464
VNM_000767.4:c.1132C>T
p3465
aVXM_005258569.1:c.1132C>T
p3466
aVXM_005258569.3:c.1132C>T
p3467
aVXM_005258570.1:c.1132C>T
p3468
aVXM_005258571.1:c.532C>T
p3469
aVXM_006723050.2:c.1132C>T
p3470
aVXM_011526546.1:c.1132C>T
p3471
aVXM_011526547.1:c.1132C>T
p3472
aVXM_011526548.1:c.652C>T
p3473
aVXM_011526549.1:c.541C>T
p3474
aVXM_011526550.1:c.532C>T
p3475
asg23
(lp3476
ssg28
I41518370
sg29
(lp3477
(dp3478
g32
VCYP2B6
p3479
sg34
VPA123
p3480
sasg36
(dp3481
g38
(lp3482
g40
(g41
g42
Ntp3483
Rp3484
(dp3485
g46
g47
sg48
g53
sbasg50
S'0/1'
p3486
sg52
g95
ssg23
S'rs34097093'
p3487
sa(dp3488
g2
(dp3489
g4
(lp3490
VNC_000019.10:g.41016810C>T
p3491
aVNC_000019.9:g.41522715C>T
p3492
aVNG_007929.1:g.30512C>T
p3493
asg9
(lp3494
VNP_000758.1:p.Arg487Cys
p3495
aVXP_005258628.1:p.Arg287Cys
p3496
aVXP_011524850.1:p.Arg327Cys
p3497
aVXP_011524851.1:p.Arg290Cys
p3498
aVXP_011524852.1:p.Arg287Cys
p3499
asg15
(lp3500
sg17
(lp3501
VNM_000767.4:c.1459C>T
p3502
aVXM_005258569.1:c.*48C>T
p3503
aVXM_005258569.3:c.*48C>T
p3504
aVXM_005258570.1:c.*214C>T
p3505
aVXM_005258571.1:c.859C>T
p3506
aVXM_006723050.2:c.*143C>T
p3507
aVXM_011526547.1:c.*214C>T
p3508
aVXM_011526548.1:c.979C>T
p3509
aVXM_011526549.1:c.868C>T
p3510
aVXM_011526550.1:c.859C>T
p3511
asg23
(lp3512
Vrs12721654
p3513
aVrs28399500
p3514
aVrs33995163
p3515
aVrs58951873
p3516
assg28
I41522715
sg29
(lp3517
(dp3518
g32
VCYP2B6
p3519
sg34
VPA123
p3520
sasg36
(dp3521
g38
(lp3522
g40
(g41
g42
Ntp3523
Rp3524
(dp3525
g46
g47
sg48
g49
sbag40
(g41
g42
Ntp3526
Rp3527
(dp3528
g46
g47
sg48
g93
sbag40
(g41
g42
Ntp3529
Rp3530
(dp3531
g46
g47
sg48
g53
sbasg50
S'0/1'
p3532
sg52
g95
ssg23
S'rs3211371'
p3533
sa(dp3534
g2
(dp3535
g4
(lp3536
VNC_000022.10:g.19950235C>T
p3537
aVNC_000022.11:g.19962712C>T
p3538
aVNG_011526.1:g.25973C>T
p3539
asg9
(lp3540
VNP_000745.1:p.His62=
p3541
aVNP_001128633.1:p.His62=
p3542
aVNP_001128634.1:p.His62=
p3543
aVNP_009294.1:p.His12=
p3544
aVXP_005261286.1:p.His62=
p3545
aVXP_011528187.1:p.His100=
p3546
aVXP_011528188.1:p.His100=
p3547
aVXP_011528189.1:p.His62=
p3548
aVXP_011528190.1:p.His62=
p3549
aVXP_011528191.1:p.His62=
p3550
aVXP_011528192.1:p.His62=
p3551
aVXP_011528193.1:p.His62=
p3552
asg15
(lp3553
VNR_039918.1:n.-1041C>T
p3554
asg17
(lp3555
VNM_000754.3:c.186C>T
p3556
aVNM_001135161.1:c.186C>T
p3557
aVNM_001135162.1:c.186C>T
p3558
aVNM_007310.2:c.36C>T
p3559
aVXM_005261229.1:c.186C>T
p3560
aVXM_011529885.1:c.300C>T
p3561
aVXM_011529886.1:c.300C>T
p3562
aVXM_011529887.1:c.186C>T
p3563
aVXM_011529888.1:c.186C>T
p3564
aVXM_011529889.1:c.186C>T
p3565
aVXM_011529890.1:c.186C>T
p3566
aVXM_011529891.1:c.186C>T
p3567
asg23
(lp3568
Vrs165735
p3569
aVrs17349382
p3570
aVrs17818166
p3571
aVrs2070105
p3572
aVrs3171582
p3573
aVrs4906
p3574
aVrs58430367
p3575
aVrs752985
p3576
assg28
I19950235
sg29
(lp3577
(dp3578
g32
VCOMT
p3579
sg34
VPA117
p3580
sasg36
(dp3581
g38
(lp3582
g40
(g41
g42
Ntp3583
Rp3584
(dp3585
g46
g47
sg48
g53
sbasg50
S'0/1'
p3586
sg52
g95
ssg23
S'rs4633'
p3587
sa(dp3588
g2
(dp3589
g4
(lp3590
VNC_000022.10:g.19951207C>G
p3591
aVNC_000022.11:g.19963684C>G
p3592
aVNG_011526.1:g.26945C>G
p3593
asg9
(lp3594
VNP_000745.1:p.Leu136=
p3595
aVNP_001128633.1:p.Leu136=
p3596
aVNP_001128634.1:p.Leu136=
p3597
aVNP_009294.1:p.Leu86=
p3598
aVXP_005261286.1:p.Leu136=
p3599
aVXP_011528187.1:p.Leu174=
p3600
aVXP_011528188.1:p.Leu174=
p3601
aVXP_011528189.1:p.Leu136=
p3602
aVXP_011528190.1:p.Leu136=
p3603
aVXP_011528191.1:p.Leu136=
p3604
aVXP_011528192.1:p.Leu136=
p3605
aVXP_011528193.1:p.Leu136=
p3606
asg15
(lp3607
VNR_039918.1:n.-69C>G
p3608
asg17
(lp3609
VNM_000754.3:c.408C>G
p3610
aVNM_001135161.1:c.408C>G
p3611
aVNM_001135162.1:c.408C>G
p3612
aVNM_007310.2:c.258C>G
p3613
aVXM_005261229.1:c.408C>G
p3614
aVXM_011529885.1:c.522C>G
p3615
aVXM_011529886.1:c.522C>G
p3616
aVXM_011529887.1:c.408C>G
p3617
aVXM_011529888.1:c.408C>G
p3618
aVXM_011529889.1:c.408C>G
p3619
aVXM_011529890.1:c.408C>G
p3620
aVXM_011529891.1:c.408C>G
p3621
asg23
(lp3622
Vrs117008153
p3623
aVrs17355478
p3624
aVrs17745510
p3625
aVrs17850822
p3626
aVrs2070103
p3627
aVrs3171583
p3628
aVrs3747069
p3629
aVrs57402237
p3630
aVrs712978
p3631
assg28
I19951207
sg29
(lp3632
(dp3633
g32
VCOMT
p3634
sg34
VPA117
p3635
sasg36
(dp3636
g38
(lp3637
g40
(g41
g42
Ntp3638
Rp3639
(dp3640
g46
g47
sg48
g93
sbag40
(g41
g42
Ntp3641
Rp3642
(dp3643
g46
g47
sg48
g53
sbasg50
S'0/1'
p3644
sg52
g95
ssg23
S'rs4818'
p3645
sa(dp3646
g2
(dp3647
g4
(lp3648
VNC_000022.10:g.19951271G>A
p3649
aVNC_000022.11:g.19963748G>A
p3650
aVNG_011526.1:g.27009G>A
p3651
asg9
(lp3652
VNP_000745.1:p.Val158Met
p3653
aVNP_001128633.1:p.Val158Met
p3654
aVNP_001128634.1:p.Val158Met
p3655
aVNP_009294.1:p.Val108Met
p3656
aVXP_005261286.1:p.Val158Met
p3657
aVXP_011528187.1:p.Val196Met
p3658
aVXP_011528188.1:p.Val196Met
p3659
aVXP_011528189.1:p.Val158Met
p3660
aVXP_011528190.1:p.Val158Met
p3661
aVXP_011528191.1:p.Val158Met
p3662
aVXP_011528192.1:p.Val158Met
p3663
aVXP_011528193.1:p.Val158Met
p3664
asg15
(lp3665
VNR_039918.1:n.-5G>A
p3666
asg17
(lp3667
VNM_000754.3:c.472G>A
p3668
aVNM_001135161.1:c.472G>A
p3669
aVNM_001135162.1:c.472G>A
p3670
aVNM_007310.2:c.322G>A
p3671
aVXM_005261229.1:c.472G>A
p3672
aVXM_011529885.1:c.586G>A
p3673
aVXM_011529886.1:c.586G>A
p3674
aVXM_011529887.1:c.472G>A
p3675
aVXM_011529888.1:c.472G>A
p3676
aVXM_011529889.1:c.472G>A
p3677
aVXM_011529890.1:c.472G>A
p3678
aVXM_011529891.1:c.472G>A
p3679
asg23
(lp3680
Vrs1131157
p3681
aVrs11544671
p3682
aVrs165688
p3683
aVrs17295216
p3684
aVrs17349704
p3685
aVrs17818178
p3686
aVrs17849308
p3687
aVrs17850006
p3688
aVrs2070104
p3689
aVrs3177905
p3690
aVrs3190784
p3691
aVrs3747070
p3692
aVrs58002978
p3693
assg28
I19951271
sg29
(lp3694
(dp3695
g32
VCOMT
p3696
sg34
VPA117
p3697
sasg36
(dp3698
g38
(lp3699
g40
(g41
g42
Ntp3700
Rp3701
(dp3702
g46
g47
sg48
g49
sbasg50
S'0/1'
p3703
sg52
g93
ssg23
S'rs4680'
p3704
sa(dp3705
g2
(dp3706
g4
(lp3707
VNC_000022.10:g.42412711G>A
p3708
aVNC_000022.11:g.42016707G>A
p3709
asg9
(lp3710
sg15
(lp3711
VXR_244353.1:n.3279-2604G>A
p3712
aVXR_244353.3:n.3536-2604G>A
p3713
aVXR_244354.1:n.21-2955G>A
p3714
aVXR_244354.3:n.3536-2955G>A
p3715
aVXR_244355.1:n.3279-3297G>A
p3716
aVXR_937827.1:n.3956-2604G>A
p3717
aVXR_937828.1:n.3956-2604G>A
p3718
aVXR_937829.1:n.3536-2604G>A
p3719
aVXR_937830.1:n.3536-2938G>A
p3720
asg17
(lp3721
VNM_152613.2:c.63-2604G>A
p3722
asg23
(lp3723
Vrs56852199
p3724
aVrs8139068
p3725
assg28
I42412711
sg29
(lp3726
(dp3727
g32
VWBP2NL
p3728
sg34
VPA145147710
p3729
sasg36
(dp3730
g38
(lp3731
g40
(g41
g42
Ntp3732
Rp3733
(dp3734
g46
g47
sg48
g49
sbasg50
S'0/1'
p3735
sg52
g93
ssg23
S'rs5758550'
p3736
sa(dp3737
g2
(dp3738
g4
(lp3739
VNC_000022.10:g.42522613G=
p3740
aVNC_000022.10:g.42522613G>C
p3741
aVNC_000022.11:g.42126611C=
p3742
aVNC_000022.11:g.42126611C>G
p3743
aVNG_008376.3:g.8381G=
p3744
aVNG_008376.3:g.8381G>C
p3745
aVNT_187682.1:g.48952G=
p3746
aVNT_187682.1:g.48952G>C
p3747
aVNW_004504305.1:g.48938G=
p3748
aVNW_004504305.1:g.48938G>C
p3749
aVNW_009646208.1:g.12177G=
p3750
aVNW_009646208.1:g.12177G>C
p3751
asg9
(lp3752
VNP_000097.3:p.Ser486=
p3753
aVNP_000097.3:p.Ser486Thr
p3754
aVNP_001020332.2:p.Ser435=
p3755
aVNP_001020332.2:p.Ser435Thr
p3756
aVXP_005278410.1:p.Thr438=
p3757
aVXP_005278410.1:p.Thr438Ser
p3758
aVXP_005278411.1:p.Thr386=
p3759
aVXP_005278411.1:p.Thr386Ser
p3760
aVXP_011528273.1:p.Ser438=
p3761
aVXP_011528273.1:p.Ser438Thr
p3762
aVXP_011546052.1:p.Thr438=
p3763
aVXP_011546052.1:p.Thr438Ser
p3764
aVXP_011546053.1:p.Thr414=
p3765
aVXP_011546053.1:p.Thr414Ser
p3766
asg15
(lp3767
VXR_952745.1:n.2472C=
p3768
aVXR_952745.1:n.2472C>G
p3769
asg17
(lp3770
VNM_000106.5:c.1457G=
p3771
aVNM_000106.5:c.1457G>C
p3772
aVNM_001025161.2:c.1304G=
p3773
aVNM_001025161.2:c.1304G>C
p3774
aVXM_005278353.1:c.1313C=
p3775
aVXM_005278353.1:c.1313C>G
p3776
aVXM_005278354.1:c.1157C=
p3777
aVXM_005278354.1:c.1157C>G
p3778
aVXM_005278354.3:c.1157C=
p3779
aVXM_005278354.3:c.1157C>G
p3780
aVXM_011529966.1:c.1452+5C>G
p3781
aVXM_011529966.1:c.1452+5G>C
p3782
aVXM_011529967.1:c.1452+5C>G
p3783
aVXM_011529967.1:c.1452+5G>C
p3784
aVXM_011529968.1:c.1452+5C>G
p3785
aVXM_011529968.1:c.1452+5G>C
p3786
aVXM_011529969.1:c.1308+5C>G
p3787
aVXM_011529969.1:c.1308+5G>C
p3788
aVXM_011529970.1:c.1299+5C>G
p3789
aVXM_011529970.1:c.1299+5G>C
p3790
aVXM_011529971.1:c.1313G=
p3791
aVXM_011529971.1:c.1313G>C
p3792
aVXM_011547750.1:c.1313C=
p3793
aVXM_011547750.1:c.1313C>G
p3794
aVXM_011547751.1:c.1241C=
p3795
aVXM_011547751.1:c.1241C>G
p3796
asg23
(lp3797
Vrs57862116
p3798
assg28
I42522613
sg29
(lp3799
(dp3800
g32
VCYP2D6
p3801
sg34
VPA128
p3802
sasg36
(dp3803
g38
(lp3804
g40
(g41
g42
Ntp3805
Rp3806
(dp3807
g46
g47
sg48
g95
sbasg50
S'0/1'
p3808
sg52
g93
ssg23
S'rs1135840'
p3809
sa(dp3810
g2
(dp3811
g4
(lp3812
VNC_000022.10:g.42523610C>T
p3813
aVNC_000022.11:g.42127608C>T
p3814
aVNG_008376.3:g.7384G>A
p3815
aVNT_187682.1:g.49949C>T
p3816
aVNW_004504305.1:g.49935C>T
p3817
aVNW_009646208.1:g.13174C>T
p3818
asg9
(lp3819
VNP_000097.3:p.Val338Met
p3820
aVNP_001020332.2:p.Val287Met
p3821
aVXP_005278410.1:p.Val290Met
p3822
aVXP_005278411.1:p.Val238Met
p3823
aVXP_011528268.1:p.Val338Met
p3824
aVXP_011528269.1:p.Val338Met
p3825
aVXP_011528270.1:p.Val338Met
p3826
aVXP_011528271.1:p.Val290Met
p3827
aVXP_011528272.1:p.Val287Met
p3828
aVXP_011528273.1:p.Val290Met
p3829
aVXP_011528274.1:p.Thr290=
p3830
aVXP_011546052.1:p.Val290Met
p3831
aVXP_011546053.1:p.Val266Met
p3832
asg15
(lp3833
VXR_952745.1:n.2027G>A
p3834
asg17
(lp3835
VNM_000106.5:c.1012G>A
p3836
aVNM_001025161.2:c.859G>A
p3837
aVXM_005278353.1:c.868G>A
p3838
aVXM_005278354.1:c.712G>A
p3839
aVXM_005278354.3:c.712G>A
p3840
aVXM_011529966.1:c.1012G>A
p3841
aVXM_011529967.1:c.1012G>A
p3842
aVXM_011529968.1:c.1012G>A
p3843
aVXM_011529969.1:c.868G>A
p3844
aVXM_011529970.1:c.859G>A
p3845
aVXM_011529971.1:c.868G>A
p3846
aVXM_011529972.1:c.870G>A
p3847
aVXM_011547541.1:c.*118G>A
p3848
aVXM_011547750.1:c.868G>A
p3849
aVXM_011547751.1:c.796G>A
p3850
aVXM_011548819.1:c.*118G>A
p3851
asg23
(lp3852
ssg28
I42523610
sg29
(lp3853
(dp3854
g32
VCYP2D6
p3855
sg34
VPA128
p3856
sasg36
(dp3857
g38
(lp3858
g40
(g41
g42
Ntp3859
Rp3860
(dp3861
g46
g47
sg48
g53
sbasg50
S'0/1'
p3862
sg52
g95
ssg23
S'rs59421388'
p3863
sa(dp3864
g2
(dp3865
g4
(lp3866
VNC_000022.10:g.42523805C>T
p3867
aVNC_000022.11:g.42127803C>T
p3868
aVNG_008376.3:g.7189G>A
p3869
aVNT_187682.1:g.50144C>T
p3870
aVNW_004504305.1:g.50130C>T
p3871
aVNW_009646208.1:g.13369C>T
p3872
asg9
(lp3873
VXP_011545843.1:p.Glu242Lys
p3874
aVXP_011547121.1:p.Glu242Lys
p3875
asg15
(lp3876
VXR_952745.1:n.2001-169G>A
p3877
asg17
(lp3878
VNM_000106.5:c.985+39G>A
p3879
aVNM_001025161.2:c.832+39G>A
p3880
aVXM_005278353.1:c.841+39G>A
p3881
aVXM_005278354.1:c.685+39G>A
p3882
aVXM_005278354.3:c.685+39G>A
p3883
aVXM_011529966.1:c.985+39G>A
p3884
aVXM_011529967.1:c.985+39G>A
p3885
aVXM_011529968.1:c.985+39G>A
p3886
aVXM_011529969.1:c.841+39G>A
p3887
aVXM_011529970.1:c.832+39G>A
p3888
aVXM_011529971.1:c.841+39G>A
p3889
aVXM_011529972.1:c.844-169G>A
p3890
aVXM_011547541.1:c.724G>A
p3891
aVXM_011547750.1:c.841+39G>A
p3892
aVXM_011547751.1:c.769+39G>A
p3893
aVXM_011548819.1:c.724G>A
p3894
asg23
(lp3895
Vrs57124011
p3896
aVrs587777916
p3897
assg28
I42523805
sg29
(lp3898
(dp3899
g32
VCYP2D6
p3900
sg34
VPA128
p3901
sasg36
(dp3902
g38
(lp3903
g40
(g41
g42
Ntp3904
Rp3905
(dp3906
g46
g47
sg48
g49
sbag40
(g41
g42
Ntp3907
Rp3908
(dp3909
g46
g47
sg48
g93
sbasg50
S'0/1'
p3910
sg52
g95
ssg23
S'rs28371725'
p3911
sa(dp3912
g2
(dp3913
g4
(lp3914
VNC_000022.10:g.42523858T>G
p3915
aVNC_000022.11:g.42127856T>G
p3916
aVNG_008376.3:g.7136A>C
p3917
aVNT_187682.1:g.50197T>G
p3918
aVNW_004504305.1:g.50183T>G
p3919
aVNW_009646208.1:g.13422T>G
p3920
asg9
(lp3921
VNP_000097.3:p.His324Pro
p3922
aVNP_001020332.2:p.His273Pro
p3923
aVXP_005278410.1:p.His276Pro
p3924
aVXP_005278411.1:p.His224Pro
p3925
aVXP_011528268.1:p.His324Pro
p3926
aVXP_011528269.1:p.His324Pro
p3927
aVXP_011528270.1:p.His324Pro
p3928
aVXP_011528271.1:p.His276Pro
p3929
aVXP_011528272.1:p.His273Pro
p3930
aVXP_011528273.1:p.His276Pro
p3931
aVXP_011545843.1:p.His224Pro
p3932
aVXP_011546052.1:p.His276Pro
p3933
aVXP_011546053.1:p.His252Pro
p3934
aVXP_011547121.1:p.His224Pro
p3935
asg15
(lp3936
VXR_952745.1:n.2001-222A>C
p3937
asg17
(lp3938
VNM_000106.5:c.971A>C
p3939
aVNM_001025161.2:c.818A>C
p3940
aVXM_005278353.1:c.827A>C
p3941
aVXM_005278354.1:c.671A>C
p3942
aVXM_005278354.3:c.671A>C
p3943
aVXM_011529966.1:c.971A>C
p3944
aVXM_011529967.1:c.971A>C
p3945
aVXM_011529968.1:c.971A>C
p3946
aVXM_011529969.1:c.827A>C
p3947
aVXM_011529970.1:c.818A>C
p3948
aVXM_011529971.1:c.827A>C
p3949
aVXM_011529972.1:c.844-222A>C
p3950
aVXM_011547541.1:c.671A>C
p3951
aVXM_011547750.1:c.827A>C
p3952
aVXM_011547751.1:c.755A>C
p3953
aVXM_011548819.1:c.671A>C
p3954
asg23
(lp3955
Vrs587777917
p3956
assg28
I42523858
sg29
(lp3957
(dp3958
g32
VCYP2D6
p3959
sg34
VPA128
p3960
sasg36
(dp3961
g38
(lp3962
g40
(g41
g42
Ntp3963
Rp3964
(dp3965
g46
g47
sg48
g49
sbag40
(g41
g42
Ntp3966
Rp3967
(dp3968
g46
g47
sg48
g95
sbasg50
S'0/1'
p3969
sg52
g53
ssg23
S'rs5030867'
p3970
sa(dp3971
g2
(dp3972
g4
(lp3973
VNC_000022.10:g.42523943A=
p3974
aVNC_000022.10:g.42523943A>G
p3975
aVNC_000022.11:g.42127941G=
p3976
aVNC_000022.11:g.42127941G>A
p3977
aVNG_008376.3:g.7051C=
p3978
aVNG_008376.3:g.7051C>T
p3979
aVNT_187682.1:g.50282A=
p3980
aVNT_187682.1:g.50282A>G
p3981
aVNW_004504305.1:g.50268G=
p3982
aVNW_004504305.1:g.50268G>A
p3983
aVNW_009646208.1:g.13507G=
p3984
aVNW_009646208.1:g.13507G>A
p3985
asg9
(lp3986
VNP_000097.3:p.Arg296=
p3987
aVNP_000097.3:p.Arg296Cys
p3988
aVNP_001020332.2:p.Arg245=
p3989
aVNP_001020332.2:p.Arg245Cys
p3990
aVXP_005278410.1:p.Arg248=
p3991
aVXP_005278410.1:p.Arg248Cys
p3992
aVXP_005278411.1:p.Arg196=
p3993
aVXP_005278411.1:p.Arg196Cys
p3994
aVXP_011528268.1:p.Arg296=
p3995
aVXP_011528268.1:p.Arg296Cys
p3996
aVXP_011528269.1:p.Arg296=
p3997
aVXP_011528269.1:p.Arg296Cys
p3998
aVXP_011528270.1:p.Arg296=
p3999
aVXP_011528270.1:p.Arg296Cys
p4000
aVXP_011528271.1:p.Arg248=
p4001
aVXP_011528271.1:p.Arg248Cys
p4002
aVXP_011528272.1:p.Arg245=
p4003
aVXP_011528272.1:p.Arg245Cys
p4004
aVXP_011528273.1:p.Arg248=
p4005
aVXP_011528273.1:p.Arg248Cys
p4006
aVXP_011545843.1:p.Arg196=
p4007
aVXP_011545843.1:p.Arg196Cys
p4008
aVXP_011546052.1:p.Cys248=
p4009
aVXP_011546052.1:p.Cys248Arg
p4010
aVXP_011546053.1:p.Cys224=
p4011
aVXP_011546053.1:p.Cys224Arg
p4012
aVXP_011547121.1:p.Arg196=
p4013
aVXP_011547121.1:p.Arg196Cys
p4014
asg15
(lp4015
VXR_430455.2:n.-1930A>G
p4016
aVXR_430455.2:n.-1930G>A
p4017
aVXR_952745.1:n.2000+233C>T
p4018
aVXR_952745.1:n.2000+233T>C
p4019
asg17
(lp4020
VNM_000106.5:c.886C=
p4021
aVNM_000106.5:c.886C>T
p4022
aVNM_001025161.2:c.733C=
p4023
aVNM_001025161.2:c.733C>T
p4024
aVXM_005278353.1:c.742C=
p4025
aVXM_005278353.1:c.742C>T
p4026
aVXM_005278354.1:c.586C=
p4027
aVXM_005278354.1:c.586C>T
p4028
aVXM_005278354.3:c.586C=
p4029
aVXM_005278354.3:c.586C>T
p4030
aVXM_011529966.1:c.886C=
p4031
aVXM_011529966.1:c.886C>T
p4032
aVXM_011529967.1:c.886C=
p4033
aVXM_011529967.1:c.886C>T
p4034
aVXM_011529968.1:c.886C=
p4035
aVXM_011529968.1:c.886C>T
p4036
aVXM_011529969.1:c.742C=
p4037
aVXM_011529969.1:c.742C>T
p4038
aVXM_011529970.1:c.733C=
p4039
aVXM_011529970.1:c.733C>T
p4040
aVXM_011529971.1:c.742C=
p4041
aVXM_011529971.1:c.742C>T
p4042
aVXM_011529972.1:c.843+233C>T
p4043
aVXM_011529972.1:c.843+233T>C
p4044
aVXM_011547541.1:c.586C=
p4045
aVXM_011547541.1:c.586C>T
p4046
aVXM_011547750.1:c.742T=
p4047
aVXM_011547750.1:c.742T>C
p4048
aVXM_011547751.1:c.670T=
p4049
aVXM_011547751.1:c.670T>C
p4050
aVXM_011547756.1:c.-2094A>G
p4051
aVXM_011547756.1:c.-2094G>A
p4052
aVXM_011548819.1:c.586C=
p4053
aVXM_011548819.1:c.586C>T
p4054
asg23
(lp4055
Vrs117039205
p4056
aVrs57836231
p4057
assg28
I42523943
sg29
(lp4058
(dp4059
g32
VCYP2D6
p4060
sg34
VPA128
p4061
sasg36
(dp4062
g38
(lp4063
g40
(g41
g42
Ntp4064
Rp4065
(dp4066
g46
g47
sg48
g93
sbasg50
S'0/1'
p4067
sg52
g49
ssg23
S'rs16947'
p4068
sa(dp4069
g2
(dp4070
g4
(lp4071
VNC_000022.10:g.42524176_42524178delCTT
p4072
aVNC_000022.11:g.42128174_42128176delCTT
p4073
aVNG_008376.3:g.6816_6818delAAG
p4074
aVNT_187682.1:g.50515_50517delCTT
p4075
aVNW_004504305.1:g.50501_50503delCTT
p4076
aVNW_009646208.1:g.13740_13742delCTT
p4077
asg9
(lp4078
VNP_000097.3:p.Lys281del
p4079
aVNP_001020332.2:p.Lys230del
p4080
aVXP_005278410.1:p.Lys233del
p4081
aVXP_005278411.1:p.Lys181del
p4082
aVXP_011528268.1:p.Lys281del
p4083
aVXP_011528269.1:p.Lys281del
p4084
aVXP_011528270.1:p.Lys281del
p4085
aVXP_011528271.1:p.Lys233del
p4086
aVXP_011528272.1:p.Lys230del
p4087
aVXP_011528273.1:p.Lys233del
p4088
aVXP_011528274.1:p.Lys281del
p4089
aVXP_011545843.1:p.Lys181del
p4090
aVXP_011546052.1:p.Lys233del
p4091
aVXP_011546053.1:p.Lys209del
p4092
aVXP_011547121.1:p.Lys181del
p4093
asg15
(lp4094
VXR_430455.2:n.-1697_-1695del
p4095
aVXR_952745.1:n.1998_2000delAAG
p4096
asg17
(lp4097
VNM_000106.5:c.841_843delAAG
p4098
aVNM_001025161.2:c.688_690delAAG
p4099
aVXM_005278353.1:c.697_699delAAG
p4100
aVXM_005278354.1:c.541_543delAAG
p4101
aVXM_005278354.3:c.541_543delAAG
p4102
aVXM_011529966.1:c.841_843delAAG
p4103
aVXM_011529967.1:c.841_843delAAG
p4104
aVXM_011529968.1:c.841_843delAAG
p4105
aVXM_011529969.1:c.697_699delAAG
p4106
aVXM_011529970.1:c.688_690delAAG
p4107
aVXM_011529971.1:c.697_699delAAG
p4108
aVXM_011529972.1:c.841_843delAAG
p4109
aVXM_011547541.1:c.541_543delAAG
p4110
aVXM_011547750.1:c.697_699delAAG
p4111
aVXM_011547751.1:c.625_627delAAG
p4112
aVXM_011547756.1:c.-1861_-1859del
p4113
aVXM_011548819.1:c.541_543delAAG
p4114
asg23
(lp4115
Vrs587777919
p4116
assg28
I42524176
sg29
(lp4117
(dp4118
g32
VCYP2D6
p4119
sg34
VPA128
p4120
sasg36
(dp4121
g38
(lp4122
g40
(g41
g42
Ntp4123
Rp4124
(dp4125
g46
g1396
sg48
S'CT'
p4126
sbasg50
S'0/1'
p4127
sg52
S'CTTCT'
p4128
ssg23
S'rs5030656'
p4129
sa(dp4130
g2
(dp4131
g4
(lp4132
VNC_000022.10:g.42524244delT
p4133
aVNC_000022.11:g.42128242delT
p4134
aVNG_008376.3:g.6750delA
p4135
aVNT_187682.1:g.50583delT
p4136
aVNW_004504305.1:g.50569delT
p4137
aVNW_009646208.1:g.13808delT
p4138
asg9
(lp4139
VNP_000097.3:p.Arg259Glyfs
p4140
aVNP_001020332.2:p.Arg208Glyfs
p4141
aVXP_005278410.1:p.Arg211Glyfs
p4142
aVXP_005278411.1:p.Arg159Glyfs
p4143
aVXP_011528268.1:p.Arg259Glyfs
p4144
aVXP_011528269.1:p.Arg259Glyfs
p4145
aVXP_011528270.1:p.Arg259Glyfs
p4146
aVXP_011528271.1:p.Arg211Glyfs
p4147
aVXP_011528272.1:p.Arg208Glyfs
p4148
aVXP_011528273.1:p.Arg211Glyfs
p4149
aVXP_011528274.1:p.Arg259Glyfs
p4150
aVXP_011545843.1:p.Arg159Glyfs
p4151
aVXP_011546052.1:p.Arg211Glyfs
p4152
aVXP_011546053.1:p.Arg187Glyfs
p4153
aVXP_011547121.1:p.Arg159Glyfs
p4154
asg15
(lp4155
VXR_430455.2:n.-1629delT
p4156
aVXR_952745.1:n.1932delA
p4157
asg17
(lp4158
VNM_000106.5:c.775delA
p4159
aVNM_001025161.2:c.622delA
p4160
aVXM_005278353.1:c.631delA
p4161
aVXM_005278354.1:c.475delA
p4162
aVXM_005278354.3:c.475delA
p4163
aVXM_011529966.1:c.775delA
p4164
aVXM_011529967.1:c.775delA
p4165
aVXM_011529968.1:c.775delA
p4166
aVXM_011529969.1:c.631delA
p4167
aVXM_011529970.1:c.622delA
p4168
aVXM_011529971.1:c.631delA
p4169
aVXM_011529972.1:c.775delA
p4170
aVXM_011547541.1:c.475delA
p4171
aVXM_011547750.1:c.631delA
p4172
aVXM_011547751.1:c.559delA
p4173
aVXM_011547756.1:c.-1793delT
p4174
aVXM_011548819.1:c.475delA
p4175
asg23
(lp4176
Vrs45593132
p4177
aVrs60790764
p4178
assg28
I42524243
sg29
(lp4179
(dp4180
g32
VCYP2D6
p4181
sg34
VPA128
p4182
sasg36
(dp4183
g38
(lp4184
g40
(g41
g42
Ntp4185
Rp4186
(dp4187
g46
g47
sg48
g95
sbag40
(g41
g42
Ntp4188
Rp4189
(dp4190
g46
g1396
sg48
S'CA'
p4191
sbasg50
S'0/1'
p4192
sg52
S'CT'
p4193
ssg23
S'rs35742686'
p4194
sa(dp4195
g2
(dp4196
g4
(lp4197
VNC_000022.10:g.42524947C=
p4198
aVNC_000022.10:g.42524947C>T
p4199
aVNC_000022.11:g.42128945C=
p4200
aVNC_000022.11:g.42128945C>T
p4201
aVNG_008376.3:g.6047G=
p4202
aVNG_008376.3:g.6047G>A
p4203
aVNT_187682.1:g.51286C=
p4204
aVNT_187682.1:g.51286C>T
p4205
aVNW_004504305.1:g.51272T=
p4206
aVNW_004504305.1:g.51272T>C
p4207
aVNW_009646208.1:g.14511C=
p4208
aVNW_009646208.1:g.14511C>T
p4209
asg9
(lp4210
sg15
(lp4211
VXR_430455.2:n.-926C>T
p4212
aVXR_430455.2:n.-926T>C
p4213
aVXR_952745.1:n.1663-1A>G
p4214
aVXR_952745.1:n.1663-1G>A
p4215
asg17
(lp4216
VNM_000106.5:c.506-1A>G
p4217
aVNM_000106.5:c.506-1G>A
p4218
aVNM_001025161.2:c.353-1A>G
p4219
aVNM_001025161.2:c.353-1G>A
p4220
aVXM_005278353.1:c.363-2A>G
p4221
aVXM_005278353.1:c.363-2G>A
p4222
aVXM_005278354.1:c.207-2A>G
p4223
aVXM_005278354.1:c.207-2G>A
p4224
aVXM_005278354.3:c.207-2A>G
p4225
aVXM_005278354.3:c.207-2G>A
p4226
aVXM_011529966.1:c.506-1A>G
p4227
aVXM_011529966.1:c.506-1G>A
p4228
aVXM_011529967.1:c.506-1A>G
p4229
aVXM_011529967.1:c.506-1G>A
p4230
aVXM_011529968.1:c.506-1A>G
p4231
aVXM_011529968.1:c.506-1G>A
p4232
aVXM_011529969.1:c.363-2A>G
p4233
aVXM_011529969.1:c.363-2G>A
p4234
aVXM_011529970.1:c.353-1A>G
p4235
aVXM_011529970.1:c.353-1G>A
p4236
aVXM_011529971.1:c.363-2A>G
p4237
aVXM_011529971.1:c.363-2G>A
p4238
aVXM_011529972.1:c.506-1A>G
p4239
aVXM_011529972.1:c.506-1G>A
p4240
aVXM_011547541.1:c.207-2A>G
p4241
aVXM_011547541.1:c.207-2G>A
p4242
aVXM_011547750.1:c.363-2A>G
p4243
aVXM_011547750.1:c.363-2G>A
p4244
aVXM_011547751.1:c.290-1A>G
p4245
aVXM_011547751.1:c.290-1G>A
p4246
aVXM_011547756.1:c.-1090C>T
p4247
aVXM_011547756.1:c.-1090T>C
p4248
aVXM_011548819.1:c.207-2A>G
p4249
aVXM_011548819.1:c.207-2G>A
p4250
asg23
(lp4251
Vrs1800716
p4252
aVrs28371711
p4253
aVrs60082401
p4254
aVrs606231227
p4255
assg28
I42524947
sg29
(lp4256
(dp4257
g32
VCYP2D6
p4258
sg34
VPA128
p4259
sasg36
(dp4260
g38
(lp4261
g40
(g41
g42
Ntp4262
Rp4263
(dp4264
g46
g47
sg48
g49
sbag40
(g41
g42
Ntp4265
Rp4266
(dp4267
g46
g47
sg48
g93
sbasg50
S'0/1'
p4268
sg52
g95
ssg23
S'rs3892097'
p4269
sa(dp4270
g2
(dp4271
g4
(lp4272
VNC_000022.10:g.42525035C>A
p4273
aVNC_000022.10:g.42525035C>T
p4274
aVNC_000022.11:g.42129033C>A
p4275
aVNC_000022.11:g.42129033C>T
p4276
aVNG_008376.3:g.5959G>A
p4277
aVNG_008376.3:g.5959G>T
p4278
aVNT_187682.1:g.51374C>A
p4279
aVNT_187682.1:g.51374C>T
p4280
aVNW_004504305.1:g.51360C>A
p4281
aVNW_004504305.1:g.51360C>T
p4282
aVNW_009646208.1:g.14599C>A
p4283
aVNW_009646208.1:g.14599C>T
p4284
asg9
(lp4285
VNP_000097.3:p.Gly169Arg
p4286
aVNP_000097.3:p.Gly169Ter
p4287
aVXP_005278411.1:p.Arg69Gln
p4288
aVXP_005278411.1:p.Arg69Leu
p4289
aVXP_011528268.1:p.Gly169Arg
p4290
aVXP_011528268.1:p.Gly169Ter
p4291
aVXP_011528269.1:p.Gly169Arg
p4292
aVXP_011528269.1:p.Gly169Ter
p4293
aVXP_011528270.1:p.Gly169Arg
p4294
aVXP_011528270.1:p.Gly169Ter
p4295
aVXP_011528271.1:p.Arg121Gln
p4296
aVXP_011528271.1:p.Arg121Leu
p4297
aVXP_011528273.1:p.Arg121Gln
p4298
aVXP_011528273.1:p.Arg121Leu
p4299
aVXP_011528274.1:p.Gly169Arg
p4300
aVXP_011528274.1:p.Gly169Ter
p4301
aVXP_011545843.1:p.Arg69Gln
p4302
aVXP_011545843.1:p.Arg69Leu
p4303
aVXP_011546052.1:p.Arg121Gln
p4304
aVXP_011546052.1:p.Arg121Leu
p4305
aVXP_011546053.1:p.Gly97Arg
p4306
aVXP_011546053.1:p.Gly97Ter
p4307
aVXP_011547121.1:p.Arg69Gln
p4308
aVXP_011547121.1:p.Arg69Leu
p4309
asg15
(lp4310
VXR_430455.2:n.-838C>A
p4311
aVXR_430455.2:n.-838C>T
p4312
aVXR_952745.1:n.1662G>A
p4313
aVXR_952745.1:n.1662G>T
p4314
asg17
(lp4315
VNM_000106.5:c.505G>A
p4316
aVNM_000106.5:c.505G>T
p4317
aVNM_001025161.2:c.353-89G>A
p4318
aVNM_001025161.2:c.353-89G>T
p4319
aVXM_005278353.1:c.363-90G>A
p4320
aVXM_005278353.1:c.363-90G>T
p4321
aVXM_005278354.1:c.206G>A
p4322
aVXM_005278354.1:c.206G>T
p4323
aVXM_005278354.3:c.206G>A
p4324
aVXM_005278354.3:c.206G>T
p4325
aVXM_011529966.1:c.505G>A
p4326
aVXM_011529966.1:c.505G>T
p4327
aVXM_011529967.1:c.505G>A
p4328
aVXM_011529967.1:c.505G>T
p4329
aVXM_011529968.1:c.505G>A
p4330
aVXM_011529968.1:c.505G>T
p4331
aVXM_011529969.1:c.362G>A
p4332
aVXM_011529969.1:c.362G>T
p4333
aVXM_011529970.1:c.353-89G>A
p4334
aVXM_011529970.1:c.353-89G>T
p4335
aVXM_011529971.1:c.362G>A
p4336
aVXM_011529971.1:c.362G>T
p4337
aVXM_011529972.1:c.505G>A
p4338
aVXM_011529972.1:c.505G>T
p4339
aVXM_011547541.1:c.206G>A
p4340
aVXM_011547541.1:c.206G>T
p4341
aVXM_011547750.1:c.362G>A
p4342
aVXM_011547750.1:c.362G>T
p4343
aVXM_011547751.1:c.289G>A
p4344
aVXM_011547751.1:c.289G>T
p4345
aVXM_011547756.1:c.-1002C>A
p4346
aVXM_011547756.1:c.-1002C>T
p4347
aVXM_011548819.1:c.206G>A
p4348
aVXM_011548819.1:c.206G>T
p4349
asg23
(lp4350
ssg28
I42525035
sg29
(lp4351
(dp4352
g32
VCYP2D6
p4353
sg34
VPA128
p4354
sasg36
(dp4355
g38
(lp4356
g40
(g41
g42
Ntp4357
Rp4358
(dp4359
g46
g47
sg48
g49
sbag40
(g41
g42
Ntp4360
Rp4361
(dp4362
g46
g47
sg48
g53
sbasg50
S'0/1'
p4363
sg52
g95
ssg23
S'rs5030865'
p4364
sa(dp4365
g2
(dp4366
g4
(lp4367
VNC_000022.10:g.42525086delA
p4368
aVNC_000022.11:g.42129084delA
p4369
aVNG_008376.3:g.5908delT
p4370
aVNT_187682.1:g.51425delA
p4371
aVNW_004504305.1:g.51411delA
p4372
aVNW_009646208.1:g.14650delA
p4373
asg9
(lp4374
VNP_000097.3:p.Trp152Glyfs
p4375
aVXP_005278411.1:p.Val52Glyfs
p4376
aVXP_011528268.1:p.Trp152Glyfs
p4377
aVXP_011528269.1:p.Trp152Glyfs
p4378
aVXP_011528270.1:p.Trp152Glyfs
p4379
aVXP_011528271.1:p.Val104Glyfs
p4380
aVXP_011528273.1:p.Val104Glyfs
p4381
aVXP_011528274.1:p.Trp152Glyfs
p4382
aVXP_011545843.1:p.Val52Glyfs
p4383
aVXP_011546052.1:p.Val104Glyfs
p4384
aVXP_011546053.1:p.Trp80Glyfs
p4385
aVXP_011547121.1:p.Val52Glyfs
p4386
asg15
(lp4387
VXR_430455.2:n.-787delA
p4388
aVXR_952745.1:n.1611delT
p4389
asg17
(lp4390
VNM_000106.5:c.454delT
p4391
aVNM_001025161.2:c.353-140delT
p4392
aVXM_005278353.1:c.363-141delT
p4393
aVXM_005278354.1:c.155delT
p4394
aVXM_005278354.3:c.155delT
p4395
aVXM_011529966.1:c.454delT
p4396
aVXM_011529967.1:c.454delT
p4397
aVXM_011529968.1:c.454delT
p4398
aVXM_011529969.1:c.311delT
p4399
aVXM_011529970.1:c.353-140delT
p4400
aVXM_011529971.1:c.311delT
p4401
aVXM_011529972.1:c.454delT
p4402
aVXM_011547541.1:c.155delT
p4403
aVXM_011547750.1:c.311delT
p4404
aVXM_011547751.1:c.238delT
p4405
aVXM_011547756.1:c.-951delA
p4406
aVXM_011548819.1:c.155delT
p4407
asg23
(lp4408
Vrs11568727
p4409
aVrs28371709
p4410
assg28
I42525085
sg29
(lp4411
(dp4412
g32
VCYP2D6
p4413
sg34
VPA128
p4414
sasg36
(dp4415
g38
(lp4416
g40
(g41
g42
Ntp4417
Rp4418
(dp4419
g46
g47
sg48
g95
sbag40
(g41
g42
Ntp4420
Rp4421
(dp4422
g46
g1396
sg48
S'CT'
p4423
sbasg50
S'0/1'
p4424
sg52
S'CA'
p4425
ssg23
S'rs5030655'
p4426
sa(dp4427
g2
(dp4428
g4
(lp4429
VNC_000022.10:g.42525772G>A
p4430
aVNC_000022.11:g.42129770G>A
p4431
aVNG_008376.3:g.5222C>T
p4432
aVNT_187682.1:g.52111G>A
p4433
aVNW_004504305.1:g.52097G>A
p4434
aVNW_009646208.1:g.15336G>A
p4435
asg9
(lp4436
VNP_000097.3:p.Thr107Ile
p4437
aVNP_001020332.2:p.Thr107Ile
p4438
aVXP_005278410.1:p.Thr107Ile
p4439
aVXP_011528268.1:p.Thr107Ile
p4440
aVXP_011528269.1:p.Thr107Ile
p4441
aVXP_011528270.1:p.Thr107Ile
p4442
aVXP_011528271.1:p.His59=
p4443
aVXP_011528272.1:p.Thr107Ile
p4444
aVXP_011528273.1:p.His59=
p4445
aVXP_011528274.1:p.Thr107Ile
p4446
aVXP_011546052.1:p.His59=
p4447
asg15
(lp4448
VXR_430455.2:n.-101G>A
p4449
aVXR_952745.1:n.1477C>T
p4450
asg17
(lp4451
VNM_000106.5:c.320C>T
p4452
aVNM_001025161.2:c.320C>T
p4453
aVXM_005278353.1:c.320C>T
p4454
aVXM_005278354.1:c.-532C>T
p4455
aVXM_005278354.3:c.-532C>T
p4456
aVXM_011529966.1:c.320C>T
p4457
aVXM_011529967.1:c.320C>T
p4458
aVXM_011529968.1:c.320C>T
p4459
aVXM_011529969.1:c.177C>T
p4460
aVXM_011529970.1:c.320C>T
p4461
aVXM_011529971.1:c.177C>T
p4462
aVXM_011529972.1:c.320C>T
p4463
aVXM_011547541.1:c.-532C>T
p4464
aVXM_011547750.1:c.177C>T
p4465
aVXM_011547751.1:c.-192C>T
p4466
aVXM_011547756.1:c.-265G>A
p4467
aVXM_011548819.1:c.-532C>T
p4468
asg23
(lp4469
Vrs587777915
p4470
aVrs59604033
p4471
assg28
I42525772
sg29
(lp4472
(dp4473
g32
VCYP2D6
p4474
sg34
VPA128
p4475
sasg36
(dp4476
g38
(lp4477
g40
(g41
g42
Ntp4478
Rp4479
(dp4480
g46
g47
sg48
g49
sbag40
(g41
g42
Ntp4481
Rp4482
(dp4483
g46
g47
sg48
g95
sbag40
(g41
g42
Ntp4484
Rp4485
(dp4486
g46
g47
sg48
g53
sbasg50
S'0/1'
p4487
sg52
g93
ssg23
S'rs28371706'
p4488
sa(dp4489
g2
(dp4490
g4
(lp4491
VNC_000022.10:g.42526670C>T
p4492
aVNC_000022.11:g.42130668C>T
p4493
aVNG_008376.3:g.4324G>A
p4494
aVNT_187682.1:g.53009C>T
p4495
aVNW_004504305.1:g.52995C>T
p4496
aVNW_009646208.1:g.16234C>T
p4497
asg9
(lp4498
VNP_000097.3:p.Gly42Arg
p4499
aVNP_001020332.2:p.Gly42Arg
p4500
aVXP_005278410.1:p.Gly42Arg
p4501
aVXP_011528268.1:p.Gly42Arg
p4502
aVXP_011528269.1:p.Gly42Arg
p4503
aVXP_011528270.1:p.Gly42Arg
p4504
aVXP_011528272.1:p.Gly42Arg
p4505
aVXP_011528274.1:p.Gly42Arg
p4506
asg15
(lp4507
VXR_430455.2:n.308C>T
p4508
aVXR_952536.1:n.-1775C>T
p4509
aVXR_952537.1:n.-1775C>T
p4510
aVXR_952538.1:n.-1775C>T
p4511
aVXR_952539.1:n.-1486C>T
p4512
aVXR_952745.1:n.1281G>A
p4513
asg17
(lp4514
VNM_000106.5:c.124G>A
p4515
aVNM_001025161.2:c.124G>A
p4516
aVXM_005278353.1:c.124G>A
p4517
aVXM_005278354.1:c.-1430G>A
p4518
aVXM_005278354.3:c.-1430G>A
p4519
aVXM_011529966.1:c.124G>A
p4520
aVXM_011529967.1:c.124G>A
p4521
aVXM_011529968.1:c.124G>A
p4522
aVXM_011529969.1:c.37+629G>A
p4523
aVXM_011529970.1:c.124G>A
p4524
aVXM_011529971.1:c.37+629G>A
p4525
aVXM_011529972.1:c.124G>A
p4526
aVXM_011547541.1:c.-1430G>A
p4527
aVXM_011547750.1:c.37+629G>A
p4528
aVXM_011547751.1:c.-1090G>A
p4529
aVXM_011547756.1:c.42+445C>T
p4530
aVXM_011548819.1:c.-1430G>A
p4531
asg23
(lp4532
Vrs386597403
p4533
aVrs587777918
p4534
assg28
I42526670
sg29
(lp4535
(dp4536
g32
VCYP2D6
p4537
sg34
VPA128
p4538
sasg36
(dp4539
g38
(lp4540
g40
(g41
g42
Ntp4541
Rp4542
(dp4543
g46
g47
sg48
g49
sbag40
(g41
g42
Ntp4544
Rp4545
(dp4546
g46
g47
sg48
g93
sbasg50
S'0/1'
p4547
sg52
g95
ssg23
S'rs5030862'
p4548
sa(dp4549
g2
(dp4550
g4
(lp4551
VNC_000022.10:g.42526694G=
p4552
aVNC_000022.10:g.42526694G>A
p4553
aVNC_000022.11:g.42130692G=
p4554
aVNC_000022.11:g.42130692G>A
p4555
aVNG_008376.3:g.4300C=
p4556
aVNG_008376.3:g.4300C>T
p4557
aVNT_187682.1:g.53033G=
p4558
aVNT_187682.1:g.53033G>A
p4559
aVNW_004504305.1:g.53019A=
p4560
aVNW_004504305.1:g.53019A>G
p4561
aVNW_009646208.1:g.16258A=
p4562
aVNW_009646208.1:g.16258A>G
p4563
asg9
(lp4564
VNP_000097.3:p.Pro34=
p4565
aVNP_000097.3:p.Pro34Ser
p4566
aVNP_001020332.2:p.Pro34=
p4567
aVNP_001020332.2:p.Pro34Ser
p4568
aVXP_005278410.1:p.Ser34=
p4569
aVXP_005278410.1:p.Ser34Pro
p4570
aVXP_011528268.1:p.Pro34=
p4571
aVXP_011528268.1:p.Pro34Ser
p4572
aVXP_011528269.1:p.Pro34=
p4573
aVXP_011528269.1:p.Pro34Ser
p4574
aVXP_011528270.1:p.Pro34=
p4575
aVXP_011528270.1:p.Pro34Ser
p4576
aVXP_011528272.1:p.Pro34=
p4577
aVXP_011528272.1:p.Pro34Ser
p4578
aVXP_011528274.1:p.Pro34=
p4579
aVXP_011528274.1:p.Pro34Ser
p4580
asg15
(lp4581
VXR_430455.2:n.328+4A>G
p4582
aVXR_430455.2:n.328+4G>A
p4583
aVXR_952536.1:n.-1751A>G
p4584
aVXR_952536.1:n.-1751G>A
p4585
aVXR_952537.1:n.-1751A>G
p4586
aVXR_952537.1:n.-1751G>A
p4587
aVXR_952538.1:n.-1751A>G
p4588
aVXR_952538.1:n.-1751G>A
p4589
aVXR_952539.1:n.-1462A>G
p4590
aVXR_952539.1:n.-1462G>A
p4591
aVXR_952745.1:n.1257C=
p4592
aVXR_952745.1:n.1257C>T
p4593
asg17
(lp4594
VNM_000106.5:c.100C=
p4595
aVNM_000106.5:c.100C>T
p4596
aVNM_001025161.2:c.100C=
p4597
aVNM_001025161.2:c.100C>T
p4598
aVXM_005278353.1:c.100T=
p4599
aVXM_005278353.1:c.100T>C
p4600
aVXM_005278354.1:c.-1454C>T
p4601
aVXM_005278354.1:c.-1454T>C
p4602
aVXM_005278354.3:c.-1454C>T
p4603
aVXM_005278354.3:c.-1454T>C
p4604
aVXM_011529966.1:c.100C=
p4605
aVXM_011529966.1:c.100C>T
p4606
aVXM_011529967.1:c.100C=
p4607
aVXM_011529967.1:c.100C>T
p4608
aVXM_011529968.1:c.100C=
p4609
aVXM_011529968.1:c.100C>T
p4610
aVXM_011529969.1:c.37+605C>T
p4611
aVXM_011529969.1:c.37+605T>C
p4612
aVXM_011529970.1:c.100C=
p4613
aVXM_011529970.1:c.100C>T
p4614
aVXM_011529971.1:c.37+605C>T
p4615
aVXM_011529971.1:c.37+605T>C
p4616
aVXM_011529972.1:c.100C=
p4617
aVXM_011529972.1:c.100C>T
p4618
aVXM_011547541.1:c.-1454C>T
p4619
aVXM_011547541.1:c.-1454T>C
p4620
aVXM_011547750.1:c.37+605C>T
p4621
aVXM_011547750.1:c.37+605T>C
p4622
aVXM_011547751.1:c.-1114C>T
p4623
aVXM_011547751.1:c.-1114T>C
p4624
aVXM_011547756.1:c.42+469A>G
p4625
aVXM_011547756.1:c.42+469G>A
p4626
aVXM_011548819.1:c.-1454C>T
p4627
aVXM_011548819.1:c.-1454T>C
p4628
asg23
(lp4629
Vrs117813846
p4630
aVrs58862176
p4631
assg28
I42526694
sg29
(lp4632
(dp4633
g32
VCYP2D6
p4634
sg34
VPA128
p4635
sasg36
(dp4636
g38
(lp4637
g40
(g41
g42
Ntp4638
Rp4639
(dp4640
g46
g47
sg48
g95
sbag40
(g41
g42
Ntp4641
Rp4642
(dp4643
g46
g47
sg48
g53
sbasg50
S'0/1'
p4644
sg52
g93
ssg23
S'rs1065852'
p4645
sa(dp4646
g2
(dp4647
g4
(lp4648
VNC_000022.10:g.46610067G>A
p4649
aVNC_000022.11:g.46214170G>A
p4650
aVNG_012204.1:g.68569G>A
p4651
asg9
(lp4652
sg15
(lp4653
VXR_244379.1:n.432-1003G>A
p4654
aVXR_937869.1:n.524-1003G>A
p4655
aVXR_937870.1:n.523-1003G>A
p4656
asg17
(lp4657
VNM_001001928.2:c.209-1003G>A
p4658
aVNM_005036.4:c.209-1003G>A
p4659
aVXM_005261653.1:c.209-1003G>A
p4660
aVXM_005261654.1:c.209-1003G>A
p4661
aVXM_005261655.1:c.209-1003G>A
p4662
aVXM_005261655.2:c.209-1003G>A
p4663
aVXM_005261656.1:c.209-1003G>A
p4664
aVXM_005261656.2:c.209-1003G>A
p4665
aVXM_005261657.1:c.209-1003G>A
p4666
aVXM_005261658.1:c.209-1003G>A
p4667
aVXM_006724269.2:c.209-1003G>A
p4668
aVXM_006724270.2:c.209-1003G>A
p4669
aVXM_011530239.1:c.209-1003G>A
p4670
aVXM_011530240.1:c.209-1003G>A
p4671
aVXM_011530241.1:c.209-1003G>A
p4672
aVXM_011530242.1:c.209-1003G>A
p4673
aVXM_011530243.1:c.209-1003G>A
p4674
aVXM_011530244.1:c.-198-1003G>A
p4675
aVXM_011530245.1:c.-198-1003G>A
p4676
asg23
(lp4677
Vrs17242080
p4678
aVrs56473198
p4679
aVrs56722050
p4680
assg28
I46610067
sg29
(lp4681
(dp4682
g32
VPPARA
p4683
sg34
VPA280
p4684
sasg36
(dp4685
g38
(lp4686
g40
(g41
g42
Ntp4687
Rp4688
(dp4689
g46
g47
sg48
g49
sbasg50
S'0/1'
p4690
sg52
g93
ssg23
S'rs4253728'
p4691
sa.